.file "printFile0.c" 
 .section .rodata 
 .align 8 
 .LC0: 
 .string "lcpsklryvmcpjnbpbwllsrehfmxrkecwitrsglrexvtjmxypunbqfgxmuvgfajclfvenhyuhuorjosamibdnjdbeyhkbsombltouujdrbwcrrcgbflqpottpegrwvgajcrgwd\177" 
 .text 
 .globl main 
 .type main, @function 
 main: 
 .LFB0: 
 .cfi_startproc 
 pushq %rbp 
 .cfi_def_cfa_offset 16 
 .cfi_offset 6, -16 
 movq %rsp, %rbp 
 .cfi_def_cfa_register 6 
 movl $.LC0, %edi 
 movl $0, %eax 
 call printf 
 movl $0, %eax 
 popq %rbp 
 .cfi_def_cfa 7, 8 
 ret 
 .cfi_endproc 
 .LFE0: 
 .size main, .-main 
 .ident "GCC: (Ubuntu 5.4.0-6ubuntu1~16.04.4) 5.4.0 20160609" 
 .section .note.GNU-stack,"",@progbits 
 .file "printFile1.c" 
 .section .rodata 
 .align 8 
 .LC0: 
 .string "pgitydvhedtusippyvxsuvbvfenodqasajoyglrexvtjmxypunbqfgxmuvgfajclfvenhyuhuorjosamibdnjdbeyhkbsombltouujdrbwcrrcgbflqpottpegrwvgajcrgwd\177" 
 .text 
 .globl main 
 .type main, @function 
 main: 
 .LFB0: 
 .cfi_startproc 
 pushq %rbp 
 .cfi_def_cfa_offset 16 
 .cfi_offset 6, -16 
 movq %rsp, %rbp 
 .cfi_def_cfa_register 6 
 movl $.LC0, %edi 
 movl $0, %eax 
 call printf 
 movl $0, %eax 
 popq %rbp 
 .cfi_def_cfa 7, 8 
 ret 
 .cfi_endproc 
 .LFE0: 
 .size main, .-main 
 .ident "GCC: (Ubuntu 5.4.0-6ubuntu1~16.04.4) 5.4.0 20160609" 
 .section .note.GNU-stack,"",@progbits 
 .file "printFile2.c" 
 .section .rodata 
 .align 8 
 .LC0: 
 .string "mgsqcpjlhbmdahyviuemkssdsldebesnnngpesdntrrvysuipywatpfoelthrowhfvenhyuhuorjosamibdnjdbeyhkbsombltouujdrbwcrrcgbflqpottpegrwvgajcrgwd\177" 
 .text 
 .globl main 
 .type main, @function 
 main: 
 .LFB0: 
 .cfi_startproc 
 pushq %rbp 
 .cfi_def_cfa_offset 16 
 .cfi_offset 6, -16 
 movq %rsp, %rbp 
 .cfi_def_cfa_register 6 
 movl $.LC0, %edi 
 movl $0, %eax 
 call printf 
 movl $0, %eax 
 popq %rbp 
 .cfi_def_cfa 7, 8 
 ret 
 .cfi_endproc 
 .LFE0: 
 .size main, .-main 
 .ident "GCC: (Ubuntu 5.4.0-6ubuntu1~16.04.4) 5.4.0 20160609" 
 .section .note.GNU-stack,"",@progbits 
 .file "printFile3.c" 
 .section .rodata 
 .align 8 
 .LC0: 
 .string "exlwdysvspwlkfblfdfultbwpiqhiymmyalcyeasvxggfitknygyvjxnspubqjppjbrlhugesmmxwjjlkrmgbnwvftyveolprfdcajiuywcrrcgbflqpottpegrwvgajcrgwd\177" 
 .text 
 .globl main 
 .type main, @function 
 main: 
 .LFB0: 
 .cfi_startproc 
 pushq %rbp 
 .cfi_def_cfa_offset 16 
 .cfi_offset 6, -16 
 movq %rsp, %rbp 
 .cfi_def_cfa_register 6 
 movl $.LC0, %edi 
 movl $0, %eax 
 call printf 
 movl $0, %eax 
 popq %rbp 
 .cfi_def_cfa 7, 8 
 ret 
 .cfi_endproc 
 .LFE0: 
 .size main, .-main 
 .ident "GCC: (Ubuntu 5.4.0-6ubuntu1~16.04.4) 5.4.0 20160609" 
 .section .note.GNU-stack,"",@progbits 
 .file "printFile4.c" 
 .section .rodata 
 .align 8 
 .LC0: 
 .string "tvgfjrwwaakwyprxnxpypjbwpiqhiymmyalcyeasvxggfitknygyvjxnspubqjppjbrlhugesmmxwjjlkrmgbnwvftyveolprfdcajiuywcrrcgbflqpottpegrwvgajcrgwd\177" 
 .text 
 .globl main 
 .type main, @function 
 main: 
 .LFB0: 
 .cfi_startproc 
 pushq %rbp 
 .cfi_def_cfa_offset 16 
 .cfi_offset 6, -16 
 movq %rsp, %rbp 
 .cfi_def_cfa_register 6 
 movl $.LC0, %edi 
 movl $0, %eax 
 call printf 
 movl $0, %eax 
 popq %rbp 
 .cfi_def_cfa 7, 8 
 ret 
 .cfi_endproc 
 .LFE0: 
 .size main, .-main 
 .ident "GCC: (Ubuntu 5.4.0-6ubuntu1~16.04.4) 5.4.0 20160609" 
 .section .note.GNU-stack,"",@progbits 
 .file "printFile5.c" 
 .section .rodata 
 .align 8 
 .LC0: 
 .string "tlhfteetxbafkrejsfvrenlebjtccgjvrsdowiixlidxdiixpervseavnwypdinwdrlacvanhelkovkedrmgbnwvftyveolprfdcajiuywcrrcgbflqpottpegrwvgajcrgwd\177" 
 .text 
 .globl main 
 .type main, @function 
 main: 
 .LFB0: 
 .cfi_startproc 
 pushq %rbp 
 .cfi_def_cfa_offset 16 
 .cfi_offset 6, -16 
 movq %rsp, %rbp 
 .cfi_def_cfa_register 6 
 movl $.LC0, %edi 
 movl $0, %eax 
 call printf 
 movl $0, %eax 
 popq %rbp 
 .cfi_def_cfa 7, 8 
 ret 
 .cfi_endproc 
 .LFE0: 
 .size main, .-main 
 .ident "GCC: (Ubuntu 5.4.0-6ubuntu1~16.04.4) 5.4.0 20160609" 
 .section .note.GNU-stack,"",@progbits 
 .file "printFile6.c" 
 .section .rodata 
 .align 8 
 .LC0: 
 .string "axgctwysocddagwnjbkjorpceeyokeskcanvyornrustephpqtbhlrkrxlgjpavrcjpbyhosfimlavbtqcdevpwubfgshcmlofmpmektoyfquimnnqujgrgkymfjrsujcrgwd\177" 
 .text 
 .globl main 
 .type main, @function 
 main: 
 .LFB0: 
 .cfi_startproc 
 pushq %rbp 
 .cfi_def_cfa_offset 16 
 .cfi_offset 6, -16 
 movq %rsp, %rbp 
 .cfi_def_cfa_register 6 
 movl $.LC0, %edi 
 movl $0, %eax 
 call printf 
 movl $0, %eax 
 popq %rbp 
 .cfi_def_cfa 7, 8 
 ret 
 .cfi_endproc 
 .LFE0: 
 .size main, .-main 
 .ident "GCC: (Ubuntu 5.4.0-6ubuntu1~16.04.4) 5.4.0 20160609" 
 .section .note.GNU-stack,"",@progbits 
 .file "printFile7.c" 
 .section .rodata 
 .align 8 
 .LC0: 
 .string "xixmoihdhoveajsnanyihgsiuyrotnwtxanvyornrustephpqtbhlrkrxlgjpavrcjpbyhosfimlavbtqcdevpwubfgshcmlofmpmektoyfquimnnqujgrgkymfjrsujcrgwd\177" 
 .text 
 .globl main 
 .type main, @function 
 main: 
 .LFB0: 
 .cfi_startproc 
 pushq %rbp 
 .cfi_def_cfa_offset 16 
 .cfi_offset 6, -16 
 movq %rsp, %rbp 
 .cfi_def_cfa_register 6 
 movl $.LC0, %edi 
 movl $0, %eax 
 call printf 
 movl $0, %eax 
 popq %rbp 
 .cfi_def_cfa 7, 8 
 ret 
 .cfi_endproc 
 .LFE0: 
 .size main, .-main 
 .ident "GCC: (Ubuntu 5.4.0-6ubuntu1~16.04.4) 5.4.0 20160609" 
 .section .note.GNU-stack,"",@progbits 
 .file "printFile8.c" 
 .section .rodata 
 .align 8 
 .LC0: 
 .string "gmhprqhpvhyqwbgvmpefxagqqcgovenfsvummecklebihjhtylcalksfnytlfjqafoosssfhwhrfsybsldsyonecmantkhtrvfmpmektoyfquimnnqujgrgkymfjrsujcrgwd\177" 
 .text 
 .globl main 
 .type main, @function 
 main: 
 .LFB0: 
 .cfi_startproc 
 pushq %rbp 
 .cfi_def_cfa_offset 16 
 .cfi_offset 6, -16 
 movq %rsp, %rbp 
 .cfi_def_cfa_register 6 
 movl $.LC0, %edi 
 movl $0, %eax 
 call printf 
 movl $0, %eax 
 popq %rbp 
 .cfi_def_cfa 7, 8 
 ret 
 .cfi_endproc 
 .LFE0: 
 .size main, .-main 
 .ident "GCC: (Ubuntu 5.4.0-6ubuntu1~16.04.4) 5.4.0 20160609" 
 .section .note.GNU-stack,"",@progbits 
 .file "printFile9.c" 
 .section .rodata 
 .align 8 
 .LC0: 
 .string "mqdsxdaqksrlnfpifevlikoxebfasdkguoymmecklebihjhtylcalksfnytlfjqafoosssfhwhrfsybsldsyonecmantkhtrvfmpmektoyfquimnnqujgrgkymfjrsujcrgwd\177" 
 .text 
 .globl main 
 .type main, @function 
 main: 
 .LFB0: 
 .cfi_startproc 
 pushq %rbp 
 .cfi_def_cfa_offset 16 
 .cfi_offset 6, -16 
 movq %rsp, %rbp 
 .cfi_def_cfa_register 6 
 movl $.LC0, %edi 
 movl $0, %eax 
 call printf 
 movl $0, %eax 
 popq %rbp 
 .cfi_def_cfa 7, 8 
 ret 
 .cfi_endproc 
 .LFE0: 
 .size main, .-main 
 .ident "GCC: (Ubuntu 5.4.0-6ubuntu1~16.04.4) 5.4.0 20160609" 
 .section .note.GNU-stack,"",@progbits 
 .file "printFile10.c" 
 .section .rodata 
 .align 8 
 .LC0: 
 .string "rbncvgpklfuslrhvevujikoxebfasdkguoymmecklebihjhtylcalksfnytlfjqafoosssfhwhrfsybsldsyonecmantkhtrvfmpmektoyfquimnnqujgrgkymfjrsujcrgwd\177" 
 .text 
 .globl main 
 .type main, @function 
 main: 
 .LFB0: 
 .cfi_startproc 
 pushq %rbp 
 .cfi_def_cfa_offset 16 
 .cfi_offset 6, -16 
 movq %rsp, %rbp 
 .cfi_def_cfa_register 6 
 movl $.LC0, %edi 
 movl $0, %eax 
 call printf 
 movl $0, %eax 
 popq %rbp 
 .cfi_def_cfa 7, 8 
 ret 
 .cfi_endproc 
 .LFE0: 
 .size main, .-main 
 .ident "GCC: (Ubuntu 5.4.0-6ubuntu1~16.04.4) 5.4.0 20160609" 
 .section .note.GNU-stack,"",@progbits 
 .file "printFile11.c" 
 .section .rodata 
 .align 8 
 .LC0: 
 .string "cjpiwxfnwafxojwwyhkheeoxebfasdkguoymmecklebihjhtylcalksfnytlfjqafoosssfhwhrfsybsldsyonecmantkhtrvfmpmektoyfquimnnqujgrgkymfjrsujcrgwd\177" 
 .text 
 .globl main 
 .type main, @function 
 main: 
 .LFB0: 
 .cfi_startproc 
 pushq %rbp 
 .cfi_def_cfa_offset 16 
 .cfi_offset 6, -16 
 movq %rsp, %rbp 
 .cfi_def_cfa_register 6 
 movl $.LC0, %edi 
 movl $0, %eax 
 call printf 
 movl $0, %eax 
 popq %rbp 
 .cfi_def_cfa 7, 8 
 ret 
 .cfi_endproc 
 .LFE0: 
 .size main, .-main 
 .ident "GCC: (Ubuntu 5.4.0-6ubuntu1~16.04.4) 5.4.0 20160609" 
 .section .note.GNU-stack,"",@progbits 
 .file "printFile12.c" 
 .section .rodata 
 .align 8 
 .LC0: 
 .string "xlpdjmmiqxxywwekvhpwvbtsbddihjdgwujijxqbxpcvojgkqyjoadjdgonobrwxmghwgaaepeagnhtggduihgmpvaewrhtrvfmpmektoyfquimnnqujgrgkymfjrsujcrgwd\177" 
 .text 
 .globl main 
 .type main, @function 
 main: 
 .LFB0: 
 .cfi_startproc 
 pushq %rbp 
 .cfi_def_cfa_offset 16 
 .cfi_offset 6, -16 
 movq %rsp, %rbp 
 .cfi_def_cfa_register 6 
 movl $.LC0, %edi 
 movl $0, %eax 
 call printf 
 movl $0, %eax 
 popq %rbp 
 .cfi_def_cfa 7, 8 
 ret 
 .cfi_endproc 
 .LFE0: 
 .size main, .-main 
 .ident "GCC: (Ubuntu 5.4.0-6ubuntu1~16.04.4) 5.4.0 20160609" 
 .section .note.GNU-stack,"",@progbits 
 .file "printFile13.c" 
 .section .rodata 
 .align 8 
 .LC0: 
 .string "whjggphiuymwibecjmhhvqnkhlklkfpiobquradoaplkssmdhvkoadjdgonobrwxmghwgaaepeagnhtggduihgmpvaewrhtrvfmpmektoyfquimnnqujgrgkymfjrsujcrgwd\177" 
 .text 
 .globl main 
 .type main, @function 
 main: 
 .LFB0: 
 .cfi_startproc 
 pushq %rbp 
 .cfi_def_cfa_offset 16 
 .cfi_offset 6, -16 
 movq %rsp, %rbp 
 .cfi_def_cfa_register 6 
 movl $.LC0, %edi 
 movl $0, %eax 
 call printf 
 movl $0, %eax 
 popq %rbp 
 .cfi_def_cfa 7, 8 
 ret 
 .cfi_endproc 
 .LFE0: 
 .size main, .-main 
 .ident "GCC: (Ubuntu 5.4.0-6ubuntu1~16.04.4) 5.4.0 20160609" 
 .section .note.GNU-stack,"",@progbits 
 .file "printFile14.c" 
 .section .rodata 
 .align 8 
 .LC0: 
 .string "napumdiwiahwcbtvbykdoxnkscpbycgmcyhqcrqksxjubfqdedisdwfdgonobrwxmghwgaaepeagnhtggduihgmpvaewrhtrvfmpmektoyfquimnnqujgrgkymfjrsujcrgwd\177" 
 .text 
 .globl main 
 .type main, @function 
 main: 
 .LFB0: 
 .cfi_startproc 
 pushq %rbp 
 .cfi_def_cfa_offset 16 
 .cfi_offset 6, -16 
 movq %rsp, %rbp 
 .cfi_def_cfa_register 6 
 movl $.LC0, %edi 
 movl $0, %eax 
 call printf 
 movl $0, %eax 
 popq %rbp 
 .cfi_def_cfa 7, 8 
 ret 
 .cfi_endproc 
 .LFE0: 
 .size main, .-main 
 .ident "GCC: (Ubuntu 5.4.0-6ubuntu1~16.04.4) 5.4.0 20160609" 
 .section .note.GNU-stack,"",@progbits 
 .file "printFile15.c" 
 .section .rodata 
 .align 8 
 .LC0: 
 .string "yuaawimchvsjojvjkhelmwnkscpbycgmcyhqcrqksxjubfqdedisdwfdgonobrwxmghwgaaepeagnhtggduihgmpvaewrhtrvfmpmektoyfquimnnqujgrgkymfjrsujcrgwd\177" 
 .text 
 .globl main 
 .type main, @function 
 main: 
 .LFB0: 
 .cfi_startproc 
 pushq %rbp 
 .cfi_def_cfa_offset 16 
 .cfi_offset 6, -16 
 movq %rsp, %rbp 
 .cfi_def_cfa_register 6 
 movl $.LC0, %edi 
 movl $0, %eax 
 call printf 
 movl $0, %eax 
 popq %rbp 
 .cfi_def_cfa 7, 8 
 ret 
 .cfi_endproc 
 .LFE0: 
 .size main, .-main 
 .ident "GCC: (Ubuntu 5.4.0-6ubuntu1~16.04.4) 5.4.0 20160609" 
 .section .note.GNU-stack,"",@progbits 
 .file "printFile16.c" 
 .section .rodata 
 .align 8 
 .LC0: 
 .string "qcamhyrexpgbopnqwmmjdvfmgpqucpltrlibmagnrooheeaeqmntlugtkyopobliotkcvspojgxokxucnixyffssgkiwrhtrvfmpmektoyfquimnnqujgrgkymfjrsujcrgwd\177" 
 .text 
 .globl main 
 .type main, @function 
 main: 
 .LFB0: 
 .cfi_startproc 
 pushq %rbp 
 .cfi_def_cfa_offset 16 
 .cfi_offset 6, -16 
 movq %rsp, %rbp 
 .cfi_def_cfa_register 6 
 movl $.LC0, %edi 
 movl $0, %eax 
 call printf 
 movl $0, %eax 
 popq %rbp 
 .cfi_def_cfa 7, 8 
 ret 
 .cfi_endproc 
 .LFE0: 
 .size main, .-main 
 .ident "GCC: (Ubuntu 5.4.0-6ubuntu1~16.04.4) 5.4.0 20160609" 
 .section .note.GNU-stack,"",@progbits 
 .file "printFile17.c" 
 .section .rodata 
 .align 8 
 .LC0: 
 .string "lvicpuglpxaaeaoryjtottnbbitiseggaqlrmrecsgcyhsqicmwxhmaiwvsqdbyfskxffejxkgxokxucnixyffssgkiwrhtrvfmpmektoyfquimnnqujgrgkymfjrsujcrgwd\177" 
 .text 
 .globl main 
 .type main, @function 
 main: 
 .LFB0: 
 .cfi_startproc 
 pushq %rbp 
 .cfi_def_cfa_offset 16 
 .cfi_offset 6, -16 
 movq %rsp, %rbp 
 .cfi_def_cfa_register 6 
 movl $.LC0, %edi 
 movl $0, %eax 
 call printf 
 movl $0, %eax 
 popq %rbp 
 .cfi_def_cfa 7, 8 
 ret 
 .cfi_endproc 
 .LFE0: 
 .size main, .-main 
 .ident "GCC: (Ubuntu 5.4.0-6ubuntu1~16.04.4) 5.4.0 20160609" 
 .section .note.GNU-stack,"",@progbits 
 .file "printFile18.c" 
 .section .rodata 
 .align 8 
 .LC0: 
 .string "ytfqckfbiopixnhsgkufpnqnuvrevfsuyynelthtkxfinmetyyboorflpyplglyfskxffejxkgxokxucnixyffssgkiwrhtrvfmpmektoyfquimnnqujgrgkymfjrsujcrgwd\177" 
 .text 
 .globl main 
 .type main, @function 
 main: 
 .LFB0: 
 .cfi_startproc 
 pushq %rbp 
 .cfi_def_cfa_offset 16 
 .cfi_offset 6, -16 
 movq %rsp, %rbp 
 .cfi_def_cfa_register 6 
 movl $.LC0, %edi 
 movl $0, %eax 
 call printf 
 movl $0, %eax 
 popq %rbp 
 .cfi_def_cfa 7, 8 
 ret 
 .cfi_endproc 
 .LFE0: 
 .size main, .-main 
 .ident "GCC: (Ubuntu 5.4.0-6ubuntu1~16.04.4) 5.4.0 20160609" 
 .section .note.GNU-stack,"",@progbits 
 .file "printFile19.c" 
 .section .rodata 
 .align 8 
 .LC0: 
 .string "imwmxstretyojnsdmtfeiyjtpkmdtamcmmokfkelhedqrvwfselddwauhmyboldbxtlghrrovufqtexmijrmgrjpgituuwvutjbbcvpaswqocqdmavyinlyutspqromnxpocng" 
 .text 
 .globl main 
 .type main, @function 
 main: 
 .LFB0: 
 .cfi_startproc 
 pushq %rbp 
 .cfi_def_cfa_offset 16 
 .cfi_offset 6, -16 
 movq %rsp, %rbp 
 .cfi_def_cfa_register 6 
 movl $.LC0, %edi 
 movl $0, %eax 
 call printf 
 movl $0, %eax 
 popq %rbp 
 .cfi_def_cfa 7, 8 
 ret 
 .cfi_endproc 
 .LFE0: 
 .size main, .-main 
 .ident "GCC: (Ubuntu 5.4.0-6ubuntu1~16.04.4) 5.4.0 20160609" 
 .section .note.GNU-stack,"",@progbits 
 .file "printFile20.c" 
 .section .rodata 
 .align 8 
 .LC0: 
 .string "hevvinaupvwbjiagcuwvolidlarqoytvfrtnhtkarhbepdkuxhqmubpjbiarjvponkexgoxbybfoepxmijrmgrjpgituuwvutjbbcvpaswqocqdmavyinlyutspqromnxpocng" 
 .text 
 .globl main 
 .type main, @function 
 main: 
 .LFB0: 
 .cfi_startproc 
 pushq %rbp 
 .cfi_def_cfa_offset 16 
 .cfi_offset 6, -16 
 movq %rsp, %rbp 
 .cfi_def_cfa_register 6 
 movl $.LC0, %edi 
 movl $0, %eax 
 call printf 
 movl $0, %eax 
 popq %rbp 
 .cfi_def_cfa 7, 8 
 ret 
 .cfi_endproc 
 .LFE0: 
 .size main, .-main 
 .ident "GCC: (Ubuntu 5.4.0-6ubuntu1~16.04.4) 5.4.0 20160609" 
 .section .note.GNU-stack,"",@progbits 
 .file "printFile21.c" 
 .section .rodata 
 .align 8 
 .LC0: 
 .string "caeqwhjgltgddcttsgxsmosnntufxlscnxukferqxawddqwxwwqlmjcadwhdkbhxyelgjdajdwnipkgokwawiejpgituuwvutjbbcvpaswqocqdmavyinlyutspqromnxpocng" 
 .text 
 .globl main 
 .type main, @function 
 main: 
 .LFB0: 
 .cfi_startproc 
 pushq %rbp 
 .cfi_def_cfa_offset 16 
 .cfi_offset 6, -16 
 movq %rsp, %rbp 
 .cfi_def_cfa_register 6 
 movl $.LC0, %edi 
 movl $0, %eax 
 call printf 
 movl $0, %eax 
 popq %rbp 
 .cfi_def_cfa 7, 8 
 ret 
 .cfi_endproc 
 .LFE0: 
 .size main, .-main 
 .ident "GCC: (Ubuntu 5.4.0-6ubuntu1~16.04.4) 5.4.0 20160609" 
 .section .note.GNU-stack,"",@progbits 
 .file "printFile22.c" 
 .section .rodata 
 .align 8 
 .LC0: 
 .string "nejqokaplfbrqetcjqpuidbwnbamlenaiwqahtpubsptyjvidmdlrhjhkjtvpjvyhpbqlsmmlcgkneuqsydkimruvnqlapmjhpasioftsnehtaxnbbxlpsgniyckootvhwqplxmhlsoguovvsvjio\177" 
 .text 
 .globl main 
 .type main, @function 
 main: 
 .LFB0: 
 .cfi_startproc 
 pushq %rbp 
 .cfi_def_cfa_offset 16 
 .cfi_offset 6, -16 
 movq %rsp, %rbp 
 .cfi_def_cfa_register 6 
 movl $.LC0, %edi 
 movl $0, %eax 
 call printf 
 movl $0, %eax 
 popq %rbp 
 .cfi_def_cfa 7, 8 
 ret 
 .cfi_endproc 
 .LFE0: 
 .size main, .-main 
 .ident "GCC: (Ubuntu 5.4.0-6ubuntu1~16.04.4) 5.4.0 20160609" 
 .section .note.GNU-stack,"",@progbits 
 .file "printFile23.c" 
 .section .rodata 
 .align 8 
 .LC0: 
 .string "warykiphhyexprweykwpssfoqaldkcuhemipvbwfcddtucxunvkiqrxhrlkdnimsuxkqlsmmlcgkneuqsydkimruvnqlapmjhpasioftsnehtaxnbbxlpsgniyckootvhwqplxmhlsoguovvsvjio\177" 
 .text 
 .globl main 
 .type main, @function 
 main: 
 .LFB0: 
 .cfi_startproc 
 pushq %rbp 
 .cfi_def_cfa_offset 16 
 .cfi_offset 6, -16 
 movq %rsp, %rbp 
 .cfi_def_cfa_register 6 
 movl $.LC0, %edi 
 movl $0, %eax 
 call printf 
 movl $0, %eax 
 popq %rbp 
 .cfi_def_cfa 7, 8 
 ret 
 .cfi_endproc 
 .LFE0: 
 .size main, .-main 
 .ident "GCC: (Ubuntu 5.4.0-6ubuntu1~16.04.4) 5.4.0 20160609" 
 .section .note.GNU-stack,"",@progbits 
 .file "printFile24.c" 
 .section .rodata 
 .align 8 
 .LC0: 
 .string "bjxdmexhgxevtrfmjfweqjjgrxbnvniywjflpfvxdauarcmehjiatrilpkboxmpxvujnlsmmlcgkneuqsydkimruvnqlapmjhpasioftsnehtaxnbbxlpsgniyckootvhwqplxmhlsoguovvsvjio\177" 
 .text 
 .globl main 
 .type main, @function 
 main: 
 .LFB0: 
 .cfi_startproc 
 pushq %rbp 
 .cfi_def_cfa_offset 16 
 .cfi_offset 6, -16 
 movq %rsp, %rbp 
 .cfi_def_cfa_register 6 
 movl $.LC0, %edi 
 movl $0, %eax 
 call printf 
 movl $0, %eax 
 popq %rbp 
 .cfi_def_cfa 7, 8 
 ret 
 .cfi_endproc 
 .LFE0: 
 .size main, .-main 
 .ident "GCC: (Ubuntu 5.4.0-6ubuntu1~16.04.4) 5.4.0 20160609" 
 .section .note.GNU-stack,"",@progbits 
 .file "printFile25.c" 
 .section .rodata 
 .LC0: 
 .string "25" 
 .text 
 .globl main 
 .type main, @function 
 main: 
 .LFB0: 
 .cfi_startproc 
 pushq %rbp 
 .cfi_def_cfa_offset 16 
 .cfi_offset 6, -16 
 movq %rsp, %rbp 
 .cfi_def_cfa_register 6 
 movl $.LC0, %edi 
 movl $0, %eax 
 call printf 
 movl $0, %eax 
 popq %rbp 
 .cfi_def_cfa 7, 8 
 ret 
 .cfi_endproc 
 .LFE0: 
 .size main, .-main 
 .ident "GCC: (Ubuntu 5.4.0-6ubuntu1~16.04.4) 5.4.0 20160609" 
 .section .note.GNU-stack,"",@progbits 
 .file "printFile26.c" 
 .section .rodata 
 .align 8 
 .LC0: 
 .string "leiigcksgtdqvyifkbporpbhnyfamhhxlrhtwtndosukrfreihsaavknuppjwailtrfqnuuenrrfwjkitfdkimruvnqlapmjhpasioftsnehtaxnbbxlpsgniyckootvhwqplxmhlsoguovvsvjio\177" 
 .text 
 .globl main 
 .type main, @function 
 main: 
 .LFB0: 
 .cfi_startproc 
 pushq %rbp 
 .cfi_def_cfa_offset 16 
 .cfi_offset 6, -16 
 movq %rsp, %rbp 
 .cfi_def_cfa_register 6 
 movl $.LC0, %edi 
 movl $0, %eax 
 call printf 
 movl $0, %eax 
 popq %rbp 
 .cfi_def_cfa 7, 8 
 ret 
 .cfi_endproc 
 .LFE0: 
 .size main, .-main 
 .ident "GCC: (Ubuntu 5.4.0-6ubuntu1~16.04.4) 5.4.0 20160609" 
 .section .note.GNU-stack,"",@progbits 
 .file "printFile27.c" 
 .section .rodata 
 .align 8 
 .LC0: 
 .string "tcujwmahkcrxvlfpybmgoexwdhhnbmwuotfohhxtlprjdyyealkrrioxqvltkkpcfwqogoirgablydpcqbtljilcgywqkourllircqlksmvttaxnbbxlpsgniyckootvhwqplxmhlsoguovvsvjio\177" 
 .text 
 .globl main 
 .type main, @function 
 main: 
 .LFB0: 
 .cfi_startproc 
 pushq %rbp 
 .cfi_def_cfa_offset 16 
 .cfi_offset 6, -16 
 movq %rsp, %rbp 
 .cfi_def_cfa_register 6 
 movl $.LC0, %edi 
 movl $0, %eax 
 call printf 
 movl $0, %eax 
 popq %rbp 
 .cfi_def_cfa 7, 8 
 ret 
 .cfi_endproc 
 .LFE0: 
 .size main, .-main 
 .ident "GCC: (Ubuntu 5.4.0-6ubuntu1~16.04.4) 5.4.0 20160609" 
 .section .note.GNU-stack,"",@progbits 
 .file "printFile28.c" 
 .section .rodata 
 .align 8 
 .LC0: 
 .string "mvjpruyagcifbarpwlbjtunkgbfuwanlvybotdqchahiccxypbkkvywecdyydonbnqpjtjlbjvjnajopkaagbamddoeidtjtlcfhlrjwpukphyhrbibcksgniyckootvhwqplxmhlsoguovvsvjio\177" 
 .text 
 .globl main 
 .type main, @function 
 main: 
 .LFB0: 
 .cfi_startproc 
 pushq %rbp 
 .cfi_def_cfa_offset 16 
 .cfi_offset 6, -16 
 movq %rsp, %rbp 
 .cfi_def_cfa_register 6 
 movl $.LC0, %edi 
 movl $0, %eax 
 call printf 
 movl $0, %eax 
 popq %rbp 
 .cfi_def_cfa 7, 8 
 ret 
 .cfi_endproc 
 .LFE0: 
 .size main, .-main 
 .ident "GCC: (Ubuntu 5.4.0-6ubuntu1~16.04.4) 5.4.0 20160609" 
 .section .note.GNU-stack,"",@progbits 
 .file "printFile29.c" 
 .section .rodata 
 .align 8 
 .LC0: 
 .string "hncoviifethjcubnrskekrgsmhdnmndvbgkyqtgupoetlihebuiomohbykonxsjbbuatqgogwubjdkphfxxupfvqrnepipslksfbbtkbqnkwxaggaibcksgniyckootvhwqplxmhlsoguovvsvjio\177" 
 .text 
 .globl main 
 .type main, @function 
 main: 
 .LFB0: 
 .cfi_startproc 
 pushq %rbp 
 .cfi_def_cfa_offset 16 
 .cfi_offset 6, -16 
 movq %rsp, %rbp 
 .cfi_def_cfa_register 6 
 movl $.LC0, %edi 
 movl $0, %eax 
 call printf 
 movl $0, %eax 
 popq %rbp 
 .cfi_def_cfa 7, 8 
 ret 
 .cfi_endproc 
 .LFE0: 
 .size main, .-main 
 .ident "GCC: (Ubuntu 5.4.0-6ubuntu1~16.04.4) 5.4.0 20160609" 
 .section .note.GNU-stack,"",@progbits 
 .file "printFile30.c" 
 .section .rodata 
 .align 8 
 .LC0: 
 .string "brjykbooswflirgpvjlikdvwatygaakdtvffytvrtdfevlutuicilxfntfvwhiadehidehwakceipbclkgvxebmbikxrtavaiggmndmbisjxuolhwhheltfthdmbdkdlqwqplxmhlsoguovvsvjio\177" 
 .text 
 .globl main 
 .type main, @function 
 main: 
 .LFB0: 
 .cfi_startproc 
 pushq %rbp 
 .cfi_def_cfa_offset 16 
 .cfi_offset 6, -16 
 movq %rsp, %rbp 
 .cfi_def_cfa_register 6 
 movl $.LC0, %edi 
 movl $0, %eax 
 call printf 
 movl $0, %eax 
 popq %rbp 
 .cfi_def_cfa 7, 8 
 ret 
 .cfi_endproc 
 .LFE0: 
 .size main, .-main 
 .ident "GCC: (Ubuntu 5.4.0-6ubuntu1~16.04.4) 5.4.0 20160609" 
 .section .note.GNU-stack,"",@progbits 
 .file "printFile31.c" 
 .section .rodata 
 .align 8 
 .LC0: 
 .string "ahpoixitxfkkoitvmfsraauodaygmrqoyiejioegtqskyngnsyfubcledmlrfeieomowdufylyjlosbjrhhvlsaqgnklttrkiihmdpnroxffqgoknxgcrjuaygnvcfgkqoytgnmhlsoguovvsvjio\177" 
 .text 
 .globl main 
 .type main, @function 
 main: 
 .LFB0: 
 .cfi_startproc 
 pushq %rbp 
 .cfi_def_cfa_offset 16 
 .cfi_offset 6, -16 
 movq %rsp, %rbp 
 .cfi_def_cfa_register 6 
 movl $.LC0, %edi 
 movl $0, %eax 
 call printf 
 movl $0, %eax 
 popq %rbp 
 .cfi_def_cfa 7, 8 
 ret 
 .cfi_endproc 
 .LFE0: 
 .size main, .-main 
 .ident "GCC: (Ubuntu 5.4.0-6ubuntu1~16.04.4) 5.4.0 20160609" 
 .section .note.GNU-stack,"",@progbits 
 .file "printFile32.c" 
 .section .rodata 
 .align 8 
 .LC0: 
 .string "unqcexsqnrarjjnlkvygxgnkwemtkchhpblvyeoovojhawslstrsbhdanptatcjjfuhgawuvngeodyaxttswewwrotsjxeudafjaegxrncgseitknxgcrjuaygnvcfgkqoytgnmhlsoguovvsvjio\177" 
 .text 
 .globl main 
 .type main, @function 
 main: 
 .LFB0: 
 .cfi_startproc 
 pushq %rbp 
 .cfi_def_cfa_offset 16 
 .cfi_offset 6, -16 
 movq %rsp, %rbp 
 .cfi_def_cfa_register 6 
 movl $.LC0, %edi 
 movl $0, %eax 
 call printf 
 movl $0, %eax 
 popq %rbp 
 .cfi_def_cfa 7, 8 
 ret 
 .cfi_endproc 
 .LFE0: 
 .size main, .-main 
 .ident "GCC: (Ubuntu 5.4.0-6ubuntu1~16.04.4) 5.4.0 20160609" 
 .section .note.GNU-stack,"",@progbits 
 .file "printFile33.c" 
 .section .rodata 
 .align 8 
 .LC0: 
 .string "dmuhltbdpvonblqbqcdwjbpyexrihnimbftobwrrtgfwsyxldbjmcbniyisgvduyioomogekpjhkkhvoifdmirxiasqvymvjdmvrsackmluwsrldyrqijqsjljhkvfucrqvnryxgktdgnrjojcyso\177" 
 .text 
 .globl main 
 .type main, @function 
 main: 
 .LFB0: 
 .cfi_startproc 
 pushq %rbp 
 .cfi_def_cfa_offset 16 
 .cfi_offset 6, -16 
 movq %rsp, %rbp 
 .cfi_def_cfa_register 6 
 movl $.LC0, %edi 
 movl $0, %eax 
 call printf 
 movl $0, %eax 
 popq %rbp 
 .cfi_def_cfa 7, 8 
 ret 
 .cfi_endproc 
 .LFE0: 
 .size main, .-main 
 .ident "GCC: (Ubuntu 5.4.0-6ubuntu1~16.04.4) 5.4.0 20160609" 
 .section .note.GNU-stack,"",@progbits 
 .file "printFile34.c" 
 .section .rodata 
 .align 8 
 .LC0: 
 .string "refenrctmelgbbxcaeovjulbfcmhchdvlkaccdvphjxklxmneclnyyrebeodoraccceeogekpjhkkhvoifdmirxiasqvymvjdmvrsackmluwsrldyrqijqsjljhkvfucrqvnryxgktdgnrjojcyso\177" 
 .text 
 .globl main 
 .type main, @function 
 main: 
 .LFB0: 
 .cfi_startproc 
 pushq %rbp 
 .cfi_def_cfa_offset 16 
 .cfi_offset 6, -16 
 movq %rsp, %rbp 
 .cfi_def_cfa_register 6 
 movl $.LC0, %edi 
 movl $0, %eax 
 call printf 
 movl $0, %eax 
 popq %rbp 
 .cfi_def_cfa 7, 8 
 ret 
 .cfi_endproc 
 .LFE0: 
 .size main, .-main 
 .ident "GCC: (Ubuntu 5.4.0-6ubuntu1~16.04.4) 5.4.0 20160609" 
 .section .note.GNU-stack,"",@progbits 
 .file "printFile35.c" 
 .section .rodata 
 .align 8 
 .LC0: 
 .string "avpktaxrpnvtymsaexbkmhyejcilgmdvlkaccdvphjxklxmneclnyyrebeodoraccceeogekpjhkkhvoifdmirxiasqvymvjdmvrsackmluwsrldyrqijqsjljhkvfucrqvnryxgktdgnrjojcyso\177" 
 .text 
 .globl main 
 .type main, @function 
 main: 
 .LFB0: 
 .cfi_startproc 
 pushq %rbp 
 .cfi_def_cfa_offset 16 
 .cfi_offset 6, -16 
 movq %rsp, %rbp 
 .cfi_def_cfa_register 6 
 movl $.LC0, %edi 
 movl $0, %eax 
 call printf 
 movl $0, %eax 
 popq %rbp 
 .cfi_def_cfa 7, 8 
 ret 
 .cfi_endproc 
 .LFE0: 
 .size main, .-main 
 .ident "GCC: (Ubuntu 5.4.0-6ubuntu1~16.04.4) 5.4.0 20160609" 
 .section .note.GNU-stack,"",@progbits 
 .file "printFile36.c" 
 .section .rodata 
 .align 8 
 .LC0: 
 .string "jljvfjtabhxuikoioolcdsbhcfrqmeivrtrafnahwxchjsrahdckwgtbllrxscvkvpmefmlennlyjdyqjecikvjxkeydiuphndlsrwafmlgvrinbmrjypqsjljhkvfucrqvnryxgktdgnrjojcyso\177" 
 .text 
 .globl main 
 .type main, @function 
 main: 
 .LFB0: 
 .cfi_startproc 
 pushq %rbp 
 .cfi_def_cfa_offset 16 
 .cfi_offset 6, -16 
 movq %rsp, %rbp 
 .cfi_def_cfa_register 6 
 movl $.LC0, %edi 
 movl $0, %eax 
 call printf 
 movl $0, %eax 
 popq %rbp 
 .cfi_def_cfa 7, 8 
 ret 
 .cfi_endproc 
 .LFE0: 
 .size main, .-main 
 .ident "GCC: (Ubuntu 5.4.0-6ubuntu1~16.04.4) 5.4.0 20160609" 
 .section .note.GNU-stack,"",@progbits 
 .file "printFile37.c" 
 .section .rodata 
 .align 8 
 .LC0: 
 .string "wcbvhktxrhddcwcefoqldsbhcfrqmeivrtrafnahwxchjsrahdckwgtbllrxscvkvpmefmlennlyjdyqjecikvjxkeydiuphndlsrwafmlgvrinbmrjypqsjljhkvfucrqvnryxgktdgnrjojcyso\177" 
 .text 
 .globl main 
 .type main, @function 
 main: 
 .LFB0: 
 .cfi_startproc 
 pushq %rbp 
 .cfi_def_cfa_offset 16 
 .cfi_offset 6, -16 
 movq %rsp, %rbp 
 .cfi_def_cfa_register 6 
 movl $.LC0, %edi 
 movl $0, %eax 
 call printf 
 movl $0, %eax 
 popq %rbp 
 .cfi_def_cfa 7, 8 
 ret 
 .cfi_endproc 
 .LFE0: 
 .size main, .-main 
 .ident "GCC: (Ubuntu 5.4.0-6ubuntu1~16.04.4) 5.4.0 20160609" 
 .section .note.GNU-stack,"",@progbits 
 .file "printFile38.c" 
 .section .rodata 
 .align 8 
 .LC0: 
 .string "ktdniuwjmthpvfwgywaicdnafrfvkqlunoixlhibcpqaupiwnihplupspwqaqdxeticiqkjucawapfyfngvyenttlmvertimdmuvaeqegnevsfeimahspdmdpkhifrwkhtghxyleosdgnrjojcyso\177" 
 .text 
 .globl main 
 .type main, @function 
 main: 
 .LFB0: 
 .cfi_startproc 
 pushq %rbp 
 .cfi_def_cfa_offset 16 
 .cfi_offset 6, -16 
 movq %rsp, %rbp 
 .cfi_def_cfa_register 6 
 movl $.LC0, %edi 
 movl $0, %eax 
 call printf 
 movl $0, %eax 
 popq %rbp 
 .cfi_def_cfa 7, 8 
 ret 
 .cfi_endproc 
 .LFE0: 
 .size main, .-main 
 .ident "GCC: (Ubuntu 5.4.0-6ubuntu1~16.04.4) 5.4.0 20160609" 
 .section .note.GNU-stack,"",@progbits 
 .file "printFile39.c" 
 .section .rodata 
 .align 8 
 .LC0: 
 .string "hxgpmiyfbetgvfogmidwpwfwweldsgicgqttcubdbxjwfaetjjqyjxygckmwqubylusprwsswfrehvxqiosrmraqempwjqvxnrnfohanorrvqppygiquaqnegdbptwnkhtghxyleosdgnrjojcyso\177" 
 .text 
 .globl main 
 .type main, @function 
 main: 
 .LFB0: 
 .cfi_startproc 
 pushq %rbp 
 .cfi_def_cfa_offset 16 
 .cfi_offset 6, -16 
 movq %rsp, %rbp 
 .cfi_def_cfa_register 6 
 movl $.LC0, %edi 
 movl $0, %eax 
 call printf 
 movl $0, %eax 
 popq %rbp 
 .cfi_def_cfa 7, 8 
 ret 
 .cfi_endproc 
 .LFE0: 
 .size main, .-main 
 .ident "GCC: (Ubuntu 5.4.0-6ubuntu1~16.04.4) 5.4.0 20160609" 
 .section .note.GNU-stack,"",@progbits 
 .file "printFile40.c" 
 .section .rodata 
 .align 8 
 .LC0: 
 .string "qcqhlquaketgvfogmidwpwfwweldsgicgqttcubdbxjwfaetjjqyjxygckmwqubylusprwsswfrehvxqiosrmraqempwjqvxnrnfohanorrvqppygiquaqnegdbptwnkhtghxyleosdgnrjojcyso\177" 
 .text 
 .globl main 
 .type main, @function 
 main: 
 .LFB0: 
 .cfi_startproc 
 pushq %rbp 
 .cfi_def_cfa_offset 16 
 .cfi_offset 6, -16 
 movq %rsp, %rbp 
 .cfi_def_cfa_register 6 
 movl $.LC0, %edi 
 movl $0, %eax 
 call printf 
 movl $0, %eax 
 popq %rbp 
 .cfi_def_cfa 7, 8 
 ret 
 .cfi_endproc 
 .LFE0: 
 .size main, .-main 
 .ident "GCC: (Ubuntu 5.4.0-6ubuntu1~16.04.4) 5.4.0 20160609" 
 .section .note.GNU-stack,"",@progbits 
 .file "printFile41.c" 
 .section .rodata 
 .align 8 
 .LC0: 
 .string "xbencmvshxmuesahkvfyfxdxgoobqcqofwfikbbtcppgirotovuvtxuaolefnuvtlusprwsswfrehvxqiosrmraqempwjqvxnrnfohanorrvqppygiquaqnegdbptwnkhtghxyleosdgnrjojcyso\177" 
 .text 
 .globl main 
 .type main, @function 
 main: 
 .LFB0: 
 .cfi_startproc 
 pushq %rbp 
 .cfi_def_cfa_offset 16 
 .cfi_offset 6, -16 
 movq %rsp, %rbp 
 .cfi_def_cfa_register 6 
 movl $.LC0, %edi 
 movl $0, %eax 
 call printf 
 movl $0, %eax 
 popq %rbp 
 .cfi_def_cfa 7, 8 
 ret 
 .cfi_endproc 
 .LFE0: 
 .size main, .-main 
 .ident "GCC: (Ubuntu 5.4.0-6ubuntu1~16.04.4) 5.4.0 20160609" 
 .section .note.GNU-stack,"",@progbits 
 .file "printFile42.c" 
 .section .rodata 
 .align 8 
 .LC0: 
 .string "bceffyhvqngiecyayvwwqwlcbsqxpmsqqyvvxftqvbcafbdfwaenwssbllbbxtuovsmvywsswfrehvxqiosrmraqempwjqvxnrnfohanorrvqppygiquaqnegdbptwnkhtghxyleosdgnrjojcyso\177" 
 .text 
 .globl main 
 .type main, @function 
 main: 
 .LFB0: 
 .cfi_startproc 
 pushq %rbp 
 .cfi_def_cfa_offset 16 
 .cfi_offset 6, -16 
 movq %rsp, %rbp 
 .cfi_def_cfa_register 6 
 movl $.LC0, %edi 
 movl $0, %eax 
 call printf 
 movl $0, %eax 
 popq %rbp 
 .cfi_def_cfa 7, 8 
 ret 
 .cfi_endproc 
 .LFE0: 
 .size main, .-main 
 .ident "GCC: (Ubuntu 5.4.0-6ubuntu1~16.04.4) 5.4.0 20160609" 
 .section .note.GNU-stack,"",@progbits 
 .file "printFile43.c" 
 .section .rodata 
 .align 8 
 .LC0: 
 .string "nukpwrsawsaeiawbdimemmbhbwcqsbaixmaxetxembiwdfyinlocbpjeomukpusqhvooposerdbwicfxqwbromvebtqtojkyfbpwridmnhlvltvcqyvfmslpmcjdovevwtvrxyleosdgnrjojcyso\177" 
 .text 
 .globl main 
 .type main, @function 
 main: 
 .LFB0: 
 .cfi_startproc 
 pushq %rbp 
 .cfi_def_cfa_offset 16 
 .cfi_offset 6, -16 
 movq %rsp, %rbp 
 .cfi_def_cfa_register 6 
 movl $.LC0, %edi 
 movl $0, %eax 
 call printf 
 movl $0, %eax 
 popq %rbp 
 .cfi_def_cfa 7, 8 
 ret 
 .cfi_endproc 
 .LFE0: 
 .size main, .-main 
 .ident "GCC: (Ubuntu 5.4.0-6ubuntu1~16.04.4) 5.4.0 20160609" 
 .section .note.GNU-stack,"",@progbits 
 .file "printFile44.c" 
 .section .rodata 
 .align 8 
 .LC0: 
 .string "ygrirpwlmyclviaqvqfyaknwpjvlfbaixmaxetxembiwdfyinlocbpjeomukpusqhvooposerdbwicfxqwbromvebtqtojkyfbpwridmnhlvltvcqyvfmslpmcjdovevwtvrxyleosdgnrjojcyso\177" 
 .text 
 .globl main 
 .type main, @function 
 main: 
 .LFB0: 
 .cfi_startproc 
 pushq %rbp 
 .cfi_def_cfa_offset 16 
 .cfi_offset 6, -16 
 movq %rsp, %rbp 
 .cfi_def_cfa_register 6 
 movl $.LC0, %edi 
 movl $0, %eax 
 call printf 
 movl $0, %eax 
 popq %rbp 
 .cfi_def_cfa 7, 8 
 ret 
 .cfi_endproc 
 .LFE0: 
 .size main, .-main 
 .ident "GCC: (Ubuntu 5.4.0-6ubuntu1~16.04.4) 5.4.0 20160609" 
 .section .note.GNU-stack,"",@progbits 
 .file "printFile45.c" 
 .section .rodata 
 .align 8 
 .LC0: 
 .string "qhvkrobocpqfdopeflwmmwwavokubrkryjetaficmbiwdfyinlocbpjeomukpusqhvooposerdbwicfxqwbromvebtqtojkyfbpwridmnhlvltvcqyvfmslpmcjdovevwtvrxyleosdgnrjojcyso\177" 
 .text 
 .globl main 
 .type main, @function 
 main: 
 .LFB0: 
 .cfi_startproc 
 pushq %rbp 
 .cfi_def_cfa_offset 16 
 .cfi_offset 6, -16 
 movq %rsp, %rbp 
 .cfi_def_cfa_register 6 
 movl $.LC0, %edi 
 movl $0, %eax 
 call printf 
 movl $0, %eax 
 popq %rbp 
 .cfi_def_cfa 7, 8 
 ret 
 .cfi_endproc 
 .LFE0: 
 .size main, .-main 
 .ident "GCC: (Ubuntu 5.4.0-6ubuntu1~16.04.4) 5.4.0 20160609" 
 .section .note.GNU-stack,"",@progbits 
 .file "printFile46.c" 
 .section .rodata 
 .align 8 
 .LC0: 
 .string "yjynyfunchabhbxvnuwhhqjqvdqdnvbnfcdhhbuliumrxmonhnxphhidmciaxjpdlvkuwhserdbwicfxqwbromvebtqtojkyfbpwridmnhlvltvcqyvfmslpmcjdovevwtvrxyleosdgnrjojcyso\177" 
 .text 
 .globl main 
 .type main, @function 
 main: 
 .LFB0: 
 .cfi_startproc 
 pushq %rbp 
 .cfi_def_cfa_offset 16 
 .cfi_offset 6, -16 
 movq %rsp, %rbp 
 .cfi_def_cfa_register 6 
 movl $.LC0, %edi 
 movl $0, %eax 
 call printf 
 movl $0, %eax 
 popq %rbp 
 .cfi_def_cfa 7, 8 
 ret 
 .cfi_endproc 
 .LFE0: 
 .size main, .-main 
 .ident "GCC: (Ubuntu 5.4.0-6ubuntu1~16.04.4) 5.4.0 20160609" 
 .section .note.GNU-stack,"",@progbits 
 .file "printFile47.c" 
 .section .rodata 
 .align 8 
 .LC0: 
 .string "hfvadiotserklbuqnwanulgbxcnuyxegdagikwefcvppwnhmkhbishlsjbokysqcuxnfwrnyqfppsydegwbromvebtqtojkyfbpwridmnhlvltvcqyvfmslpmcjdovevwtvrxyleosdgnrjojcyso\177" 
 .text 
 .globl main 
 .type main, @function 
 main: 
 .LFB0: 
 .cfi_startproc 
 pushq %rbp 
 .cfi_def_cfa_offset 16 
 .cfi_offset 6, -16 
 movq %rsp, %rbp 
 .cfi_def_cfa_register 6 
 movl $.LC0, %edi 
 movl $0, %eax 
 call printf 
 movl $0, %eax 
 popq %rbp 
 .cfi_def_cfa 7, 8 
 ret 
 .cfi_endproc 
 .LFE0: 
 .size main, .-main 
 .ident "GCC: (Ubuntu 5.4.0-6ubuntu1~16.04.4) 5.4.0 20160609" 
 .section .note.GNU-stack,"",@progbits 
 .file "printFile48.c" 
 .section .rodata 
 .align 8 
 .LC0: 
 .string "obpawbbnlbicfdcskalxbcgsryrwdxdrcstbtvofywkecmaoolpqpvjjuchbckuggphanvimusqyhqqwegnveygbbpcgcamipulfsvrqoklvltvcqyvfmslpmcjdovevwtvrxyleosdgnrjojcyso\177" 
 .text 
 .globl main 
 .type main, @function 
 main: 
 .LFB0: 
 .cfi_startproc 
 pushq %rbp 
 .cfi_def_cfa_offset 16 
 .cfi_offset 6, -16 
 movq %rsp, %rbp 
 .cfi_def_cfa_register 6 
 movl $.LC0, %edi 
 movl $0, %eax 
 call printf 
 movl $0, %eax 
 popq %rbp 
 .cfi_def_cfa 7, 8 
 ret 
 .cfi_endproc 
 .LFE0: 
 .size main, .-main 
 .ident "GCC: (Ubuntu 5.4.0-6ubuntu1~16.04.4) 5.4.0 20160609" 
 .section .note.GNU-stack,"",@progbits 
 .file "printFile49.c" 
 .section .rodata 
 .align 8 
 .LC0: 
 .string "xeiuiqkhwmpynfdvjdjuugiabetrufmsjwqtoddnpsmgaqcmvnhrtptvtopovcjfaabqgfevaredkhpgwwarounildyhcamipulfsvrqoklvltvcqyvfmslpmcjdovevwtvrxyleosdgnrjojcyso\177" 
 .text 
 .globl main 
 .type main, @function 
 main: 
 .LFB0: 
 .cfi_startproc 
 pushq %rbp 
 .cfi_def_cfa_offset 16 
 .cfi_offset 6, -16 
 movq %rsp, %rbp 
 .cfi_def_cfa_register 6 
 movl $.LC0, %edi 
 movl $0, %eax 
 call printf 
 movl $0, %eax 
 popq %rbp 
 .cfi_def_cfa 7, 8 
 ret 
 .cfi_endproc 
 .LFE0: 
 .size main, .-main 
 .ident "GCC: (Ubuntu 5.4.0-6ubuntu1~16.04.4) 5.4.0 20160609" 
 .section .note.GNU-stack,"",@progbits 
 .file "printFile50.c" 
 .section .rodata 
 .align 8 
 .LC0: 
 .string "ioilryrydpawwfhguqdrquinkqyoriwcwhnrghqlasjwxsfujiodewqopsfhbekblautklgmhrlhkqdwywarounildyhcamipulfsvrqoklvltvcqyvfmslpmcjdovevwtvrxyleosdgnrjojcyso\177" 
 .text 
 .globl main 
 .type main, @function 
 main: 
 .LFB0: 
 .cfi_startproc 
 pushq %rbp 
 .cfi_def_cfa_offset 16 
 .cfi_offset 6, -16 
 movq %rsp, %rbp 
 .cfi_def_cfa_register 6 
 movl $.LC0, %edi 
 movl $0, %eax 
 call printf 
 movl $0, %eax 
 popq %rbp 
 .cfi_def_cfa 7, 8 
 ret 
 .cfi_endproc 
 .LFE0: 
 .size main, .-main 
 .ident "GCC: (Ubuntu 5.4.0-6ubuntu1~16.04.4) 5.4.0 20160609" 
 .section .note.GNU-stack,"",@progbits 
 .file "printFile51.c" 
 .section .rodata 
 .align 8 
 .LC0: 
 .string "afpswfleppjaswcnrmyxbipmqcdvbfndkfwjlkodcafuwhiowkmxselljohktvqhdnqqahtdhyafhjtgtjeoppbbhimdgdkksebulvatubbemukggpuyhxaqhouprhamnekcakvwnyeavojojcyso\177" 
 .text 
 .globl main 
 .type main, @function 
 main: 
 .LFB0: 
 .cfi_startproc 
 pushq %rbp 
 .cfi_def_cfa_offset 16 
 .cfi_offset 6, -16 
 movq %rsp, %rbp 
 .cfi_def_cfa_register 6 
 movl $.LC0, %edi 
 movl $0, %eax 
 call printf 
 movl $0, %eax 
 popq %rbp 
 .cfi_def_cfa 7, 8 
 ret 
 .cfi_endproc 
 .LFE0: 
 .size main, .-main 
 .ident "GCC: (Ubuntu 5.4.0-6ubuntu1~16.04.4) 5.4.0 20160609" 
 .section .note.GNU-stack,"",@progbits 
 .file "printFile52.c" 
 .section .rodata 
 .align 8 
 .LC0: 
 .string "dgeeqcehltecnoedeingkaekodooadxfmejdinmujtyxiddmoqvysajhexyeewjqduvliiiuchumnxccqjeoppbbhimdgdkksebulvatubbemukggpuyhxaqhouprhamnekcakvwnyeavojojcyso\177" 
 .text 
 .globl main 
 .type main, @function 
 main: 
 .LFB0: 
 .cfi_startproc 
 pushq %rbp 
 .cfi_def_cfa_offset 16 
 .cfi_offset 6, -16 
 movq %rsp, %rbp 
 .cfi_def_cfa_register 6 
 movl $.LC0, %edi 
 movl $0, %eax 
 call printf 
 movl $0, %eax 
 popq %rbp 
 .cfi_def_cfa 7, 8 
 ret 
 .cfi_endproc 
 .LFE0: 
 .size main, .-main 
 .ident "GCC: (Ubuntu 5.4.0-6ubuntu1~16.04.4) 5.4.0 20160609" 
 .section .note.GNU-stack,"",@progbits 
 .file "printFile53.c" 
 .section .rodata 
 .align 8 
 .LC0: 
 .string "djanrensktrvmuqigctpwxyrnmppogpurpilwxehuvehswscyotvospciftynjticetydyixwohsmaunqomgjcirkfraqlisqdtvedvdrfveissyjhftjqntvhwprhamnekcakvwnyeavojojcyso\177" 
 .text 
 .globl main 
 .type main, @function 
 main: 
 .LFB0: 
 .cfi_startproc 
 pushq %rbp 
 .cfi_def_cfa_offset 16 
 .cfi_offset 6, -16 
 movq %rsp, %rbp 
 .cfi_def_cfa_register 6 
 movl $.LC0, %edi 
 movl $0, %eax 
 call printf 
 movl $0, %eax 
 popq %rbp 
 .cfi_def_cfa 7, 8 
 ret 
 .cfi_endproc 
 .LFE0: 
 .size main, .-main 
 .ident "GCC: (Ubuntu 5.4.0-6ubuntu1~16.04.4) 5.4.0 20160609" 
 .section .note.GNU-stack,"",@progbits 
 .file "printFile54.c" 
 .section .rodata 
 .align 8 
 .LC0: 
 .string "tfimkekohiuanqgvmbvvidrutgqrnnjjttxgxixgqsihlqdxsbudfmxbupvjdfuyytiwcgfvyndkhilakidpweqstmeytybsujsarxvqobdvjqxtydlwjdpdrvfowihstcsldqerrhpavojojcyso\177" 
 .text 
 .globl main 
 .type main, @function 
 main: 
 .LFB0: 
 .cfi_startproc 
 pushq %rbp 
 .cfi_def_cfa_offset 16 
 .cfi_offset 6, -16 
 movq %rsp, %rbp 
 .cfi_def_cfa_register 6 
 movl $.LC0, %edi 
 movl $0, %eax 
 call printf 
 movl $0, %eax 
 popq %rbp 
 .cfi_def_cfa 7, 8 
 ret 
 .cfi_endproc 
 .LFE0: 
 .size main, .-main 
 .ident "GCC: (Ubuntu 5.4.0-6ubuntu1~16.04.4) 5.4.0 20160609" 
 .section .note.GNU-stack,"",@progbits 
 .file "printFile55.c" 
 .section .rodata 
 .align 8 
 .LC0: 
 .string "ypxaujwfookjkpxkahdtkvhnmlhgnnjjttxgxixgqsihlqdxsbudfmxbupvjdfuyytiwcgfvyndkhilakidpweqstmeytybsujsarxvqobdvjqxtydlwjdpdrvfowihstcsldqerrhpavojojcyso\177" 
 .text 
 .globl main 
 .type main, @function 
 main: 
 .LFB0: 
 .cfi_startproc 
 pushq %rbp 
 .cfi_def_cfa_offset 16 
 .cfi_offset 6, -16 
 movq %rsp, %rbp 
 .cfi_def_cfa_register 6 
 movl $.LC0, %edi 
 movl $0, %eax 
 call printf 
 movl $0, %eax 
 popq %rbp 
 .cfi_def_cfa 7, 8 
 ret 
 .cfi_endproc 
 .LFE0: 
 .size main, .-main 
 .ident "GCC: (Ubuntu 5.4.0-6ubuntu1~16.04.4) 5.4.0 20160609" 
 .section .note.GNU-stack,"",@progbits 
 .file "printFile56.c" 
 .section .rodata 
 .align 8 
 .LC0: 
 .string "yjuqjulvuqmlcvytvjugmqqkygympfgqqdhbbswxmljokikgthmiyfsanrmdyvtqbdtewscjeoaoykxtsmctuvvipkorgkikoeonwrydgysflsbgfecccaltlcltmtebxtqwnpbvqvdfoflvjcyso\177" 
 .text 
 .globl main 
 .type main, @function 
 main: 
 .LFB0: 
 .cfi_startproc 
 pushq %rbp 
 .cfi_def_cfa_offset 16 
 .cfi_offset 6, -16 
 movq %rsp, %rbp 
 .cfi_def_cfa_register 6 
 movl $.LC0, %edi 
 movl $0, %eax 
 call printf 
 movl $0, %eax 
 popq %rbp 
 .cfi_def_cfa 7, 8 
 ret 
 .cfi_endproc 
 .LFE0: 
 .size main, .-main 
 .ident "GCC: (Ubuntu 5.4.0-6ubuntu1~16.04.4) 5.4.0 20160609" 
 .section .note.GNU-stack,"",@progbits 
 .file "printFile57.c" 
 .section .rodata 
 .align 8 
 .LC0: 
 .string "qynqmheovybpffqbvpomqmdoqifxwclpdbipinegohwtmpvjhmvbabpsmvslavtqbdtewscjeoaoykxtsmctuvvipkorgkikoeonwrydgysflsbgfecccaltlcltmtebxtqwnpbvqvdfoflvjcyso\177" 
 .text 
 .globl main 
 .type main, @function 
 main: 
 .LFB0: 
 .cfi_startproc 
 pushq %rbp 
 .cfi_def_cfa_offset 16 
 .cfi_offset 6, -16 
 movq %rsp, %rbp 
 .cfi_def_cfa_register 6 
 movl $.LC0, %edi 
 movl $0, %eax 
 call printf 
 movl $0, %eax 
 popq %rbp 
 .cfi_def_cfa 7, 8 
 ret 
 .cfi_endproc 
 .LFE0: 
 .size main, .-main 
 .ident "GCC: (Ubuntu 5.4.0-6ubuntu1~16.04.4) 5.4.0 20160609" 
 .section .note.GNU-stack,"",@progbits 
 .file "printFile58.c" 
 .section .rodata 
 .align 8 
 .LC0: 
 .string "ddflspbywpgvktngfusdvueonskigclpdbipinegohwtmpvjhmvbabpsmvslavtqbdtewscjeoaoykxtsmctuvvipkorgkikoeonwrydgysflsbgfecccaltlcltmtebxtqwnpbvqvdfoflvjcyso\177" 
 .text 
 .globl main 
 .type main, @function 
 main: 
 .LFB0: 
 .cfi_startproc 
 pushq %rbp 
 .cfi_def_cfa_offset 16 
 .cfi_offset 6, -16 
 movq %rsp, %rbp 
 .cfi_def_cfa_register 6 
 movl $.LC0, %edi 
 movl $0, %eax 
 call printf 
 movl $0, %eax 
 popq %rbp 
 .cfi_def_cfa 7, 8 
 ret 
 .cfi_endproc 
 .LFE0: 
 .size main, .-main 
 .ident "GCC: (Ubuntu 5.4.0-6ubuntu1~16.04.4) 5.4.0 20160609" 
 .section .note.GNU-stack,"",@progbits 
 .file "printFile59.c" 
 .section .rodata 
 .align 8 
 .LC0: 
 .string "mjprviiwjhnpdajqioldtkyyyotjxbvkklfivpgfwvwaxjsgagjuqktpapbaqykcmrmihspeqngowyuyghtwrpprgsrwsfbfwoqhjgldvurutpbgfecccaltlcltmtebxtqwnpbvqvdfoflvjcyso\177" 
 .text 
 .globl main 
 .type main, @function 
 main: 
 .LFB0: 
 .cfi_startproc 
 pushq %rbp 
 .cfi_def_cfa_offset 16 
 .cfi_offset 6, -16 
 movq %rsp, %rbp 
 .cfi_def_cfa_register 6 
 movl $.LC0, %edi 
 movl $0, %eax 
 call printf 
 movl $0, %eax 
 popq %rbp 
 .cfi_def_cfa 7, 8 
 ret 
 .cfi_endproc 
 .LFE0: 
 .size main, .-main 
 .ident "GCC: (Ubuntu 5.4.0-6ubuntu1~16.04.4) 5.4.0 20160609" 
 .section .note.GNU-stack,"",@progbits 
 .file "printFile60.c" 
 .section .rodata 
 .align 8 
 .LC0: 
 .string "cwocofrjlkdkfkolkfcrokfrjamewcbybqbrxublihvnrmberfvhqcbcengbrkdsdglbeommvkcqaeurjrycvdeaqnelxhebnperfsgdfjtfprxbjyghckjvanhxunblgffnxmqexnjpfhqqjcyso\177" 
 .text 
 .globl main 
 .type main, @function 
 main: 
 .LFB0: 
 .cfi_startproc 
 pushq %rbp 
 .cfi_def_cfa_offset 16 
 .cfi_offset 6, -16 
 movq %rsp, %rbp 
 .cfi_def_cfa_register 6 
 movl $.LC0, %edi 
 movl $0, %eax 
 call printf 
 movl $0, %eax 
 popq %rbp 
 .cfi_def_cfa 7, 8 
 ret 
 .cfi_endproc 
 .LFE0: 
 .size main, .-main 
 .ident "GCC: (Ubuntu 5.4.0-6ubuntu1~16.04.4) 5.4.0 20160609" 
 .section .note.GNU-stack,"",@progbits 
 .file "printFile61.c" 
 .section .rodata 
 .align 8 
 .LC0: 
 .string "xlkjjkxsluhminsobsdtybjjsosjhcjhqtrcgpvrmfhvsckvupruqcglsbubegkwccyltwdhcmfwopumfnjxrpjmqgpwpbvrfvfasjjxxoungqcnglnadymvhdtwerrlnwljiwhhnewtubjdmwdso\177" 
 .text 
 .globl main 
 .type main, @function 
 main: 
 .LFB0: 
 .cfi_startproc 
 pushq %rbp 
 .cfi_def_cfa_offset 16 
 .cfi_offset 6, -16 
 movq %rsp, %rbp 
 .cfi_def_cfa_register 6 
 movl $.LC0, %edi 
 movl $0, %eax 
 call printf 
 movl $0, %eax 
 popq %rbp 
 .cfi_def_cfa 7, 8 
 ret 
 .cfi_endproc 
 .LFE0: 
 .size main, .-main 
 .ident "GCC: (Ubuntu 5.4.0-6ubuntu1~16.04.4) 5.4.0 20160609" 
 .section .note.GNU-stack,"",@progbits 
 .file "printFile62.c" 
 .section .rodata 
 .align 8 
 .LC0: 
 .string "vqnevjbccunrscddykkprjjokvsysxqpqhvmsyquufpphssiggxxrkodghcygvqydomxodvlklbrgvdoebowlectlgttpbvrfvfasjjxxoungqcnglnadymvhdtwerrlnwljiwhhnewtubjdmwdso\177" 
 .text 
 .globl main 
 .type main, @function 
 main: 
 .LFB0: 
 .cfi_startproc 
 pushq %rbp 
 .cfi_def_cfa_offset 16 
 .cfi_offset 6, -16 
 movq %rsp, %rbp 
 .cfi_def_cfa_register 6 
 movl $.LC0, %edi 
 movl $0, %eax 
 call printf 
 movl $0, %eax 
 popq %rbp 
 .cfi_def_cfa 7, 8 
 ret 
 .cfi_endproc 
 .LFE0: 
 .size main, .-main 
 .ident "GCC: (Ubuntu 5.4.0-6ubuntu1~16.04.4) 5.4.0 20160609" 
 .section .note.GNU-stack,"",@progbits 
 .file "printFile63.c" 
 .section .rodata 
 .align 8 
 .LC0: 
 .string "mthcigsnceyphsvfxlkaajnelisysxqpqhvmsyquufpphssiggxxrkodghcygvqydomxodvlklbrgvdoebowlectlgttpbvrfvfasjjxxoungqcnglnadymvhdtwerrlnwljiwhhnewtubjdmwdso\177" 
 .text 
 .globl main 
 .type main, @function 
 main: 
 .LFB0: 
 .cfi_startproc 
 pushq %rbp 
 .cfi_def_cfa_offset 16 
 .cfi_offset 6, -16 
 movq %rsp, %rbp 
 .cfi_def_cfa_register 6 
 movl $.LC0, %edi 
 movl $0, %eax 
 call printf 
 movl $0, %eax 
 popq %rbp 
 .cfi_def_cfa 7, 8 
 ret 
 .cfi_endproc 
 .LFE0: 
 .size main, .-main 
 .ident "GCC: (Ubuntu 5.4.0-6ubuntu1~16.04.4) 5.4.0 20160609" 
 .section .note.GNU-stack,"",@progbits 
 .file "printFile64.c" 
 .section .rodata 
 .align 8 
 .LC0: 
 .string "eoyskgwsopjstikbdjjcwveyfteseymkplebubtlrfhnprrtdbxawcacxgwdflnuxrvuvsipapdqkumnxkouoqymwvpckgvrfvfasjjxxoungqcnglnadymvhdtwerrlnwljiwhhnewtubjdmwdso\177" 
 .text 
 .globl main 
 .type main, @function 
 main: 
 .LFB0: 
 .cfi_startproc 
 pushq %rbp 
 .cfi_def_cfa_offset 16 
 .cfi_offset 6, -16 
 movq %rsp, %rbp 
 .cfi_def_cfa_register 6 
 movl $.LC0, %edi 
 movl $0, %eax 
 call printf 
 movl $0, %eax 
 popq %rbp 
 .cfi_def_cfa 7, 8 
 ret 
 .cfi_endproc 
 .LFE0: 
 .size main, .-main 
 .ident "GCC: (Ubuntu 5.4.0-6ubuntu1~16.04.4) 5.4.0 20160609" 
 .section .note.GNU-stack,"",@progbits 
 .file "printFile65.c" 
 .section .rodata 
 .align 8 
 .LC0: 
 .string "kaxfvsplsgrlsoxiniyiypkomieqsmsdnqkjlbxgjpsceqkrcbxawcacxgwdflnuxrvuvsipapdqkumnxkouoqymwvpckgvrfvfasjjxxoungqcnglnadymvhdtwerrlnwljiwhhnewtubjdmwdso\177" 
 .text 
 .globl main 
 .type main, @function 
 main: 
 .LFB0: 
 .cfi_startproc 
 pushq %rbp 
 .cfi_def_cfa_offset 16 
 .cfi_offset 6, -16 
 movq %rsp, %rbp 
 .cfi_def_cfa_register 6 
 movl $.LC0, %edi 
 movl $0, %eax 
 call printf 
 movl $0, %eax 
 popq %rbp 
 .cfi_def_cfa 7, 8 
 ret 
 .cfi_endproc 
 .LFE0: 
 .size main, .-main 
 .ident "GCC: (Ubuntu 5.4.0-6ubuntu1~16.04.4) 5.4.0 20160609" 
 .section .note.GNU-stack,"",@progbits 
 .file "printFile66.c" 
 .section .rodata 
 .align 8 
 .LC0: 
 .string "dbcnppxwgrjyuyrijfjjmsyhwfxjacvfgyuxqswwkhyigsqrycbnwcutkudkacpgdmetfcssltdtnvooxreuubqfxvrxxjebvlwdpqvdkyyawnouglnadymvhdtwerrlnwljiwhhnewtubjdmwdso\177" 
 .text 
 .globl main 
 .type main, @function 
 main: 
 .LFB0: 
 .cfi_startproc 
 pushq %rbp 
 .cfi_def_cfa_offset 16 
 .cfi_offset 6, -16 
 movq %rsp, %rbp 
 .cfi_def_cfa_register 6 
 movl $.LC0, %edi 
 movl $0, %eax 
 call printf 
 movl $0, %eax 
 popq %rbp 
 .cfi_def_cfa 7, 8 
 ret 
 .cfi_endproc 
 .LFE0: 
 .size main, .-main 
 .ident "GCC: (Ubuntu 5.4.0-6ubuntu1~16.04.4) 5.4.0 20160609" 
 .section .note.GNU-stack,"",@progbits 
 .file "printFile67.c" 
 .section .rodata 
 .align 8 
 .LC0: 
 .string "srdvikuhcsflajjngmdylikmhkkvchewcjtmtotxhclhluutjatuieisquoscuqeemrablxipjsbepxpsrldxtvqomkshdxnprnsfndvwvydowthohmobjgrvsmgxmtpekijiwhhnewtubjdmwdso\177" 
 .text 
 .globl main 
 .type main, @function 
 main: 
 .LFB0: 
 .cfi_startproc 
 pushq %rbp 
 .cfi_def_cfa_offset 16 
 .cfi_offset 6, -16 
 movq %rsp, %rbp 
 .cfi_def_cfa_register 6 
 movl $.LC0, %edi 
 movl $0, %eax 
 call printf 
 movl $0, %eax 
 popq %rbp 
 .cfi_def_cfa 7, 8 
 ret 
 .cfi_endproc 
 .LFE0: 
 .size main, .-main 
 .ident "GCC: (Ubuntu 5.4.0-6ubuntu1~16.04.4) 5.4.0 20160609" 
 .section .note.GNU-stack,"",@progbits 
 .file "printFile68.c" 
 .section .rodata 
 .align 8 
 .LC0: 
 .string "ankxkjdbhykxajjngmdylikmhkkvchewcjtmtotxhclhluutjatuieisquoscuqeemrablxipjsbepxpsrldxtvqomkshdxnprnsfndvwvydowthohmobjgrvsmgxmtpekijiwhhnewtubjdmwdso\177" 
 .text 
 .globl main 
 .type main, @function 
 main: 
 .LFB0: 
 .cfi_startproc 
 pushq %rbp 
 .cfi_def_cfa_offset 16 
 .cfi_offset 6, -16 
 movq %rsp, %rbp 
 .cfi_def_cfa_register 6 
 movl $.LC0, %edi 
 movl $0, %eax 
 call printf 
 movl $0, %eax 
 popq %rbp 
 .cfi_def_cfa 7, 8 
 ret 
 .cfi_endproc 
 .LFE0: 
 .size main, .-main 
 .ident "GCC: (Ubuntu 5.4.0-6ubuntu1~16.04.4) 5.4.0 20160609" 
 .section .note.GNU-stack,"",@progbits 
 .file "printFile69.c" 
 .section .rodata 
 .align 8 
 .LC0: 
 .string "wpjgxddqqlqdhgktqwuehuqsxtaxebecsqkqtphkbaojibdbxxhhsyatsdtagaeyqoplfyviymtjnxknxrutsxpmdjojjskbhcmobkxcxtllrxaspwojwexapmlyhvcoxqgjiwhhnewtubjdmwdso\177" 
 .text 
 .globl main 
 .type main, @function 
 main: 
 .LFB0: 
 .cfi_startproc 
 pushq %rbp 
 .cfi_def_cfa_offset 16 
 .cfi_offset 6, -16 
 movq %rsp, %rbp 
 .cfi_def_cfa_register 6 
 movl $.LC0, %edi 
 movl $0, %eax 
 call printf 
 movl $0, %eax 
 popq %rbp 
 .cfi_def_cfa 7, 8 
 ret 
 .cfi_endproc 
 .LFE0: 
 .size main, .-main 
 .ident "GCC: (Ubuntu 5.4.0-6ubuntu1~16.04.4) 5.4.0 20160609" 
 .section .note.GNU-stack,"",@progbits 
 .file "printFile70.c" 
 .section .rodata 
 .align 8 
 .LC0: 
 .string "cgfaasnuqppjpesmkspafbbmxgdxwlcyrhbubrpthfdylxmxqcaxfdmdjqehcgiwpkrscjplqslcraakecjjfvppovytehqtrkpvtfkkaxorxqfcsonxkdpcbovfwmcoxqgjiwhhnewtubjdmwdso\177" 
 .text 
 .globl main 
 .type main, @function 
 main: 
 .LFB0: 
 .cfi_startproc 
 pushq %rbp 
 .cfi_def_cfa_offset 16 
 .cfi_offset 6, -16 
 movq %rsp, %rbp 
 .cfi_def_cfa_register 6 
 movl $.LC0, %edi 
 movl $0, %eax 
 call printf 
 movl $0, %eax 
 popq %rbp 
 .cfi_def_cfa 7, 8 
 ret 
 .cfi_endproc 
 .LFE0: 
 .size main, .-main 
 .ident "GCC: (Ubuntu 5.4.0-6ubuntu1~16.04.4) 5.4.0 20160609" 
 .section .note.GNU-stack,"",@progbits 
 .file "printFile71.c" 
 .section .rodata 
 .align 8 
 .LC0: 
 .string "qwrpswadwxtrxkwcfnpdavvcwgdxwlcyrhbubrpthfdylxmxqcaxfdmdjqehcgiwpkrscjplqslcraakecjjfvppovytehqtrkpvtfkkaxorxqfcsonxkdpcbovfwmcoxqgjiwhhnewtubjdmwdso\177" 
 .text 
 .globl main 
 .type main, @function 
 main: 
 .LFB0: 
 .cfi_startproc 
 pushq %rbp 
 .cfi_def_cfa_offset 16 
 .cfi_offset 6, -16 
 movq %rsp, %rbp 
 .cfi_def_cfa_register 6 
 movl $.LC0, %edi 
 movl $0, %eax 
 call printf 
 movl $0, %eax 
 popq %rbp 
 .cfi_def_cfa 7, 8 
 ret 
 .cfi_endproc 
 .LFE0: 
 .size main, .-main 
 .ident "GCC: (Ubuntu 5.4.0-6ubuntu1~16.04.4) 5.4.0 20160609" 
 .section .note.GNU-stack,"",@progbits 
 .file "printFile72.c" 
 .section .rodata 
 .align 8 
 .LC0: 
 .string "xdhmfblwqetrxkwcfnpdavvcwgdxwlcyrhbubrpthfdylxmxqcaxfdmdjqehcgiwpkrscjplqslcraakecjjfvppovytehqtrkpvtfkkaxorxqfcsonxkdpcbovfwmcoxqgjiwhhnewtubjdmwdso\177" 
 .text 
 .globl main 
 .type main, @function 
 main: 
 .LFB0: 
 .cfi_startproc 
 pushq %rbp 
 .cfi_def_cfa_offset 16 
 .cfi_offset 6, -16 
 movq %rsp, %rbp 
 .cfi_def_cfa_register 6 
 movl $.LC0, %edi 
 movl $0, %eax 
 call printf 
 movl $0, %eax 
 popq %rbp 
 .cfi_def_cfa 7, 8 
 ret 
 .cfi_endproc 
 .LFE0: 
 .size main, .-main 
 .ident "GCC: (Ubuntu 5.4.0-6ubuntu1~16.04.4) 5.4.0 20160609" 
 .section .note.GNU-stack,"",@progbits 
 .file "printFile73.c" 
 .section .rodata 
 .align 8 
 .LC0: 
 .string "qjuqdoopnqubgbeewgchhhrtosgljkjcwesathshxnlgqpmxqcaxfdmdjqehcgiwpkrscjplqslcraakecjjfvppovytehqtrkpvtfkkaxorxqfcsonxkdpcbovfwmcoxqgjiwhhnewtubjdmwdso\177" 
 .text 
 .globl main 
 .type main, @function 
 main: 
 .LFB0: 
 .cfi_startproc 
 pushq %rbp 
 .cfi_def_cfa_offset 16 
 .cfi_offset 6, -16 
 movq %rsp, %rbp 
 .cfi_def_cfa_register 6 
 movl $.LC0, %edi 
 movl $0, %eax 
 call printf 
 movl $0, %eax 
 popq %rbp 
 .cfi_def_cfa 7, 8 
 ret 
 .cfi_endproc 
 .LFE0: 
 .size main, .-main 
 .ident "GCC: (Ubuntu 5.4.0-6ubuntu1~16.04.4) 5.4.0 20160609" 
 .section .note.GNU-stack,"",@progbits 
 .file "printFile74.c" 
 .section .rodata 
 .align 8 
 .LC0: 
 .string "nvpxdwpanigbtskvpqoskxluvbiesxpgvhecthshxnlgqpmxqcaxfdmdjqehcgiwpkrscjplqslcraakecjjfvppovytehqtrkpvtfkkaxorxqfcsonxkdpcbovfwmcoxqgjiwhhnewtubjdmwdso\177" 
 .text 
 .globl main 
 .type main, @function 
 main: 
 .LFB0: 
 .cfi_startproc 
 pushq %rbp 
 .cfi_def_cfa_offset 16 
 .cfi_offset 6, -16 
 movq %rsp, %rbp 
 .cfi_def_cfa_register 6 
 movl $.LC0, %edi 
 movl $0, %eax 
 call printf 
 movl $0, %eax 
 popq %rbp 
 .cfi_def_cfa 7, 8 
 ret 
 .cfi_endproc 
 .LFE0: 
 .size main, .-main 
 .ident "GCC: (Ubuntu 5.4.0-6ubuntu1~16.04.4) 5.4.0 20160609" 
 .section .note.GNU-stack,"",@progbits 
 .file "printFile75.c" 
 .section .rodata 
 .align 8 
 .LC0: 
 .string "vctgkuadfxtyoolmagkdopvohflrlnxirsqcprfxrbwjpivrrjvibtxkjqehcgiwpkrscjplqslcraakecjjfvppovytehqtrkpvtfkkaxorxqfcsonxkdpcbovfwmcoxqgjiwhhnewtubjdmwdso\177" 
 .text 
 .globl main 
 .type main, @function 
 main: 
 .LFB0: 
 .cfi_startproc 
 pushq %rbp 
 .cfi_def_cfa_offset 16 
 .cfi_offset 6, -16 
 movq %rsp, %rbp 
 .cfi_def_cfa_register 6 
 movl $.LC0, %edi 
 movl $0, %eax 
 call printf 
 movl $0, %eax 
 popq %rbp 
 .cfi_def_cfa 7, 8 
 ret 
 .cfi_endproc 
 .LFE0: 
 .size main, .-main 
 .ident "GCC: (Ubuntu 5.4.0-6ubuntu1~16.04.4) 5.4.0 20160609" 
 .section .note.GNU-stack,"",@progbits 
 .file "printFile76.c" 
 .section .rodata 
 .align 8 
 .LC0: 
 .string "jclybvqvoslixlbcikrtimlrhflrlnxirsqcprfxrbwjpivrrjvibtxkjqehcgiwpkrscjplqslcraakecjjfvppovytehqtrkpvtfkkaxorxqfcsonxkdpcbovfwmcoxqgjiwhhnewtubjdmwdso\177" 
 .text 
 .globl main 
 .type main, @function 
 main: 
 .LFB0: 
 .cfi_startproc 
 pushq %rbp 
 .cfi_def_cfa_offset 16 
 .cfi_offset 6, -16 
 movq %rsp, %rbp 
 .cfi_def_cfa_register 6 
 movl $.LC0, %edi 
 movl $0, %eax 
 call printf 
 movl $0, %eax 
 popq %rbp 
 .cfi_def_cfa 7, 8 
 ret 
 .cfi_endproc 
 .LFE0: 
 .size main, .-main 
 .ident "GCC: (Ubuntu 5.4.0-6ubuntu1~16.04.4) 5.4.0 20160609" 
 .section .note.GNU-stack,"",@progbits 
 .file "printFile77.c" 
 .section .rodata 
 .align 8 
 .LC0: 
 .string "tucrgedirclpuhenvnohoqsbkmjyaehtymofqtqkycatmekkrytirmjebvehcgiwpkrscjplqslcraakecjjfvppovytehqtrkpvtfkkaxorxqfcsonxkdpcbovfwmcoxqgjiwhhnewtubjdmwdso\177" 
 .text 
 .globl main 
 .type main, @function 
 main: 
 .LFB0: 
 .cfi_startproc 
 pushq %rbp 
 .cfi_def_cfa_offset 16 
 .cfi_offset 6, -16 
 movq %rsp, %rbp 
 .cfi_def_cfa_register 6 
 movl $.LC0, %edi 
 movl $0, %eax 
 call printf 
 movl $0, %eax 
 popq %rbp 
 .cfi_def_cfa 7, 8 
 ret 
 .cfi_endproc 
 .LFE0: 
 .size main, .-main 
 .ident "GCC: (Ubuntu 5.4.0-6ubuntu1~16.04.4) 5.4.0 20160609" 
 .section .note.GNU-stack,"",@progbits 
 .file "printFile78.c" 
 .section .rodata 
 .align 8 
 .LC0: 
 .string "banxgedirclpuhenvnohoqsbkmjyaehtymofqtqkycatmekkrytirmjebvehcgiwpkrscjplqslcraakecjjfvppovytehqtrkpvtfkkaxorxqfcsonxkdpcbovfwmcoxqgjiwhhnewtubjdmwdso\177" 
 .text 
 .globl main 
 .type main, @function 
 main: 
 .LFB0: 
 .cfi_startproc 
 pushq %rbp 
 .cfi_def_cfa_offset 16 
 .cfi_offset 6, -16 
 movq %rsp, %rbp 
 .cfi_def_cfa_register 6 
 movl $.LC0, %edi 
 movl $0, %eax 
 call printf 
 movl $0, %eax 
 popq %rbp 
 .cfi_def_cfa 7, 8 
 ret 
 .cfi_endproc 
 .LFE0: 
 .size main, .-main 
 .ident "GCC: (Ubuntu 5.4.0-6ubuntu1~16.04.4) 5.4.0 20160609" 
 .section .note.GNU-stack,"",@progbits 
 .file "printFile79.c" 
 .section .rodata 
 .align 8 
 .LC0: 
 .string "amjsgadfedcqkmbclxnfkwlouppugnwicgcjihqmnsexfhcshpaspohkgygmpfvrnabvhukupqsxbvsilvbdkkoqmweccatraxpjufkkaxorxqfcsonxkdpcbovfwmcoxqgjiwhhnewtubjdmwdso\177" 
 .text 
 .globl main 
 .type main, @function 
 main: 
 .LFB0: 
 .cfi_startproc 
 pushq %rbp 
 .cfi_def_cfa_offset 16 
 .cfi_offset 6, -16 
 movq %rsp, %rbp 
 .cfi_def_cfa_register 6 
 movl $.LC0, %edi 
 movl $0, %eax 
 call printf 
 movl $0, %eax 
 popq %rbp 
 .cfi_def_cfa 7, 8 
 ret 
 .cfi_endproc 
 .LFE0: 
 .size main, .-main 
 .ident "GCC: (Ubuntu 5.4.0-6ubuntu1~16.04.4) 5.4.0 20160609" 
 .section .note.GNU-stack,"",@progbits 
 .file "printFile80.c" 
 .section .rodata 
 .align 8 
 .LC0: 
 .string "fkraisvebkafnkrebebhidjdwldmvxnbkfdvxaabmagcmbhpfiaspohkgygmpfvrnabvhukupqsxbvsilvbdkkoqmweccatraxpjufkkaxorxqfcsonxkdpcbovfwmcoxqgjiwhhnewtubjdmwdso\177" 
 .text 
 .globl main 
 .type main, @function 
 main: 
 .LFB0: 
 .cfi_startproc 
 pushq %rbp 
 .cfi_def_cfa_offset 16 
 .cfi_offset 6, -16 
 movq %rsp, %rbp 
 .cfi_def_cfa_register 6 
 movl $.LC0, %edi 
 movl $0, %eax 
 call printf 
 movl $0, %eax 
 popq %rbp 
 .cfi_def_cfa 7, 8 
 ret 
 .cfi_endproc 
 .LFE0: 
 .size main, .-main 
 .ident "GCC: (Ubuntu 5.4.0-6ubuntu1~16.04.4) 5.4.0 20160609" 
 .section .note.GNU-stack,"",@progbits 
 .file "printFile81.c" 
 .section .rodata 
 .align 8 
 .LC0: 
 .string "qohtltyyrymujtxftahumhervfymmjkdxtympxnhwccjvborfiaspohkgygmpfvrnabvhukupqsxbvsilvbdkkoqmweccatraxpjufkkaxorxqfcsonxkdpcbovfwmcoxqgjiwhhnewtubjdmwdso\177" 
 .text 
 .globl main 
 .type main, @function 
 main: 
 .LFB0: 
 .cfi_startproc 
 pushq %rbp 
 .cfi_def_cfa_offset 16 
 .cfi_offset 6, -16 
 movq %rsp, %rbp 
 .cfi_def_cfa_register 6 
 movl $.LC0, %edi 
 movl $0, %eax 
 call printf 
 movl $0, %eax 
 popq %rbp 
 .cfi_def_cfa 7, 8 
 ret 
 .cfi_endproc 
 .LFE0: 
 .size main, .-main 
 .ident "GCC: (Ubuntu 5.4.0-6ubuntu1~16.04.4) 5.4.0 20160609" 
 .section .note.GNU-stack,"",@progbits 
 .file "printFile82.c" 
 .section .rodata 
 .align 8 
 .LC0: 
 .string "ymqisifxjrnseqtxqgqqtxqxdatgqnjpaayvkevtxjpcbjctrskntdlwdhduummwplsarrwpbmtexwarrnflqskuaprwdetuqpwihfkkaxorxqfcsonxkdpcbovfwmcoxqgjiwhhnewtubjdmwdso\177" 
 .text 
 .globl main 
 .type main, @function 
 main: 
 .LFB0: 
 .cfi_startproc 
 pushq %rbp 
 .cfi_def_cfa_offset 16 
 .cfi_offset 6, -16 
 movq %rsp, %rbp 
 .cfi_def_cfa_register 6 
 movl $.LC0, %edi 
 movl $0, %eax 
 call printf 
 movl $0, %eax 
 popq %rbp 
 .cfi_def_cfa 7, 8 
 ret 
 .cfi_endproc 
 .LFE0: 
 .size main, .-main 
 .ident "GCC: (Ubuntu 5.4.0-6ubuntu1~16.04.4) 5.4.0 20160609" 
 .section .note.GNU-stack,"",@progbits 
 .file "printFile83.c" 
 .section .rodata 
 .align 8 
 .LC0: 
 .string "bkkupitramfhawaltcblygptdilbtsyudkpuuknvwufyrgmnkqykwrgdcrgvmfqpphnlrdjqxorswfgkviuucbxeuebhmrwcbmpupbnqsgjplrahcweeadjujmcvecbiqsdhuranxjfldiugfydso\177" 
 .text 
 .globl main 
 .type main, @function 
 main: 
 .LFB0: 
 .cfi_startproc 
 pushq %rbp 
 .cfi_def_cfa_offset 16 
 .cfi_offset 6, -16 
 movq %rsp, %rbp 
 .cfi_def_cfa_register 6 
 movl $.LC0, %edi 
 movl $0, %eax 
 call printf 
 movl $0, %eax 
 popq %rbp 
 .cfi_def_cfa 7, 8 
 ret 
 .cfi_endproc 
 .LFE0: 
 .size main, .-main 
 .ident "GCC: (Ubuntu 5.4.0-6ubuntu1~16.04.4) 5.4.0 20160609" 
 .section .note.GNU-stack,"",@progbits 
 .file "printFile84.c" 
 .section .rodata 
 .align 8 
 .LC0: 
 .string "gevdokimpkpabjdkewkruvwicfdinduvjtyxehnvtdvxocisyvmwtmfvtjehocdxxfyeombjryhhbrcdppakcfgeuebhmrwcbmpupbnqsgjplrahcweeadjujmcvecbiqsdhuranxjfldiugfydso\177" 
 .text 
 .globl main 
 .type main, @function 
 main: 
 .LFB0: 
 .cfi_startproc 
 pushq %rbp 
 .cfi_def_cfa_offset 16 
 .cfi_offset 6, -16 
 movq %rsp, %rbp 
 .cfi_def_cfa_register 6 
 movl $.LC0, %edi 
 movl $0, %eax 
 call printf 
 movl $0, %eax 
 popq %rbp 
 .cfi_def_cfa 7, 8 
 ret 
 .cfi_endproc 
 .LFE0: 
 .size main, .-main 
 .ident "GCC: (Ubuntu 5.4.0-6ubuntu1~16.04.4) 5.4.0 20160609" 
 .section .note.GNU-stack,"",@progbits 
 .file "printFile85.c" 
 .section .rodata 
 .align 8 
 .LC0: 
 .string "qngfrlgpsftitwtnwduawadnrfxtngretakloqdhxxprwlfvodwmfcawkasxgmcdnoqchulfucyrphofmnrrrtqcvjacxfhltypetcjoglivuwdhmwbfsthodmcvecbiqsdhuranxjfldiugfydso\177" 
 .text 
 .globl main 
 .type main, @function 
 main: 
 .LFB0: 
 .cfi_startproc 
 pushq %rbp 
 .cfi_def_cfa_offset 16 
 .cfi_offset 6, -16 
 movq %rsp, %rbp 
 .cfi_def_cfa_register 6 
 movl $.LC0, %edi 
 movl $0, %eax 
 call printf 
 movl $0, %eax 
 popq %rbp 
 .cfi_def_cfa 7, 8 
 ret 
 .cfi_endproc 
 .LFE0: 
 .size main, .-main 
 .ident "GCC: (Ubuntu 5.4.0-6ubuntu1~16.04.4) 5.4.0 20160609" 
 .section .note.GNU-stack,"",@progbits 
 .file "printFile86.c" 
 .section .rodata 
 .align 8 
 .LC0: 
 .string "tbpbplchpvlcmtnvskuvtivupoqwetjxwbbonewdckhpfwnxhkvburxkhoklktlkvoylsxqxjynqvdognkhjftqcvjacxfhltypetcjoglivuwdhmwbfsthodmcvecbiqsdhuranxjfldiugfydso\177" 
 .text 
 .globl main 
 .type main, @function 
 main: 
 .LFB0: 
 .cfi_startproc 
 pushq %rbp 
 .cfi_def_cfa_offset 16 
 .cfi_offset 6, -16 
 movq %rsp, %rbp 
 .cfi_def_cfa_register 6 
 movl $.LC0, %edi 
 movl $0, %eax 
 call printf 
 movl $0, %eax 
 popq %rbp 
 .cfi_def_cfa 7, 8 
 ret 
 .cfi_endproc 
 .LFE0: 
 .size main, .-main 
 .ident "GCC: (Ubuntu 5.4.0-6ubuntu1~16.04.4) 5.4.0 20160609" 
 .section .note.GNU-stack,"",@progbits 
 .file "printFile87.c" 
 .section .rodata 
 .align 8 
 .LC0: 
 .string "tmwgakbnuycvkxubxgalwyqnfgaorfwotbbonewdckhpfwnxhkvburxkhoklktlkvoylsxqxjynqvdognkhjftqcvjacxfhltypetcjoglivuwdhmwbfsthodmcvecbiqsdhuranxjfldiugfydso\177" 
 .text 
 .globl main 
 .type main, @function 
 main: 
 .LFB0: 
 .cfi_startproc 
 pushq %rbp 
 .cfi_def_cfa_offset 16 
 .cfi_offset 6, -16 
 movq %rsp, %rbp 
 .cfi_def_cfa_register 6 
 movl $.LC0, %edi 
 movl $0, %eax 
 call printf 
 movl $0, %eax 
 popq %rbp 
 .cfi_def_cfa 7, 8 
 ret 
 .cfi_endproc 
 .LFE0: 
 .size main, .-main 
 .ident "GCC: (Ubuntu 5.4.0-6ubuntu1~16.04.4) 5.4.0 20160609" 
 .section .note.GNU-stack,"",@progbits 
 .file "printFile88.c" 
 .section .rodata 
 .align 8 
 .LC0: 
 .string "uvhvjeuoahowjmfjaeisrpyufraciwbdsicfoytrhkoqwwcybnrvdqqkksnspowlabqqamihjynqvdognkhjftqcvjacxfhltypetcjoglivuwdhmwbfsthodmcvecbiqsdhuranxjfldiugfydso\177" 
 .text 
 .globl main 
 .type main, @function 
 main: 
 .LFB0: 
 .cfi_startproc 
 pushq %rbp 
 .cfi_def_cfa_offset 16 
 .cfi_offset 6, -16 
 movq %rsp, %rbp 
 .cfi_def_cfa_register 6 
 movl $.LC0, %edi 
 movl $0, %eax 
 call printf 
 movl $0, %eax 
 popq %rbp 
 .cfi_def_cfa 7, 8 
 ret 
 .cfi_endproc 
 .LFE0: 
 .size main, .-main 
 .ident "GCC: (Ubuntu 5.4.0-6ubuntu1~16.04.4) 5.4.0 20160609" 
 .section .note.GNU-stack,"",@progbits 
 .file "printFile89.c" 
 .section .rodata 
 .align 8 
 .LC0: 
 .string "aatwdsaqkvvdmhogwjxnijpjchkortlruhqxcrqoposdvjlusljcxbnaixpbsbunjonngedvjynqvdognkhjftqcvjacxfhltypetcjoglivuwdhmwbfsthodmcvecbiqsdhuranxjfldiugfydso\177" 
 .text 
 .globl main 
 .type main, @function 
 main: 
 .LFB0: 
 .cfi_startproc 
 pushq %rbp 
 .cfi_def_cfa_offset 16 
 .cfi_offset 6, -16 
 movq %rsp, %rbp 
 .cfi_def_cfa_register 6 
 movl $.LC0, %edi 
 movl $0, %eax 
 call printf 
 movl $0, %eax 
 popq %rbp 
 .cfi_def_cfa 7, 8 
 ret 
 .cfi_endproc 
 .LFE0: 
 .size main, .-main 
 .ident "GCC: (Ubuntu 5.4.0-6ubuntu1~16.04.4) 5.4.0 20160609" 
 .section .note.GNU-stack,"",@progbits 
 .file "printFile90.c" 
 .section .rodata 
 .align 8 
 .LC0: 
 .string "vbtfooadaebcsdmssplwlbiaoviuygsukmcbbfeelhieljlusljcxbnaixpbsbunjonngedvjynqvdognkhjftqcvjacxfhltypetcjoglivuwdhmwbfsthodmcvecbiqsdhuranxjfldiugfydso\177" 
 .text 
 .globl main 
 .type main, @function 
 main: 
 .LFB0: 
 .cfi_startproc 
 pushq %rbp 
 .cfi_def_cfa_offset 16 
 .cfi_offset 6, -16 
 movq %rsp, %rbp 
 .cfi_def_cfa_register 6 
 movl $.LC0, %edi 
 movl $0, %eax 
 call printf 
 movl $0, %eax 
 popq %rbp 
 .cfi_def_cfa 7, 8 
 ret 
 .cfi_endproc 
 .LFE0: 
 .size main, .-main 
 .ident "GCC: (Ubuntu 5.4.0-6ubuntu1~16.04.4) 5.4.0 20160609" 
 .section .note.GNU-stack,"",@progbits 
 .file "printFile91.c" 
 .section .rodata 
 .align 8 
 .LC0: 
 .string "aelldyplbgilejtwhejlimqosdwbjiwjokxulpgovqccbvbkdmvlapcuuywejvqbgqvtgeievkhyiijlvhyxwcsrdrwnnpqtgmpoqxsokcptlbhjjhjglcbodmcvecbiqsdhuranxjfldiugfydso\177" 
 .text 
 .globl main 
 .type main, @function 
 main: 
 .LFB0: 
 .cfi_startproc 
 pushq %rbp 
 .cfi_def_cfa_offset 16 
 .cfi_offset 6, -16 
 movq %rsp, %rbp 
 .cfi_def_cfa_register 6 
 movl $.LC0, %edi 
 movl $0, %eax 
 call printf 
 movl $0, %eax 
 popq %rbp 
 .cfi_def_cfa 7, 8 
 ret 
 .cfi_endproc 
 .LFE0: 
 .size main, .-main 
 .ident "GCC: (Ubuntu 5.4.0-6ubuntu1~16.04.4) 5.4.0 20160609" 
 .section .note.GNU-stack,"",@progbits 
 .file "printFile92.c" 
 .section .rodata 
 .align 8 
 .LC0: 
 .string "ackpshxhwmbxhrikiexlohqosdwbjiwjokxulpgovqccbvbkdmvlapcuuywejvqbgqvtgeievkhyiijlvhyxwcsrdrwnnpqtgmpoqxsokcptlbhjjhjglcbodmcvecbiqsdhuranxjfldiugfydso\177" 
 .text 
 .globl main 
 .type main, @function 
 main: 
 .LFB0: 
 .cfi_startproc 
 pushq %rbp 
 .cfi_def_cfa_offset 16 
 .cfi_offset 6, -16 
 movq %rsp, %rbp 
 .cfi_def_cfa_register 6 
 movl $.LC0, %edi 
 movl $0, %eax 
 call printf 
 movl $0, %eax 
 popq %rbp 
 .cfi_def_cfa 7, 8 
 ret 
 .cfi_endproc 
 .LFE0: 
 .size main, .-main 
 .ident "GCC: (Ubuntu 5.4.0-6ubuntu1~16.04.4) 5.4.0 20160609" 
 .section .note.GNU-stack,"",@progbits 
 .file "printFile93.c" 
 .section .rodata 
 .align 8 
 .LC0: 
 .string "vqejufxrfddwxmugjjjjqbubjyyvngslyyuwevqlyviwiffsoocgqwhcyjaorvdruaqavhievkhyiijlvhyxwcsrdrwnnpqtgmpoqxsokcptlbhjjhjglcbodmcvecbiqsdhuranxjfldiugfydso\177" 
 .text 
 .globl main 
 .type main, @function 
 main: 
 .LFB0: 
 .cfi_startproc 
 pushq %rbp 
 .cfi_def_cfa_offset 16 
 .cfi_offset 6, -16 
 movq %rsp, %rbp 
 .cfi_def_cfa_register 6 
 movl $.LC0, %edi 
 movl $0, %eax 
 call printf 
 movl $0, %eax 
 popq %rbp 
 .cfi_def_cfa 7, 8 
 ret 
 .cfi_endproc 
 .LFE0: 
 .size main, .-main 
 .ident "GCC: (Ubuntu 5.4.0-6ubuntu1~16.04.4) 5.4.0 20160609" 
 .section .note.GNU-stack,"",@progbits 
 .file "printFile94.c" 
 .section .rodata 
 .align 8 
 .LC0: 
 .string "weyumechvrmcijlmkuncpjfhefagehwblvxycbgxusafforrlhtbsykahkglsfogbnfeqocnjfsqvkjhudlnfvnojwaecqkegqkyhomqtfkpstanyhjglcbodmcvecbiqsdhuranxjfldiugfydso\177" 
 .text 
 .globl main 
 .type main, @function 
 main: 
 .LFB0: 
 .cfi_startproc 
 pushq %rbp 
 .cfi_def_cfa_offset 16 
 .cfi_offset 6, -16 
 movq %rsp, %rbp 
 .cfi_def_cfa_register 6 
 movl $.LC0, %edi 
 movl $0, %eax 
 call printf 
 movl $0, %eax 
 popq %rbp 
 .cfi_def_cfa 7, 8 
 ret 
 .cfi_endproc 
 .LFE0: 
 .size main, .-main 
 .ident "GCC: (Ubuntu 5.4.0-6ubuntu1~16.04.4) 5.4.0 20160609" 
 .section .note.GNU-stack,"",@progbits 
 .file "printFile95.c" 
 .section .rodata 
 .align 8 
 .LC0: 
 .string "dghrusqwwsqiywblwibjburlnmhnajyfriyncpmbjdjkdkwauxlwufkiruxtgfogbnfeqocnjfsqvkjhudlnfvnojwaecqkegqkyhomqtfkpstanyhjglcbodmcvecbiqsdhuranxjfldiugfydso\177" 
 .text 
 .globl main 
 .type main, @function 
 main: 
 .LFB0: 
 .cfi_startproc 
 pushq %rbp 
 .cfi_def_cfa_offset 16 
 .cfi_offset 6, -16 
 movq %rsp, %rbp 
 .cfi_def_cfa_register 6 
 movl $.LC0, %edi 
 movl $0, %eax 
 call printf 
 movl $0, %eax 
 popq %rbp 
 .cfi_def_cfa 7, 8 
 ret 
 .cfi_endproc 
 .LFE0: 
 .size main, .-main 
 .ident "GCC: (Ubuntu 5.4.0-6ubuntu1~16.04.4) 5.4.0 20160609" 
 .section .note.GNU-stack,"",@progbits 
 .file "printFile96.c" 
 .section .rodata 
 .align 8 
 .LC0: 
 .string "axiynmpbnbgxnjkklgkafgfrqxmptumttwvhjnkxorxcdipauxlwufkiruxtgfogbnfeqocnjfsqvkjhudlnfvnojwaecqkegqkyhomqtfkpstanyhjglcbodmcvecbiqsdhuranxjfldiugfydso\177" 
 .text 
 .globl main 
 .type main, @function 
 main: 
 .LFB0: 
 .cfi_startproc 
 pushq %rbp 
 .cfi_def_cfa_offset 16 
 .cfi_offset 6, -16 
 movq %rsp, %rbp 
 .cfi_def_cfa_register 6 
 movl $.LC0, %edi 
 movl $0, %eax 
 call printf 
 movl $0, %eax 
 popq %rbp 
 .cfi_def_cfa 7, 8 
 ret 
 .cfi_endproc 
 .LFE0: 
 .size main, .-main 
 .ident "GCC: (Ubuntu 5.4.0-6ubuntu1~16.04.4) 5.4.0 20160609" 
 .section .note.GNU-stack,"",@progbits 
 .file "printFile97.c" 
 .section .rodata 
 .align 8 
 .LC0: 
 .string "oartgwmxwbptwcnsclalynlnhjsmskejkvgtvstsorxcdipauxlwufkiruxtgfogbnfeqocnjfsqvkjhudlnfvnojwaecqkegqkyhomqtfkpstanyhjglcbodmcvecbiqsdhuranxjfldiugfydso\177" 
 .text 
 .globl main 
 .type main, @function 
 main: 
 .LFB0: 
 .cfi_startproc 
 pushq %rbp 
 .cfi_def_cfa_offset 16 
 .cfi_offset 6, -16 
 movq %rsp, %rbp 
 .cfi_def_cfa_register 6 
 movl $.LC0, %edi 
 movl $0, %eax 
 call printf 
 movl $0, %eax 
 popq %rbp 
 .cfi_def_cfa 7, 8 
 ret 
 .cfi_endproc 
 .LFE0: 
 .size main, .-main 
 .ident "GCC: (Ubuntu 5.4.0-6ubuntu1~16.04.4) 5.4.0 20160609" 
 .section .note.GNU-stack,"",@progbits 
 .file "printFile98.c" 
 .section .rodata 
 .align 8 
 .LC0: 
 .string "joundnpoqeqepenayaujfewbkqwfmsevhylmncegiumxbaadcuohallmeksqfwopxbenfitnfgnjioonjdulpiyvvtnbsessfxhmidcqmqaufoiqtgfjqegmamcvecbiqsdhuranxjfldiugfydso\177" 
 .text 
 .globl main 
 .type main, @function 
 main: 
 .LFB0: 
 .cfi_startproc 
 pushq %rbp 
 .cfi_def_cfa_offset 16 
 .cfi_offset 6, -16 
 movq %rsp, %rbp 
 .cfi_def_cfa_register 6 
 movl $.LC0, %edi 
 movl $0, %eax 
 call printf 
 movl $0, %eax 
 popq %rbp 
 .cfi_def_cfa 7, 8 
 ret 
 .cfi_endproc 
 .LFE0: 
 .size main, .-main 
 .ident "GCC: (Ubuntu 5.4.0-6ubuntu1~16.04.4) 5.4.0 20160609" 
 .section .note.GNU-stack,"",@progbits 
 .file "printFile99.c" 
 .section .rodata 
 .align 8 
 .LC0: 
 .string "quajnihuwqyahlsjiaatqtcxgscogemwymgnwqiujjwswpadcuohallmeksqfwopxbenfitnfgnjioonjdulpiyvvtnbsessfxhmidcqmqaufoiqtgfjqegmamcvecbiqsdhuranxjfldiugfydso\177" 
 .text 
 .globl main 
 .type main, @function 
 main: 
 .LFB0: 
 .cfi_startproc 
 pushq %rbp 
 .cfi_def_cfa_offset 16 
 .cfi_offset 6, -16 
 movq %rsp, %rbp 
 .cfi_def_cfa_register 6 
 movl $.LC0, %edi 
 movl $0, %eax 
 call printf 
 movl $0, %eax 
 popq %rbp 
 .cfi_def_cfa 7, 8 
 ret 
 .cfi_endproc 
 .LFE0: 
 .size main, .-main 
 .ident "GCC: (Ubuntu 5.4.0-6ubuntu1~16.04.4) 5.4.0 20160609" 
 .section .note.GNU-stack,"",@progbits 
 .file "printFile100.c" 
 .section .rodata 
 .align 8 
 .LC0: 
 .string "gpecixehgwlufqjerwnfveqspcpiafmiwqkiqqrapfwvxhaqgpxcvovltltttgesyodsfusudrsbyvrflsiijgtdrqwnydjbrmvykqcqmqaufoiqtgfjqegmamcvecbiqsdhuranxjfldiugfydso\177" 
 .text 
 .globl main 
 .type main, @function 
 main: 
 .LFB0: 
 .cfi_startproc 
 pushq %rbp 
 .cfi_def_cfa_offset 16 
 .cfi_offset 6, -16 
 movq %rsp, %rbp 
 .cfi_def_cfa_register 6 
 movl $.LC0, %edi 
 movl $0, %eax 
 call printf 
 movl $0, %eax 
 popq %rbp 
 .cfi_def_cfa 7, 8 
 ret 
 .cfi_endproc 
 .LFE0: 
 .size main, .-main 
 .ident "GCC: (Ubuntu 5.4.0-6ubuntu1~16.04.4) 5.4.0 20160609" 
 .section .note.GNU-stack,"",@progbits 
 .file "printFile101.c" 
 .section .rodata 
 .align 8 
 .LC0: 
 .string "niroinjncexmneirybqobuxeolaqvqnlyhchxlxapvogdwxebqsclrgddgtbwjoxqqgofgqwdrsbyvrflsiijgtdrqwnydjbrmvykqcqmqaufoiqtgfjqegmamcvecbiqsdhuranxjfldiugfydso\177" 
 .text 
 .globl main 
 .type main, @function 
 main: 
 .LFB0: 
 .cfi_startproc 
 pushq %rbp 
 .cfi_def_cfa_offset 16 
 .cfi_offset 6, -16 
 movq %rsp, %rbp 
 .cfi_def_cfa_register 6 
 movl $.LC0, %edi 
 movl $0, %eax 
 call printf 
 movl $0, %eax 
 popq %rbp 
 .cfi_def_cfa 7, 8 
 ret 
 .cfi_endproc 
 .LFE0: 
 .size main, .-main 
 .ident "GCC: (Ubuntu 5.4.0-6ubuntu1~16.04.4) 5.4.0 20160609" 
 .section .note.GNU-stack,"",@progbits 
 .file "printFile102.c" 
 .section .rodata 
 .align 8 
 .LC0: 
 .string "hdhhdliufmiyslebffaqvximgytmsrrcwyjbnrxuegtysxcafcrbbcpjdkwxeobbpkeffcaljtnerpgysaavcqfideghuhinunscrvnbrbhktolmomktfrciwkptuahrpsdhuranxjfldiugfydso\177" 
 .text 
 .globl main 
 .type main, @function 
 main: 
 .LFB0: 
 .cfi_startproc 
 pushq %rbp 
 .cfi_def_cfa_offset 16 
 .cfi_offset 6, -16 
 movq %rsp, %rbp 
 .cfi_def_cfa_register 6 
 movl $.LC0, %edi 
 movl $0, %eax 
 call printf 
 movl $0, %eax 
 popq %rbp 
 .cfi_def_cfa 7, 8 
 ret 
 .cfi_endproc 
 .LFE0: 
 .size main, .-main 
 .ident "GCC: (Ubuntu 5.4.0-6ubuntu1~16.04.4) 5.4.0 20160609" 
 .section .note.GNU-stack,"",@progbits 
 .file "printFile103.c" 
 .section .rodata 
 .align 8 
 .LC0: 
 .string "tiyjlqntdhkpvbegujaytwkjthlbycesmfeawrtcbgrwivffhgfbfrmyyybadhsrnyrmroosujqfhxgysaavcqfideghuhinunscrvnbrbhktolmomktfrciwkptuahrpsdhuranxjfldiugfydso\177" 
 .text 
 .globl main 
 .type main, @function 
 main: 
 .LFB0: 
 .cfi_startproc 
 pushq %rbp 
 .cfi_def_cfa_offset 16 
 .cfi_offset 6, -16 
 movq %rsp, %rbp 
 .cfi_def_cfa_register 6 
 movl $.LC0, %edi 
 movl $0, %eax 
 call printf 
 movl $0, %eax 
 popq %rbp 
 .cfi_def_cfa 7, 8 
 ret 
 .cfi_endproc 
 .LFE0: 
 .size main, .-main 
 .ident "GCC: (Ubuntu 5.4.0-6ubuntu1~16.04.4) 5.4.0 20160609" 
 .section .note.GNU-stack,"",@progbits 
 .file "printFile104.c" 
 .section .rodata 
 .align 8 
 .LC0: 
 .string "pesskkgllholmwgemfvyympskylphldyqvrdixovhejtdrxpxwqylgrvgfoprrokqgpbheaqkjlpclfckxbwfvfideghuhinunscrvnbrbhktolmomktfrciwkptuahrpsdhuranxjfldiugfydso\177" 
 .text 
 .globl main 
 .type main, @function 
 main: 
 .LFB0: 
 .cfi_startproc 
 pushq %rbp 
 .cfi_def_cfa_offset 16 
 .cfi_offset 6, -16 
 movq %rsp, %rbp 
 .cfi_def_cfa_register 6 
 movl $.LC0, %edi 
 movl $0, %eax 
 call printf 
 movl $0, %eax 
 popq %rbp 
 .cfi_def_cfa 7, 8 
 ret 
 .cfi_endproc 
 .LFE0: 
 .size main, .-main 
 .ident "GCC: (Ubuntu 5.4.0-6ubuntu1~16.04.4) 5.4.0 20160609" 
 .section .note.GNU-stack,"",@progbits 
 .file "printFile105.c" 
 .section .rodata 
 .align 8 
 .LC0: 
 .string "ndjdwerjuayxjgxbqkmhoaoqlntispdivnlstfdohcorkpuccjlqjajwpdfkvlsrbemulrltwcnhrijtrwkdxvbpaibvthinunscrvnbrbhktolmomktfrciwkptuahrpsdhuranxjfldiugfydso\177" 
 .text 
 .globl main 
 .type main, @function 
 main: 
 .LFB0: 
 .cfi_startproc 
 pushq %rbp 
 .cfi_def_cfa_offset 16 
 .cfi_offset 6, -16 
 movq %rsp, %rbp 
 .cfi_def_cfa_register 6 
 movl $.LC0, %edi 
 movl $0, %eax 
 call printf 
 movl $0, %eax 
 popq %rbp 
 .cfi_def_cfa 7, 8 
 ret 
 .cfi_endproc 
 .LFE0: 
 .size main, .-main 
 .ident "GCC: (Ubuntu 5.4.0-6ubuntu1~16.04.4) 5.4.0 20160609" 
 .section .note.GNU-stack,"",@progbits 
 .file "printFile106.c" 
 .section .rodata 
 .align 8 
 .LC0: 
 .string "pwbermwfitivbaenwxkjekgfbgncekxvhyacmwhusprwsxkpywydkhknpapvkprupuwcrgynyskrtujstkxesiriijfvawqptptoxscwomqijabflbkejeoiwkptuahrpsdhuranxjfldiugfydso\177" 
 .text 
 .globl main 
 .type main, @function 
 main: 
 .LFB0: 
 .cfi_startproc 
 pushq %rbp 
 .cfi_def_cfa_offset 16 
 .cfi_offset 6, -16 
 movq %rsp, %rbp 
 .cfi_def_cfa_register 6 
 movl $.LC0, %edi 
 movl $0, %eax 
 call printf 
 movl $0, %eax 
 popq %rbp 
 .cfi_def_cfa 7, 8 
 ret 
 .cfi_endproc 
 .LFE0: 
 .size main, .-main 
 .ident "GCC: (Ubuntu 5.4.0-6ubuntu1~16.04.4) 5.4.0 20160609" 
 .section .note.GNU-stack,"",@progbits 
 .file "printFile107.c" 
 .section .rodata 
 .align 8 
 .LC0: 
 .string "otpqtiinaccywgxlsptjekgfbgncekxvhyacmwhusprwsxkpywydkhknpapvkprupuwcrgynyskrtujstkxesiriijfvawqptptoxscwomqijabflbkejeoiwkptuahrpsdhuranxjfldiugfydso\177" 
 .text 
 .globl main 
 .type main, @function 
 main: 
 .LFB0: 
 .cfi_startproc 
 pushq %rbp 
 .cfi_def_cfa_offset 16 
 .cfi_offset 6, -16 
 movq %rsp, %rbp 
 .cfi_def_cfa_register 6 
 movl $.LC0, %edi 
 movl $0, %eax 
 call printf 
 movl $0, %eax 
 popq %rbp 
 .cfi_def_cfa 7, 8 
 ret 
 .cfi_endproc 
 .LFE0: 
 .size main, .-main 
 .ident "GCC: (Ubuntu 5.4.0-6ubuntu1~16.04.4) 5.4.0 20160609" 
 .section .note.GNU-stack,"",@progbits 
 .file "printFile108.c" 
 .section .rodata 
 .align 8 
 .LC0: 
 .string "pwkdxuhhbwepstimfqdfuhgsofgjubomayqyvaiwympsjxhqrmxmufhjkoshrjtrimsgncgmqvfcvpunctdwykilycsqlolwcedpilcchkggacvcvyawkkilmbfbpqatusdhuranxjfldiugfydso\177" 
 .text 
 .globl main 
 .type main, @function 
 main: 
 .LFB0: 
 .cfi_startproc 
 pushq %rbp 
 .cfi_def_cfa_offset 16 
 .cfi_offset 6, -16 
 movq %rsp, %rbp 
 .cfi_def_cfa_register 6 
 movl $.LC0, %edi 
 movl $0, %eax 
 call printf 
 movl $0, %eax 
 popq %rbp 
 .cfi_def_cfa 7, 8 
 ret 
 .cfi_endproc 
 .LFE0: 
 .size main, .-main 
 .ident "GCC: (Ubuntu 5.4.0-6ubuntu1~16.04.4) 5.4.0 20160609" 
 .section .note.GNU-stack,"",@progbits 
 .file "printFile109.c" 
 .section .rodata 
 .align 8 
 .LC0: 
 .string "jgroiuhhbwepstimfqdfuhgsofgjubomayqyvaiwympsjxhqrmxmufhjkoshrjtrimsgncgmqvfcvpunctdwykilycsqlolwcedpilcchkggacvcvyawkkilmbfbpqatusdhuranxjfldiugfydso\177" 
 .text 
 .globl main 
 .type main, @function 
 main: 
 .LFB0: 
 .cfi_startproc 
 pushq %rbp 
 .cfi_def_cfa_offset 16 
 .cfi_offset 6, -16 
 movq %rsp, %rbp 
 .cfi_def_cfa_register 6 
 movl $.LC0, %edi 
 movl $0, %eax 
 call printf 
 movl $0, %eax 
 popq %rbp 
 .cfi_def_cfa 7, 8 
 ret 
 .cfi_endproc 
 .LFE0: 
 .size main, .-main 
 .ident "GCC: (Ubuntu 5.4.0-6ubuntu1~16.04.4) 5.4.0 20160609" 
 .section .note.GNU-stack,"",@progbits 
 .file "printFile110.c" 
 .section .rodata 
 .align 8 
 .LC0: 
 .string "yohyqgdofflrqtgfwlgpcijyovhgkphjhrkxxppfvbaoxgturdmvlywcufifwsqekdfksupqxrhvxetrhgpufnxaughtbxyndgxydlcchkggacvcvyawkkilmbfbpqatusdhuranxjfldiugfydso\177" 
 .text 
 .globl main 
 .type main, @function 
 main: 
 .LFB0: 
 .cfi_startproc 
 pushq %rbp 
 .cfi_def_cfa_offset 16 
 .cfi_offset 6, -16 
 movq %rsp, %rbp 
 .cfi_def_cfa_register 6 
 movl $.LC0, %edi 
 movl $0, %eax 
 call printf 
 movl $0, %eax 
 popq %rbp 
 .cfi_def_cfa 7, 8 
 ret 
 .cfi_endproc 
 .LFE0: 
 .size main, .-main 
 .ident "GCC: (Ubuntu 5.4.0-6ubuntu1~16.04.4) 5.4.0 20160609" 
 .section .note.GNU-stack,"",@progbits 
 .file "printFile111.c" 
 .section .rodata 
 .align 8 
 .LC0: 
 .string "rbiaxherbnxrighigerqxsoyhuhftkxnmhpkqterjbaoxgturdmvlywcufifwsqekdfksupqxrhvxetrhgpufnxaughtbxyndgxydlcchkggacvcvyawkkilmbfbpqatusdhuranxjfldiugfydso\177" 
 .text 
 .globl main 
 .type main, @function 
 main: 
 .LFB0: 
 .cfi_startproc 
 pushq %rbp 
 .cfi_def_cfa_offset 16 
 .cfi_offset 6, -16 
 movq %rsp, %rbp 
 .cfi_def_cfa_register 6 
 movl $.LC0, %edi 
 movl $0, %eax 
 call printf 
 movl $0, %eax 
 popq %rbp 
 .cfi_def_cfa 7, 8 
 ret 
 .cfi_endproc 
 .LFE0: 
 .size main, .-main 
 .ident "GCC: (Ubuntu 5.4.0-6ubuntu1~16.04.4) 5.4.0 20160609" 
 .section .note.GNU-stack,"",@progbits 
 .file "printFile112.c" 
 .section .rodata 
 .align 8 
 .LC0: 
 .string "lskubryuiaoyyvvjdrtegglvseswxcckwmfbehvohkqiimrofmslugjomclkfnwebffhmcytopexcyohljuipfwcjloqymvcrbkeflaubgudfjnsskckryoemdumpqqtusdhuranxjfldiugfydso\177" 
 .text 
 .globl main 
 .type main, @function 
 main: 
 .LFB0: 
 .cfi_startproc 
 pushq %rbp 
 .cfi_def_cfa_offset 16 
 .cfi_offset 6, -16 
 movq %rsp, %rbp 
 .cfi_def_cfa_register 6 
 movl $.LC0, %edi 
 movl $0, %eax 
 call printf 
 movl $0, %eax 
 popq %rbp 
 .cfi_def_cfa 7, 8 
 ret 
 .cfi_endproc 
 .LFE0: 
 .size main, .-main 
 .ident "GCC: (Ubuntu 5.4.0-6ubuntu1~16.04.4) 5.4.0 20160609" 
 .section .note.GNU-stack,"",@progbits 
 .file "printFile113.c" 
 .section .rodata 
 .align 8 
 .LC0: 
 .string "udnaopwpwtvcdlvxvxkqyyumfpbujrfgxuimlgdiabkgmigkitbiuxwaqclkfnwebffhmcytopexcyohljuipfwcjloqymvcrbkeflaubgudfjnsskckryoemdumpqqtusdhuranxjfldiugfydso\177" 
 .text 
 .globl main 
 .type main, @function 
 main: 
 .LFB0: 
 .cfi_startproc 
 pushq %rbp 
 .cfi_def_cfa_offset 16 
 .cfi_offset 6, -16 
 movq %rsp, %rbp 
 .cfi_def_cfa_register 6 
 movl $.LC0, %edi 
 movl $0, %eax 
 call printf 
 movl $0, %eax 
 popq %rbp 
 .cfi_def_cfa 7, 8 
 ret 
 .cfi_endproc 
 .LFE0: 
 .size main, .-main 
 .ident "GCC: (Ubuntu 5.4.0-6ubuntu1~16.04.4) 5.4.0 20160609" 
 .section .note.GNU-stack,"",@progbits 
 .file "printFile114.c" 
 .section .rodata 
 .align 8 
 .LC0: 
 .string "xarfgpaofnwkxalliatokdiongokgfkefelnumfcccmbcxmkxgcklmbysqlcvvieburxjyalcomgmytmixwtmytirfknesthnohwnjlrxxykauyiuvehwapogcfmpqqtusdhuranxjfldiugfydso\177" 
 .text 
 .globl main 
 .type main, @function 
 main: 
 .LFB0: 
 .cfi_startproc 
 pushq %rbp 
 .cfi_def_cfa_offset 16 
 .cfi_offset 6, -16 
 movq %rsp, %rbp 
 .cfi_def_cfa_register 6 
 movl $.LC0, %edi 
 movl $0, %eax 
 call printf 
 movl $0, %eax 
 popq %rbp 
 .cfi_def_cfa 7, 8 
 ret 
 .cfi_endproc 
 .LFE0: 
 .size main, .-main 
 .ident "GCC: (Ubuntu 5.4.0-6ubuntu1~16.04.4) 5.4.0 20160609" 
 .section .note.GNU-stack,"",@progbits 
 .file "printFile115.c" 
 .section .rodata 
 .align 8 
 .LC0: 
 .string "vytlndlemwvkwwwwrvhotmytooiurpjprfbhimlulihjfeiacsowfpqvfbrytdoljrurfhpspwcwelwieohlexhirfknesthnohwnjlrxxykauyiuvehwapogcfmpqqtusdhuranxjfldiugfydso\177" 
 .text 
 .globl main 
 .type main, @function 
 main: 
 .LFB0: 
 .cfi_startproc 
 pushq %rbp 
 .cfi_def_cfa_offset 16 
 .cfi_offset 6, -16 
 movq %rsp, %rbp 
 .cfi_def_cfa_register 6 
 movl $.LC0, %edi 
 movl $0, %eax 
 call printf 
 movl $0, %eax 
 popq %rbp 
 .cfi_def_cfa 7, 8 
 ret 
 .cfi_endproc 
 .LFE0: 
 .size main, .-main 
 .ident "GCC: (Ubuntu 5.4.0-6ubuntu1~16.04.4) 5.4.0 20160609" 
 .section .note.GNU-stack,"",@progbits 
 .file "printFile116.c" 
 .section .rodata 
 .align 8 
 .LC0: 
 .string "cbmxfblqvgidnxvfvyfcmeksssgaspnwrbuyegpcpaffyclwbqbpuliqgqsagiyaluysdquutbbsdorghuxegiupyppfbogmlhfrbdmueppjehpiuvehwapogcfmpqqtusdhuranxjfldiugfydso\177" 
 .text 
 .globl main 
 .type main, @function 
 main: 
 .LFB0: 
 .cfi_startproc 
 pushq %rbp 
 .cfi_def_cfa_offset 16 
 .cfi_offset 6, -16 
 movq %rsp, %rbp 
 .cfi_def_cfa_register 6 
 movl $.LC0, %edi 
 movl $0, %eax 
 call printf 
 movl $0, %eax 
 popq %rbp 
 .cfi_def_cfa 7, 8 
 ret 
 .cfi_endproc 
 .LFE0: 
 .size main, .-main 
 .ident "GCC: (Ubuntu 5.4.0-6ubuntu1~16.04.4) 5.4.0 20160609" 
 .section .note.GNU-stack,"",@progbits 
 .file "printFile117.c" 
 .section .rodata 
 .align 8 
 .LC0: 
 .string "cnqkxnawgrchjkvuucovfeqltguypmmtcdeathwaybhimfghjwfqbvcvewwtjjnlntnjbkjdmslbxtkirpysleupyppfbogmlhfrbdmueppjehpiuvehwapogcfmpqqtusdhuranxjfldiugfydso\177" 
 .text 
 .globl main 
 .type main, @function 
 main: 
 .LFB0: 
 .cfi_startproc 
 pushq %rbp 
 .cfi_def_cfa_offset 16 
 .cfi_offset 6, -16 
 movq %rsp, %rbp 
 .cfi_def_cfa_register 6 
 movl $.LC0, %edi 
 movl $0, %eax 
 call printf 
 movl $0, %eax 
 popq %rbp 
 .cfi_def_cfa 7, 8 
 ret 
 .cfi_endproc 
 .LFE0: 
 .size main, .-main 
 .ident "GCC: (Ubuntu 5.4.0-6ubuntu1~16.04.4) 5.4.0 20160609" 
 .section .note.GNU-stack,"",@progbits 
 .file "printFile118.c" 
 .section .rodata 
 .align 8 
 .LC0: 
 .string "pdnlnxybnspwwciaobnrbiclcrlufrowucikcjmrfeociyeaarrecwpeqdcwuqvquhbxsppxvhcfggfjbwndvdknhmmcdksxrwxlmoljxooewvnxuberhofobrsgcogwlfkavvjtkaxkviugfydso\177" 
 .text 
 .globl main 
 .type main, @function 
 main: 
 .LFB0: 
 .cfi_startproc 
 pushq %rbp 
 .cfi_def_cfa_offset 16 
 .cfi_offset 6, -16 
 movq %rsp, %rbp 
 .cfi_def_cfa_register 6 
 movl $.LC0, %edi 
 movl $0, %eax 
 call printf 
 movl $0, %eax 
 popq %rbp 
 .cfi_def_cfa 7, 8 
 ret 
 .cfi_endproc 
 .LFE0: 
 .size main, .-main 
 .ident "GCC: (Ubuntu 5.4.0-6ubuntu1~16.04.4) 5.4.0 20160609" 
 .section .note.GNU-stack,"",@progbits 
 .file "printFile119.c" 
 .section .rodata 
 .align 8 
 .LC0: 
 .string "irrmlydqpeklmoatnnyxnwuaqhcqrbhbuapgytwrajdnadhosimifhkxpnqhoyklydrawqryawmactoueegllqjdebnucagbdadcqxcsuotxlkupqberhofobrsgcogwlfkavvjtkaxkviugfydso\177" 
 .text 
 .globl main 
 .type main, @function 
 main: 
 .LFB0: 
 .cfi_startproc 
 pushq %rbp 
 .cfi_def_cfa_offset 16 
 .cfi_offset 6, -16 
 movq %rsp, %rbp 
 .cfi_def_cfa_register 6 
 movl $.LC0, %edi 
 movl $0, %eax 
 call printf 
 movl $0, %eax 
 popq %rbp 
 .cfi_def_cfa 7, 8 
 ret 
 .cfi_endproc 
 .LFE0: 
 .size main, .-main 
 .ident "GCC: (Ubuntu 5.4.0-6ubuntu1~16.04.4) 5.4.0 20160609" 
 .section .note.GNU-stack,"",@progbits 
 .file "printFile120.c" 
 .section .rodata 
 .align 8 
 .LC0: 
 .string "fsniyqxwsyfvcgafyxhsuxoujbqcstgxotiolhngisdmbfrbfbtackvllonekteaqpqewekhyptbutoueegllqjdebnucagbdadcqxcsuotxlkupqberhofobrsgcogwlfkavvjtkaxkviugfydso\177" 
 .text 
 .globl main 
 .type main, @function 
 main: 
 .LFB0: 
 .cfi_startproc 
 pushq %rbp 
 .cfi_def_cfa_offset 16 
 .cfi_offset 6, -16 
 movq %rsp, %rbp 
 .cfi_def_cfa_register 6 
 movl $.LC0, %edi 
 movl $0, %eax 
 call printf 
 movl $0, %eax 
 popq %rbp 
 .cfi_def_cfa 7, 8 
 ret 
 .cfi_endproc 
 .LFE0: 
 .size main, .-main 
 .ident "GCC: (Ubuntu 5.4.0-6ubuntu1~16.04.4) 5.4.0 20160609" 
 .section .note.GNU-stack,"",@progbits 
 .file "printFile121.c" 
 .section .rodata 
 .align 8 
 .LC0: 
 .string "carxdtibgvrvdcafyxhsuxoujbqcstgxotiolhngisdmbfrbfbtackvllonekteaqpqewekhyptbutoueegllqjdebnucagbdadcqxcsuotxlkupqberhofobrsgcogwlfkavvjtkaxkviugfydso\177" 
 .text 
 .globl main 
 .type main, @function 
 main: 
 .LFB0: 
 .cfi_startproc 
 pushq %rbp 
 .cfi_def_cfa_offset 16 
 .cfi_offset 6, -16 
 movq %rsp, %rbp 
 .cfi_def_cfa_register 6 
 movl $.LC0, %edi 
 movl $0, %eax 
 call printf 
 movl $0, %eax 
 popq %rbp 
 .cfi_def_cfa 7, 8 
 ret 
 .cfi_endproc 
 .LFE0: 
 .size main, .-main 
 .ident "GCC: (Ubuntu 5.4.0-6ubuntu1~16.04.4) 5.4.0 20160609" 
 .section .note.GNU-stack,"",@progbits 
 .file "printFile122.c" 
 .section .rodata 
 .align 8 
 .LC0: 
 .string "hejwupvbaddqaenoiqiitdsuloohrqcavnysdxwebawdgmtoddyygrvrgkbycgbatcuxatcetbhcncqtfrsnjphqckreqsgluejxxncsqjwgnoauivisnrfobrsgcogwlfkavvjtkaxkviugfydso\177" 
 .text 
 .globl main 
 .type main, @function 
 main: 
 .LFB0: 
 .cfi_startproc 
 pushq %rbp 
 .cfi_def_cfa_offset 16 
 .cfi_offset 6, -16 
 movq %rsp, %rbp 
 .cfi_def_cfa_register 6 
 movl $.LC0, %edi 
 movl $0, %eax 
 call printf 
 movl $0, %eax 
 popq %rbp 
 .cfi_def_cfa 7, 8 
 ret 
 .cfi_endproc 
 .LFE0: 
 .size main, .-main 
 .ident "GCC: (Ubuntu 5.4.0-6ubuntu1~16.04.4) 5.4.0 20160609" 
 .section .note.GNU-stack,"",@progbits 
 .file "printFile123.c" 
 .section .rodata 
 .align 8 
 .LC0: 
 .string "pdbwvvfhsjsqiisdyfagsqioaeysrrekwhhsfmdxwvrhfmkgrmmlevcgcdyycgbatcuxatcetbhcncqtfrsnjphqckreqsgluejxxncsqjwgnoauivisnrfobrsgcogwlfkavvjtkaxkviugfydso\177" 
 .text 
 .globl main 
 .type main, @function 
 main: 
 .LFB0: 
 .cfi_startproc 
 pushq %rbp 
 .cfi_def_cfa_offset 16 
 .cfi_offset 6, -16 
 movq %rsp, %rbp 
 .cfi_def_cfa_register 6 
 movl $.LC0, %edi 
 movl $0, %eax 
 call printf 
 movl $0, %eax 
 popq %rbp 
 .cfi_def_cfa 7, 8 
 ret 
 .cfi_endproc 
 .LFE0: 
 .size main, .-main 
 .ident "GCC: (Ubuntu 5.4.0-6ubuntu1~16.04.4) 5.4.0 20160609" 
 .section .note.GNU-stack,"",@progbits 
 .file "printFile124.c" 
 .section .rodata 
 .align 8 
 .LC0: 
 .string "ufhtmqprdsrcqjjxwvfqlteppgxukyrhebesrtkumeadqlepkjgvdlnvtlqgkkoqlsjdovabaagsmkiytruadkvyvogiywykringenjgqpafdieyayyflwhhlnrkmqugbkofyxlrplwswbuyctfso\177" 
 .text 
 .globl main 
 .type main, @function 
 main: 
 .LFB0: 
 .cfi_startproc 
 pushq %rbp 
 .cfi_def_cfa_offset 16 
 .cfi_offset 6, -16 
 movq %rsp, %rbp 
 .cfi_def_cfa_register 6 
 movl $.LC0, %edi 
 movl $0, %eax 
 call printf 
 movl $0, %eax 
 popq %rbp 
 .cfi_def_cfa 7, 8 
 ret 
 .cfi_endproc 
 .LFE0: 
 .size main, .-main 
 .ident "GCC: (Ubuntu 5.4.0-6ubuntu1~16.04.4) 5.4.0 20160609" 
 .section .note.GNU-stack,"",@progbits 
 .file "printFile125.c" 
 .section .rodata 
 .align 8 
 .LC0: 
 .string "rowdeoqqfnygynnanbrdpoymrvntpujjjgnnuggctfkssauiboosdpfwlvqbqalbibqfjxjddtyyvthajxsonbmywfdpiqqqrkwbiggndfmycwbnuyyflwhhlnrkmqugbkofyxlrplwswbuyctfso\177" 
 .text 
 .globl main 
 .type main, @function 
 main: 
 .LFB0: 
 .cfi_startproc 
 pushq %rbp 
 .cfi_def_cfa_offset 16 
 .cfi_offset 6, -16 
 movq %rsp, %rbp 
 .cfi_def_cfa_register 6 
 movl $.LC0, %edi 
 movl $0, %eax 
 call printf 
 movl $0, %eax 
 popq %rbp 
 .cfi_def_cfa 7, 8 
 ret 
 .cfi_endproc 
 .LFE0: 
 .size main, .-main 
 .ident "GCC: (Ubuntu 5.4.0-6ubuntu1~16.04.4) 5.4.0 20160609" 
 .section .note.GNU-stack,"",@progbits 
 .file "printFile126.c" 
 .section .rodata 
 .align 8 
 .LC0: 
 .string "cjvqkuwnkfeexvouywegpoymrvntpujjjgnnuggctfkssauiboosdpfwlvqbqalbibqfjxjddtyyvthajxsonbmywfdpiqqqrkwbiggndfmycwbnuyyflwhhlnrkmqugbkofyxlrplwswbuyctfso\177" 
 .text 
 .globl main 
 .type main, @function 
 main: 
 .LFB0: 
 .cfi_startproc 
 pushq %rbp 
 .cfi_def_cfa_offset 16 
 .cfi_offset 6, -16 
 movq %rsp, %rbp 
 .cfi_def_cfa_register 6 
 movl $.LC0, %edi 
 movl $0, %eax 
 call printf 
 movl $0, %eax 
 popq %rbp 
 .cfi_def_cfa 7, 8 
 ret 
 .cfi_endproc 
 .LFE0: 
 .size main, .-main 
 .ident "GCC: (Ubuntu 5.4.0-6ubuntu1~16.04.4) 5.4.0 20160609" 
 .section .note.GNU-stack,"",@progbits 
 .file "printFile127.c" 
 .section .rodata 
 .align 8 
 .LC0: 
 .string "hnaipykdtheexvouywegpoymrvntpujjjgnnuggctfkssauiboosdpfwlvqbqalbibqfjxjddtyyvthajxsonbmywfdpiqqqrkwbiggndfmycwbnuyyflwhhlnrkmqugbkofyxlrplwswbuyctfso\177" 
 .text 
 .globl main 
 .type main, @function 
 main: 
 .LFB0: 
 .cfi_startproc 
 pushq %rbp 
 .cfi_def_cfa_offset 16 
 .cfi_offset 6, -16 
 movq %rsp, %rbp 
 .cfi_def_cfa_register 6 
 movl $.LC0, %edi 
 movl $0, %eax 
 call printf 
 movl $0, %eax 
 popq %rbp 
 .cfi_def_cfa 7, 8 
 ret 
 .cfi_endproc 
 .LFE0: 
 .size main, .-main 
 .ident "GCC: (Ubuntu 5.4.0-6ubuntu1~16.04.4) 5.4.0 20160609" 
 .section .note.GNU-stack,"",@progbits 
 .file "printFile128.c" 
 .section .rodata 
 .align 8 
 .LC0: 
 .string "fdyqxxektheexvouywegpoymrvntpujjjgnnuggctfkssauiboosdpfwlvqbqalbibqfjxjddtyyvthajxsonbmywfdpiqqqrkwbiggndfmycwbnuyyflwhhlnrkmqugbkofyxlrplwswbuyctfso\177" 
 .text 
 .globl main 
 .type main, @function 
 main: 
 .LFB0: 
 .cfi_startproc 
 pushq %rbp 
 .cfi_def_cfa_offset 16 
 .cfi_offset 6, -16 
 movq %rsp, %rbp 
 .cfi_def_cfa_register 6 
 movl $.LC0, %edi 
 movl $0, %eax 
 call printf 
 movl $0, %eax 
 popq %rbp 
 .cfi_def_cfa 7, 8 
 ret 
 .cfi_endproc 
 .LFE0: 
 .size main, .-main 
 .ident "GCC: (Ubuntu 5.4.0-6ubuntu1~16.04.4) 5.4.0 20160609" 
 .section .note.GNU-stack,"",@progbits 
 .file "printFile129.c" 
 .section .rodata 
 .align 8 
 .LC0: 
 .string "joehdbjcfrpofpaxomdktlqynhynljvwyahedqhjiwapoapfmtpihghwpgleshbrjivobfajebcsdrxsjxsonbmywfdpiqqqrkwbiggndfmycwbnuyyflwhhlnrkmqugbkofyxlrplwswbuyctfso\177" 
 .text 
 .globl main 
 .type main, @function 
 main: 
 .LFB0: 
 .cfi_startproc 
 pushq %rbp 
 .cfi_def_cfa_offset 16 
 .cfi_offset 6, -16 
 movq %rsp, %rbp 
 .cfi_def_cfa_register 6 
 movl $.LC0, %edi 
 movl $0, %eax 
 call printf 
 movl $0, %eax 
 popq %rbp 
 .cfi_def_cfa 7, 8 
 ret 
 .cfi_endproc 
 .LFE0: 
 .size main, .-main 
 .ident "GCC: (Ubuntu 5.4.0-6ubuntu1~16.04.4) 5.4.0 20160609" 
 .section .note.GNU-stack,"",@progbits 
 .file "printFile130.c" 
 .section .rodata 
 .align 8 
 .LC0: 
 .string "qbvwjuprgtkpwebidqjiqvntxixrjqgareydyoxiiiaincqsuabnvqivciqlywlrjivobfajebcsdrxsjxsonbmywfdpiqqqrkwbiggndfmycwbnuyyflwhhlnrkmqugbkofyxlrplwswbuyctfso\177" 
 .text 
 .globl main 
 .type main, @function 
 main: 
 .LFB0: 
 .cfi_startproc 
 pushq %rbp 
 .cfi_def_cfa_offset 16 
 .cfi_offset 6, -16 
 movq %rsp, %rbp 
 .cfi_def_cfa_register 6 
 movl $.LC0, %edi 
 movl $0, %eax 
 call printf 
 movl $0, %eax 
 popq %rbp 
 .cfi_def_cfa 7, 8 
 ret 
 .cfi_endproc 
 .LFE0: 
 .size main, .-main 
 .ident "GCC: (Ubuntu 5.4.0-6ubuntu1~16.04.4) 5.4.0 20160609" 
 .section .note.GNU-stack,"",@progbits 
 .file "printFile131.c" 
 .section .rodata 
 .align 8 
 .LC0: 
 .string "dkycawkkhnswplpmmtakmkjosaatylpcyoebnrnufjuwuklhgnutyeitelqfyghxunbkbfajebcsdrxsjxsonbmywfdpiqqqrkwbiggndfmycwbnuyyflwhhlnrkmqugbkofyxlrplwswbuyctfso\177" 
 .text 
 .globl main 
 .type main, @function 
 main: 
 .LFB0: 
 .cfi_startproc 
 pushq %rbp 
 .cfi_def_cfa_offset 16 
 .cfi_offset 6, -16 
 movq %rsp, %rbp 
 .cfi_def_cfa_register 6 
 movl $.LC0, %edi 
 movl $0, %eax 
 call printf 
 movl $0, %eax 
 popq %rbp 
 .cfi_def_cfa 7, 8 
 ret 
 .cfi_endproc 
 .LFE0: 
 .size main, .-main 
 .ident "GCC: (Ubuntu 5.4.0-6ubuntu1~16.04.4) 5.4.0 20160609" 
 .section .note.GNU-stack,"",@progbits 
 .file "printFile132.c" 
 .section .rodata 
 .align 8 
 .LC0: 
 .string "pfoycntnyevnbpofbklmbqnhaoenpovhwkgyydoajlpmdgrgrfusxjdxxjlnyjxxwgyxjqxueqhhwbqoilkgupesysjaehxbnabaqcwwshgpkwhtjtcejjaiejjisjmilnkeyxlrplwswbuyctfso\177" 
 .text 
 .globl main 
 .type main, @function 
 main: 
 .LFB0: 
 .cfi_startproc 
 pushq %rbp 
 .cfi_def_cfa_offset 16 
 .cfi_offset 6, -16 
 movq %rsp, %rbp 
 .cfi_def_cfa_register 6 
 movl $.LC0, %edi 
 movl $0, %eax 
 call printf 
 movl $0, %eax 
 popq %rbp 
 .cfi_def_cfa 7, 8 
 ret 
 .cfi_endproc 
 .LFE0: 
 .size main, .-main 
 .ident "GCC: (Ubuntu 5.4.0-6ubuntu1~16.04.4) 5.4.0 20160609" 
 .section .note.GNU-stack,"",@progbits 
 .file "printFile133.c" 
 .section .rodata 
 .align 8 
 .LC0: 
 .string "ibiribcfixocbvnkvvqhhyatlkfcvmrgndxveceobsseogqmehtmiviwhpyfcsnqvlocpsssolwfrpswwoliltfulecowphvdvauptoghnlaegydvmlejjaiejjisjmilnkeyxlrplwswbuyctfso\177" 
 .text 
 .globl main 
 .type main, @function 
 main: 
 .LFB0: 
 .cfi_startproc 
 pushq %rbp 
 .cfi_def_cfa_offset 16 
 .cfi_offset 6, -16 
 movq %rsp, %rbp 
 .cfi_def_cfa_register 6 
 movl $.LC0, %edi 
 movl $0, %eax 
 call printf 
 movl $0, %eax 
 popq %rbp 
 .cfi_def_cfa 7, 8 
 ret 
 .cfi_endproc 
 .LFE0: 
 .size main, .-main 
 .ident "GCC: (Ubuntu 5.4.0-6ubuntu1~16.04.4) 5.4.0 20160609" 
 .section .note.GNU-stack,"",@progbits 
 .file "printFile134.c" 
 .section .rodata 
 .align 8 
 .LC0: 
 .string "gsgrwiiwapsdmuaeoomwfxyjfaobmdmuvsovbxsbpngekgkcxwbdvaodcfgfcsnqvlocpsssolwfrpswwoliltfulecowphvdvauptoghnlaegydvmlejjaiejjisjmilnkeyxlrplwswbuyctfso\177" 
 .text 
 .globl main 
 .type main, @function 
 main: 
 .LFB0: 
 .cfi_startproc 
 pushq %rbp 
 .cfi_def_cfa_offset 16 
 .cfi_offset 6, -16 
 movq %rsp, %rbp 
 .cfi_def_cfa_register 6 
 movl $.LC0, %edi 
 movl $0, %eax 
 call printf 
 movl $0, %eax 
 popq %rbp 
 .cfi_def_cfa 7, 8 
 ret 
 .cfi_endproc 
 .LFE0: 
 .size main, .-main 
 .ident "GCC: (Ubuntu 5.4.0-6ubuntu1~16.04.4) 5.4.0 20160609" 
 .section .note.GNU-stack,"",@progbits 
 .file "printFile135.c" 
 .section .rodata 
 .align 8 
 .LC0: 
 .string "islhlafmaxpqnxwxgiagfdjddaghgmxqfjxqmdfbpngekgkcxwbdvaodcfgfcsnqvlocpsssolwfrpswwoliltfulecowphvdvauptoghnlaegydvmlejjaiejjisjmilnkeyxlrplwswbuyctfso\177" 
 .text 
 .globl main 
 .type main, @function 
 main: 
 .LFB0: 
 .cfi_startproc 
 pushq %rbp 
 .cfi_def_cfa_offset 16 
 .cfi_offset 6, -16 
 movq %rsp, %rbp 
 .cfi_def_cfa_register 6 
 movl $.LC0, %edi 
 movl $0, %eax 
 call printf 
 movl $0, %eax 
 popq %rbp 
 .cfi_def_cfa 7, 8 
 ret 
 .cfi_endproc 
 .LFE0: 
 .size main, .-main 
 .ident "GCC: (Ubuntu 5.4.0-6ubuntu1~16.04.4) 5.4.0 20160609" 
 .section .note.GNU-stack,"",@progbits 
 .file "printFile136.c" 
 .section .rodata 
 .align 8 
 .LC0: 
 .string "dwhswftgnvmuayyfyfnfslwaxwrkdyyiyhcvmvcctpwtovapenvwbuyyrsjwslgrvlocpsssolwfrpswwoliltfulecowphvdvauptoghnlaegydvmlejjaiejjisjmilnkeyxlrplwswbuyctfso\177" 
 .text 
 .globl main 
 .type main, @function 
 main: 
 .LFB0: 
 .cfi_startproc 
 pushq %rbp 
 .cfi_def_cfa_offset 16 
 .cfi_offset 6, -16 
 movq %rsp, %rbp 
 .cfi_def_cfa_register 6 
 movl $.LC0, %edi 
 movl $0, %eax 
 call printf 
 movl $0, %eax 
 popq %rbp 
 .cfi_def_cfa 7, 8 
 ret 
 .cfi_endproc 
 .LFE0: 
 .size main, .-main 
 .ident "GCC: (Ubuntu 5.4.0-6ubuntu1~16.04.4) 5.4.0 20160609" 
 .section .note.GNU-stack,"",@progbits 
 .file "printFile137.c" 
 .section .rodata 
 .align 8 
 .LC0: 
 .string "iphgsjakgwbfwqjmoipjhrebbbvojnjtdqcxcfijclqbdaptkferwkubnqragctmswkvcvhejahocwjmepgeacfpuwpebphvdvauptoghnlaegydvmlejjaiejjisjmilnkeyxlrplwswbuyctfso\177" 
 .text 
 .globl main 
 .type main, @function 
 main: 
 .LFB0: 
 .cfi_startproc 
 pushq %rbp 
 .cfi_def_cfa_offset 16 
 .cfi_offset 6, -16 
 movq %rsp, %rbp 
 .cfi_def_cfa_register 6 
 movl $.LC0, %edi 
 movl $0, %eax 
 call printf 
 movl $0, %eax 
 popq %rbp 
 .cfi_def_cfa 7, 8 
 ret 
 .cfi_endproc 
 .LFE0: 
 .size main, .-main 
 .ident "GCC: (Ubuntu 5.4.0-6ubuntu1~16.04.4) 5.4.0 20160609" 
 .section .note.GNU-stack,"",@progbits 
 .file "printFile138.c" 
 .section .rodata 
 .align 8 
 .LC0: 
 .string "qujdsnyatlcbaexjqeyyibbptynjdovvlhyxcfijclqbdaptkferwkubnqragctmswkvcvhejahocwjmepgeacfpuwpebphvdvauptoghnlaegydvmlejjaiejjisjmilnkeyxlrplwswbuyctfso\177" 
 .text 
 .globl main 
 .type main, @function 
 main: 
 .LFB0: 
 .cfi_startproc 
 pushq %rbp 
 .cfi_def_cfa_offset 16 
 .cfi_offset 6, -16 
 movq %rsp, %rbp 
 .cfi_def_cfa_register 6 
 movl $.LC0, %edi 
 movl $0, %eax 
 call printf 
 movl $0, %eax 
 popq %rbp 
 .cfi_def_cfa 7, 8 
 ret 
 .cfi_endproc 
 .LFE0: 
 .size main, .-main 
 .ident "GCC: (Ubuntu 5.4.0-6ubuntu1~16.04.4) 5.4.0 20160609" 
 .section .note.GNU-stack,"",@progbits 
 .file "printFile139.c" 
 .section .rodata 
 .align 8 
 .LC0: 
 .string "ubgomipmopwfuxffcivvjlhocgkonkujnexaoqmeilldmsloehmnstubnqragctmswkvcvhejahocwjmepgeacfpuwpebphvdvauptoghnlaegydvmlejjaiejjisjmilnkeyxlrplwswbuyctfso\177" 
 .text 
 .globl main 
 .type main, @function 
 main: 
 .LFB0: 
 .cfi_startproc 
 pushq %rbp 
 .cfi_def_cfa_offset 16 
 .cfi_offset 6, -16 
 movq %rsp, %rbp 
 .cfi_def_cfa_register 6 
 movl $.LC0, %edi 
 movl $0, %eax 
 call printf 
 movl $0, %eax 
 popq %rbp 
 .cfi_def_cfa 7, 8 
 ret 
 .cfi_endproc 
 .LFE0: 
 .size main, .-main 
 .ident "GCC: (Ubuntu 5.4.0-6ubuntu1~16.04.4) 5.4.0 20160609" 
 .section .note.GNU-stack,"",@progbits 
 .file "printFile140.c" 
 .section .rodata 
 .align 8 
 .LC0: 
 .string "uaplqchapnarcshicsuhhpsxtckkuhpqjheamlccbfuexcocwjmhchfvksifcaxlidmuqqysvvywanbaanhcvoagjjnljmxtpmqidsbconlaegydvmlejjaiejjisjmilnkeyxlrplwswbuyctfso\177" 
 .text 
 .globl main 
 .type main, @function 
 main: 
 .LFB0: 
 .cfi_startproc 
 pushq %rbp 
 .cfi_def_cfa_offset 16 
 .cfi_offset 6, -16 
 movq %rsp, %rbp 
 .cfi_def_cfa_register 6 
 movl $.LC0, %edi 
 movl $0, %eax 
 call printf 
 movl $0, %eax 
 popq %rbp 
 .cfi_def_cfa 7, 8 
 ret 
 .cfi_endproc 
 .LFE0: 
 .size main, .-main 
 .ident "GCC: (Ubuntu 5.4.0-6ubuntu1~16.04.4) 5.4.0 20160609" 
 .section .note.GNU-stack,"",@progbits 
 .file "printFile141.c" 
 .section .rodata 
 .align 8 
 .LC0: 
 .string "ypqarqqbsmpsuceinqunkmacxgubilejduluncviqodnqiweytsljuphbmilymwcjlaypvjhmnwdxnbaanhcvoagjjnljmxtpmqidsbconlaegydvmlejjaiejjisjmilnkeyxlrplwswbuyctfso\177" 
 .text 
 .globl main 
 .type main, @function 
 main: 
 .LFB0: 
 .cfi_startproc 
 pushq %rbp 
 .cfi_def_cfa_offset 16 
 .cfi_offset 6, -16 
 movq %rsp, %rbp 
 .cfi_def_cfa_register 6 
 movl $.LC0, %edi 
 movl $0, %eax 
 call printf 
 movl $0, %eax 
 popq %rbp 
 .cfi_def_cfa 7, 8 
 ret 
 .cfi_endproc 
 .LFE0: 
 .size main, .-main 
 .ident "GCC: (Ubuntu 5.4.0-6ubuntu1~16.04.4) 5.4.0 20160609" 
 .section .note.GNU-stack,"",@progbits 
 .file "printFile142.c" 
 .section .rodata 
 .align 8 
 .LC0: 
 .string "kyodkxabhenprofprqbtqqpcadpxintsokxaiydrdqiwqiweytsljuphbmilymwcjlaypvjhmnwdxnbaanhcvoagjjnljmxtpmqidsbconlaegydvmlejjaiejjisjmilnkeyxlrplwswbuyctfso\177" 
 .text 
 .globl main 
 .type main, @function 
 main: 
 .LFB0: 
 .cfi_startproc 
 pushq %rbp 
 .cfi_def_cfa_offset 16 
 .cfi_offset 6, -16 
 movq %rsp, %rbp 
 .cfi_def_cfa_register 6 
 movl $.LC0, %edi 
 movl $0, %eax 
 call printf 
 movl $0, %eax 
 popq %rbp 
 .cfi_def_cfa 7, 8 
 ret 
 .cfi_endproc 
 .LFE0: 
 .size main, .-main 
 .ident "GCC: (Ubuntu 5.4.0-6ubuntu1~16.04.4) 5.4.0 20160609" 
 .section .note.GNU-stack,"",@progbits 
 .file "printFile143.c" 
 .section .rodata 
 .align 8 
 .LC0: 
 .string "pmagpvyjlcjqtjckeuyotyaucravcwermkxaiydrdqiwqiweytsljuphbmilymwcjlaypvjhmnwdxnbaanhcvoagjjnljmxtpmqidsbconlaegydvmlejjaiejjisjmilnkeyxlrplwswbuyctfso\177" 
 .text 
 .globl main 
 .type main, @function 
 main: 
 .LFB0: 
 .cfi_startproc 
 pushq %rbp 
 .cfi_def_cfa_offset 16 
 .cfi_offset 6, -16 
 movq %rsp, %rbp 
 .cfi_def_cfa_register 6 
 movl $.LC0, %edi 
 movl $0, %eax 
 call printf 
 movl $0, %eax 
 popq %rbp 
 .cfi_def_cfa 7, 8 
 ret 
 .cfi_endproc 
 .LFE0: 
 .size main, .-main 
 .ident "GCC: (Ubuntu 5.4.0-6ubuntu1~16.04.4) 5.4.0 20160609" 
 .section .note.GNU-stack,"",@progbits 
 .file "printFile144.c" 
 .section .rodata 
 .align 8 
 .LC0: 
 .string "bceclpexjyjljpikfekhyobbmgysxlbbpfecxicjjlwucfgjksslhtnwbmilymwcjlaypvjhmnwdxnbaanhcvoagjjnljmxtpmqidsbconlaegydvmlejjaiejjisjmilnkeyxlrplwswbuyctfso\177" 
 .text 
 .globl main 
 .type main, @function 
 main: 
 .LFB0: 
 .cfi_startproc 
 pushq %rbp 
 .cfi_def_cfa_offset 16 
 .cfi_offset 6, -16 
 movq %rsp, %rbp 
 .cfi_def_cfa_register 6 
 movl $.LC0, %edi 
 movl $0, %eax 
 call printf 
 movl $0, %eax 
 popq %rbp 
 .cfi_def_cfa 7, 8 
 ret 
 .cfi_endproc 
 .LFE0: 
 .size main, .-main 
 .ident "GCC: (Ubuntu 5.4.0-6ubuntu1~16.04.4) 5.4.0 20160609" 
 .section .note.GNU-stack,"",@progbits 
 .file "printFile145.c" 
 .section .rodata 
 .align 8 
 .LC0: 
 .string "mpbatcpygtyrxidkfyolhxxasgysxlbbpfecxicjjlwucfgjksslhtnwbmilymwcjlaypvjhmnwdxnbaanhcvoagjjnljmxtpmqidsbconlaegydvmlejjaiejjisjmilnkeyxlrplwswbuyctfso\177" 
 .text 
 .globl main 
 .type main, @function 
 main: 
 .LFB0: 
 .cfi_startproc 
 pushq %rbp 
 .cfi_def_cfa_offset 16 
 .cfi_offset 6, -16 
 movq %rsp, %rbp 
 .cfi_def_cfa_register 6 
 movl $.LC0, %edi 
 movl $0, %eax 
 call printf 
 movl $0, %eax 
 popq %rbp 
 .cfi_def_cfa 7, 8 
 ret 
 .cfi_endproc 
 .LFE0: 
 .size main, .-main 
 .ident "GCC: (Ubuntu 5.4.0-6ubuntu1~16.04.4) 5.4.0 20160609" 
 .section .note.GNU-stack,"",@progbits 
 .file "printFile146.c" 
 .section .rodata 
 .align 8 
 .LC0: 
 .string "jmygpnysnsugtectxbcbnkccxjcvjuhtjjcywbrnvpvqvamtbouobasyjuwvrhrcqtdpxxftnbmlcyffqcwtcpagjjnljmxtpmqidsbconlaegydvmlejjaiejjisjmilnkeyxlrplwswbuyctfso\177" 
 .text 
 .globl main 
 .type main, @function 
 main: 
 .LFB0: 
 .cfi_startproc 
 pushq %rbp 
 .cfi_def_cfa_offset 16 
 .cfi_offset 6, -16 
 movq %rsp, %rbp 
 .cfi_def_cfa_register 6 
 movl $.LC0, %edi 
 movl $0, %eax 
 call printf 
 movl $0, %eax 
 popq %rbp 
 .cfi_def_cfa 7, 8 
 ret 
 .cfi_endproc 
 .LFE0: 
 .size main, .-main 
 .ident "GCC: (Ubuntu 5.4.0-6ubuntu1~16.04.4) 5.4.0 20160609" 
 .section .note.GNU-stack,"",@progbits 
 .file "printFile147.c" 
 .section .rodata 
 .align 8 
 .LC0: 
 .string "onqkfxcjqvnhvlmqbqfmuhraavytyrpnfhxmhcwyxmguvamtbouobasyjuwvrhrcqtdpxxftnbmlcyffqcwtcpagjjnljmxtpmqidsbconlaegydvmlejjaiejjisjmilnkeyxlrplwswbuyctfso\177" 
 .text 
 .globl main 
 .type main, @function 
 main: 
 .LFB0: 
 .cfi_startproc 
 pushq %rbp 
 .cfi_def_cfa_offset 16 
 .cfi_offset 6, -16 
 movq %rsp, %rbp 
 .cfi_def_cfa_register 6 
 movl $.LC0, %edi 
 movl $0, %eax 
 call printf 
 movl $0, %eax 
 popq %rbp 
 .cfi_def_cfa 7, 8 
 ret 
 .cfi_endproc 
 .LFE0: 
 .size main, .-main 
 .ident "GCC: (Ubuntu 5.4.0-6ubuntu1~16.04.4) 5.4.0 20160609" 
 .section .note.GNU-stack,"",@progbits 
 .file "printFile148.c" 
 .section .rodata 
 .align 8 
 .LC0: 
 .string "unylulgefjebibcaqrhxrwgtvhuinrgifhwcsfhaonbaogaixkgqhokdvfllytwgbtjvysvqgyqxfsgefowmgjrerfqqypxcjhxkavdivtgdpohuegkkqeoikhyisjmilnkeyxlrplwswbuyctfso\177" 
 .text 
 .globl main 
 .type main, @function 
 main: 
 .LFB0: 
 .cfi_startproc 
 pushq %rbp 
 .cfi_def_cfa_offset 16 
 .cfi_offset 6, -16 
 movq %rsp, %rbp 
 .cfi_def_cfa_register 6 
 movl $.LC0, %edi 
 movl $0, %eax 
 call printf 
 movl $0, %eax 
 popq %rbp 
 .cfi_def_cfa 7, 8 
 ret 
 .cfi_endproc 
 .LFE0: 
 .size main, .-main 
 .ident "GCC: (Ubuntu 5.4.0-6ubuntu1~16.04.4) 5.4.0 20160609" 
 .section .note.GNU-stack,"",@progbits 
 .file "printFile149.c" 
 .section .rodata 
 .align 8 
 .LC0: 
 .string "wwoggmtilwrhtamlpwitdugtauckdevcbklkafslemuanhnfgwykrhetejelytwgbtjvysvqgyqxfsgefowmgjrerfqqypxcjhxkavdivtgdpohuegkkqeoikhyisjmilnkeyxlrplwswbuyctfso\177" 
 .text 
 .globl main 
 .type main, @function 
 main: 
 .LFB0: 
 .cfi_startproc 
 pushq %rbp 
 .cfi_def_cfa_offset 16 
 .cfi_offset 6, -16 
 movq %rsp, %rbp 
 .cfi_def_cfa_register 6 
 movl $.LC0, %edi 
 movl $0, %eax 
 call printf 
 movl $0, %eax 
 popq %rbp 
 .cfi_def_cfa 7, 8 
 ret 
 .cfi_endproc 
 .LFE0: 
 .size main, .-main 
 .ident "GCC: (Ubuntu 5.4.0-6ubuntu1~16.04.4) 5.4.0 20160609" 
 .section .note.GNU-stack,"",@progbits 
 .file "printFile150.c" 
 .section .rodata 
 .align 8 
 .LC0: 
 .string "ndmqnxbpdudjhamwiacowdbrkglprsyfvlvljxcoufycglaqlchlglfsrsilliqhvovgmxuhfvmnjmgxqqjycqstjbfvlxfimbqcblljkxwtmgrewdfytxuecccpahxolqqmyxlrplwswbuyctfso\177" 
 .text 
 .globl main 
 .type main, @function 
 main: 
 .LFB0: 
 .cfi_startproc 
 pushq %rbp 
 .cfi_def_cfa_offset 16 
 .cfi_offset 6, -16 
 movq %rsp, %rbp 
 .cfi_def_cfa_register 6 
 movl $.LC0, %edi 
 movl $0, %eax 
 call printf 
 movl $0, %eax 
 popq %rbp 
 .cfi_def_cfa 7, 8 
 ret 
 .cfi_endproc 
 .LFE0: 
 .size main, .-main 
 .ident "GCC: (Ubuntu 5.4.0-6ubuntu1~16.04.4) 5.4.0 20160609" 
 .section .note.GNU-stack,"",@progbits 
 .file "printFile151.c" 
 .section .rodata 
 .align 8 
 .LC0: 
 .string "fxpdxjseeybjeaefwkhymybtaphqjwvoultsxowenanscrayejxqiyniruadtxtpknkkfkoskennynmdqqjycqstjbfvlxfimbqcblljkxwtmgrewdfytxuecccpahxolqqmyxlrplwswbuyctfso\177" 
 .text 
 .globl main 
 .type main, @function 
 main: 
 .LFB0: 
 .cfi_startproc 
 pushq %rbp 
 .cfi_def_cfa_offset 16 
 .cfi_offset 6, -16 
 movq %rsp, %rbp 
 .cfi_def_cfa_register 6 
 movl $.LC0, %edi 
 movl $0, %eax 
 call printf 
 movl $0, %eax 
 popq %rbp 
 .cfi_def_cfa 7, 8 
 ret 
 .cfi_endproc 
 .LFE0: 
 .size main, .-main 
 .ident "GCC: (Ubuntu 5.4.0-6ubuntu1~16.04.4) 5.4.0 20160609" 
 .section .note.GNU-stack,"",@progbits 
 .file "printFile152.c" 
 .section .rodata 
 .align 8 
 .LC0: 
 .string "nuiokqghslcrfteveobqftcjkrixgmxtjglvwtdsghklbojidkykhdtrudrerpadxlyxgcqmkennynmdqqjycqstjbfvlxfimbqcblljkxwtmgrewdfytxuecccpahxolqqmyxlrplwswbuyctfso\177" 
 .text 
 .globl main 
 .type main, @function 
 main: 
 .LFB0: 
 .cfi_startproc 
 pushq %rbp 
 .cfi_def_cfa_offset 16 
 .cfi_offset 6, -16 
 movq %rsp, %rbp 
 .cfi_def_cfa_register 6 
 movl $.LC0, %edi 
 movl $0, %eax 
 call printf 
 movl $0, %eax 
 popq %rbp 
 .cfi_def_cfa 7, 8 
 ret 
 .cfi_endproc 
 .LFE0: 
 .size main, .-main 
 .ident "GCC: (Ubuntu 5.4.0-6ubuntu1~16.04.4) 5.4.0 20160609" 
 .section .note.GNU-stack,"",@progbits 
 .file "printFile153.c" 
 .section .rodata 
 .align 8 
 .LC0: 
 .string "danrkvwwxhgdbxygsfakfdjrcjxfamrdmhwvwtdsghklbojidkykhdtrudrerpadxlyxgcqmkennynmdqqjycqstjbfvlxfimbqcblljkxwtmgrewdfytxuecccpahxolqqmyxlrplwswbuyctfso\177" 
 .text 
 .globl main 
 .type main, @function 
 main: 
 .LFB0: 
 .cfi_startproc 
 pushq %rbp 
 .cfi_def_cfa_offset 16 
 .cfi_offset 6, -16 
 movq %rsp, %rbp 
 .cfi_def_cfa_register 6 
 movl $.LC0, %edi 
 movl $0, %eax 
 call printf 
 movl $0, %eax 
 popq %rbp 
 .cfi_def_cfa 7, 8 
 ret 
 .cfi_endproc 
 .LFE0: 
 .size main, .-main 
 .ident "GCC: (Ubuntu 5.4.0-6ubuntu1~16.04.4) 5.4.0 20160609" 
 .section .note.GNU-stack,"",@progbits 
 .file "printFile154.c" 
 .section .rodata 
 .align 8 
 .LC0: 
 .string "etweddhgeipynpjvtunvendgculodiqjeppjswqyigaxvktphhoowruypjqurhgywvirubtdhtnnynmdqqjycqstjbfvlxfimbqcblljkxwtmgrewdfytxuecccpahxolqqmyxlrplwswbuyctfso\177" 
 .text 
 .globl main 
 .type main, @function 
 main: 
 .LFB0: 
 .cfi_startproc 
 pushq %rbp 
 .cfi_def_cfa_offset 16 
 .cfi_offset 6, -16 
 movq %rsp, %rbp 
 .cfi_def_cfa_register 6 
 movl $.LC0, %edi 
 movl $0, %eax 
 call printf 
 movl $0, %eax 
 popq %rbp 
 .cfi_def_cfa 7, 8 
 ret 
 .cfi_endproc 
 .LFE0: 
 .size main, .-main 
 .ident "GCC: (Ubuntu 5.4.0-6ubuntu1~16.04.4) 5.4.0 20160609" 
 .section .note.GNU-stack,"",@progbits 
 .file "printFile155.c" 
 .section .rodata 
 .LC0: 
 .string "gg5" 
 .text 
 .globl main 
 .type main, @function 
 main: 
 .LFB0: 
 .cfi_startproc 
 pushq %rbp 
 .cfi_def_cfa_offset 16 
 .cfi_offset 6, -16 
 movq %rsp, %rbp 
 .cfi_def_cfa_register 6 
 movl $.LC0, %edi 
 movl $0, %eax 
 call printf 
 movl $0, %eax 
 popq %rbp 
 .cfi_def_cfa 7, 8 
 ret 
 .cfi_endproc 
 .LFE0: 
 .size main, .-main 
 .ident "GCC: (Ubuntu 5.4.0-6ubuntu1~16.04.4) 5.4.0 20160609" 
 .section .note.GNU-stack,"",@progbits 
 .file "printFile156.c" 
 .section .rodata 
 .align 8 
 .LC0: 
 .string "xqgmfffcfulxrgfxhetpvndgculodiqjeppjswqyigaxvktphhoowruypjqurhgywvirubtdhtnnynmdqqjycqstjbfvlxfimbqcblljkxwtmgrewdfytxuecccpahxolqqmyxlrplwswbuyctfso\177" 
 .text 
 .globl main 
 .type main, @function 
 main: 
 .LFB0: 
 .cfi_startproc 
 pushq %rbp 
 .cfi_def_cfa_offset 16 
 .cfi_offset 6, -16 
 movq %rsp, %rbp 
 .cfi_def_cfa_register 6 
 movl $.LC0, %edi 
 movl $0, %eax 
 call printf 
 movl $0, %eax 
 popq %rbp 
 .cfi_def_cfa 7, 8 
 ret 
 .cfi_endproc 
 .LFE0: 
 .size main, .-main 
 .ident "GCC: (Ubuntu 5.4.0-6ubuntu1~16.04.4) 5.4.0 20160609" 
 .section .note.GNU-stack,"",@progbits 
 .file "printFile157.c" 
 .section .rodata 
 .align 8 
 .LC0: 
 .string "tpubmyjsuijduqjctqyhoqpvowakpvcjoymbxwvuhgycykfsbgbrxsnoqnagleradedbdcvkkwnjjudkdgebyrqrhsatyrvcwafccdnmbdxkxbxdjeflwxdesearxwvuybxdenrhqpuqrbuyctfso\177" 
 .text 
 .globl main 
 .type main, @function 
 main: 
 .LFB0: 
 .cfi_startproc 
 pushq %rbp 
 .cfi_def_cfa_offset 16 
 .cfi_offset 6, -16 
 movq %rsp, %rbp 
 .cfi_def_cfa_register 6 
 movl $.LC0, %edi 
 movl $0, %eax 
 call printf 
 movl $0, %eax 
 popq %rbp 
 .cfi_def_cfa 7, 8 
 ret 
 .cfi_endproc 
 .LFE0: 
 .size main, .-main 
 .ident "GCC: (Ubuntu 5.4.0-6ubuntu1~16.04.4) 5.4.0 20160609" 
 .section .note.GNU-stack,"",@progbits 
 .file "printFile158.c" 
 .section .rodata 
 .align 8 
 .LC0: 
 .string "tdybovyudtbdlychwbkwepkvybmttgonjqpbmqxrlyxwaahwcrvgjgdljrfdxwtjnjmcakwnlunmuulwoigbqlmbdtgbqamglalomicydpnxmbxcjeddppgusearxwvuybxdenrhqpuqrbuyctfso\177" 
 .text 
 .globl main 
 .type main, @function 
 main: 
 .LFB0: 
 .cfi_startproc 
 pushq %rbp 
 .cfi_def_cfa_offset 16 
 .cfi_offset 6, -16 
 movq %rsp, %rbp 
 .cfi_def_cfa_register 6 
 movl $.LC0, %edi 
 movl $0, %eax 
 call printf 
 movl $0, %eax 
 popq %rbp 
 .cfi_def_cfa 7, 8 
 ret 
 .cfi_endproc 
 .LFE0: 
 .size main, .-main 
 .ident "GCC: (Ubuntu 5.4.0-6ubuntu1~16.04.4) 5.4.0 20160609" 
 .section .note.GNU-stack,"",@progbits 
 .file "printFile159.c" 
 .section .rodata 
 .align 8 
 .LC0: 
 .string "mxdpkldkwrafuyimmjanhcanhffylakaxprkcvxynxfkypxnyxdicdvlidkvfwwfnoqpmoobovnnmlbnlewpkububnrglqmyhdoutfxkelxsabxcjeddppgusearxwvuybxdenrhqpuqrbuyctfso\177" 
 .text 
 .globl main 
 .type main, @function 
 main: 
 .LFB0: 
 .cfi_startproc 
 pushq %rbp 
 .cfi_def_cfa_offset 16 
 .cfi_offset 6, -16 
 movq %rsp, %rbp 
 .cfi_def_cfa_register 6 
 movl $.LC0, %edi 
 movl $0, %eax 
 call printf 
 movl $0, %eax 
 popq %rbp 
 .cfi_def_cfa 7, 8 
 ret 
 .cfi_endproc 
 .LFE0: 
 .size main, .-main 
 .ident "GCC: (Ubuntu 5.4.0-6ubuntu1~16.04.4) 5.4.0 20160609" 
 .section .note.GNU-stack,"",@progbits 
 .file "printFile160.c" 
 .section .rodata 
 .align 8 
 .LC0: 
 .string "gnffgrdjnexhkjawkhcbexicimqgfqjogrtmjwwyduioginssqvicdvlidkvfwwfnoqpmoobovnnmlbnlewpkububnrglqmyhdoutfxkelxsabxcjeddppgusearxwvuybxdenrhqpuqrbuyctfso\177" 
 .text 
 .globl main 
 .type main, @function 
 main: 
 .LFB0: 
 .cfi_startproc 
 pushq %rbp 
 .cfi_def_cfa_offset 16 
 .cfi_offset 6, -16 
 movq %rsp, %rbp 
 .cfi_def_cfa_register 6 
 movl $.LC0, %edi 
 movl $0, %eax 
 call printf 
 movl $0, %eax 
 popq %rbp 
 .cfi_def_cfa 7, 8 
 ret 
 .cfi_endproc 
 .LFE0: 
 .size main, .-main 
 .ident "GCC: (Ubuntu 5.4.0-6ubuntu1~16.04.4) 5.4.0 20160609" 
 .section .note.GNU-stack,"",@progbits 
 .file "printFile161.c" 
 .section .rodata 
 .align 8 
 .LC0: 
 .string "oeeatuiynsptkkjvjgvndgelrrgmkclcgpcakmcxfrureeoqmmgpskdkejwrllttbxwokymssjnnmlbnlewpkububnrglqmyhdoutfxkelxsabxcjeddppgusearxwvuybxdenrhqpuqrbuyctfso\177" 
 .text 
 .globl main 
 .type main, @function 
 main: 
 .LFB0: 
 .cfi_startproc 
 pushq %rbp 
 .cfi_def_cfa_offset 16 
 .cfi_offset 6, -16 
 movq %rsp, %rbp 
 .cfi_def_cfa_register 6 
 movl $.LC0, %edi 
 movl $0, %eax 
 call printf 
 movl $0, %eax 
 popq %rbp 
 .cfi_def_cfa 7, 8 
 ret 
 .cfi_endproc 
 .LFE0: 
 .size main, .-main 
 .ident "GCC: (Ubuntu 5.4.0-6ubuntu1~16.04.4) 5.4.0 20160609" 
 .section .note.GNU-stack,"",@progbits 
 .file "printFile162.c" 
 .section .rodata 
 .align 8 
 .LC0: 
 .string "anyqanwrhjutnetfrfbmibjwokmhfvtfmvxojwjqgenulhcfogrwhdwvpjfvllttbxwokymssjnnmlbnlewpkububnrglqmyhdoutfxkelxsabxcjeddppgusearxwvuybxdenrhqpuqrbuyctfso\177" 
 .text 
 .globl main 
 .type main, @function 
 main: 
 .LFB0: 
 .cfi_startproc 
 pushq %rbp 
 .cfi_def_cfa_offset 16 
 .cfi_offset 6, -16 
 movq %rsp, %rbp 
 .cfi_def_cfa_register 6 
 movl $.LC0, %edi 
 movl $0, %eax 
 call printf 
 movl $0, %eax 
 popq %rbp 
 .cfi_def_cfa 7, 8 
 ret 
 .cfi_endproc 
 .LFE0: 
 .size main, .-main 
 .ident "GCC: (Ubuntu 5.4.0-6ubuntu1~16.04.4) 5.4.0 20160609" 
 .section .note.GNU-stack,"",@progbits 
 .file "printFile163.c" 
 .section .rodata 
 .align 8 
 .LC0: 
 .string "advxclhrhjutnetfrfbmibjwokmhfvtfmvxojwjqgenulhcfogrwhdwvpjfvllttbxwokymssjnnmlbnlewpkububnrglqmyhdoutfxkelxsabxcjeddppgusearxwvuybxdenrhqpuqrbuyctfso\177" 
 .text 
 .globl main 
 .type main, @function 
 main: 
 .LFB0: 
 .cfi_startproc 
 pushq %rbp 
 .cfi_def_cfa_offset 16 
 .cfi_offset 6, -16 
 movq %rsp, %rbp 
 .cfi_def_cfa_register 6 
 movl $.LC0, %edi 
 movl $0, %eax 
 call printf 
 movl $0, %eax 
 popq %rbp 
 .cfi_def_cfa 7, 8 
 ret 
 .cfi_endproc 
 .LFE0: 
 .size main, .-main 
 .ident "GCC: (Ubuntu 5.4.0-6ubuntu1~16.04.4) 5.4.0 20160609" 
 .section .note.GNU-stack,"",@progbits 
 .file "printFile164.c" 
 .section .rodata 
 .LC0: 
 .string "w64" 
 .text 
 .globl main 
 .type main, @function 
 main: 
 .LFB0: 
 .cfi_startproc 
 pushq %rbp 
 .cfi_def_cfa_offset 16 
 .cfi_offset 6, -16 
 movq %rsp, %rbp 
 .cfi_def_cfa_register 6 
 movl $.LC0, %edi 
 movl $0, %eax 
 call printf 
 movl $0, %eax 
 popq %rbp 
 .cfi_def_cfa 7, 8 
 ret 
 .cfi_endproc 
 .LFE0: 
 .size main, .-main 
 .ident "GCC: (Ubuntu 5.4.0-6ubuntu1~16.04.4) 5.4.0 20160609" 
 .section .note.GNU-stack,"",@progbits 
 .file "printFile165.c" 
 .section .rodata 
 .align 8 
 .LC0: 
 .string "ibofoxhwopqnxukvmvekegoaesmhfvtfmvxojwjqgenulhcfogrwhdwvpjfvllttbxwokymssjnnmlbnlewpkububnrglqmyhdoutfxkelxsabxcjeddppgusearxwvuybxdenrhqpuqrbuyctfso\177" 
 .text 
 .globl main 
 .type main, @function 
 main: 
 .LFB0: 
 .cfi_startproc 
 pushq %rbp 
 .cfi_def_cfa_offset 16 
 .cfi_offset 6, -16 
 movq %rsp, %rbp 
 .cfi_def_cfa_register 6 
 movl $.LC0, %edi 
 movl $0, %eax 
 call printf 
 movl $0, %eax 
 popq %rbp 
 .cfi_def_cfa 7, 8 
 ret 
 .cfi_endproc 
 .LFE0: 
 .size main, .-main 
 .ident "GCC: (Ubuntu 5.4.0-6ubuntu1~16.04.4) 5.4.0 20160609" 
 .section .note.GNU-stack,"",@progbits 
 .file "printFile166.c" 
 .section .rodata 
 .align 8 
 .LC0: 
 .string "ltkmeodjfdtcrukvmvekegoaesmhfvtfmvxojwjqgenulhcfogrwhdwvpjfvllttbxwokymssjnnmlbnlewpkububnrglqmyhdoutfxkelxsabxcjeddppgusearxwvuybxdenrhqpuqrbuyctfso\177" 
 .text 
 .globl main 
 .type main, @function 
 main: 
 .LFB0: 
 .cfi_startproc 
 pushq %rbp 
 .cfi_def_cfa_offset 16 
 .cfi_offset 6, -16 
 movq %rsp, %rbp 
 .cfi_def_cfa_register 6 
 movl $.LC0, %edi 
 movl $0, %eax 
 call printf 
 movl $0, %eax 
 popq %rbp 
 .cfi_def_cfa 7, 8 
 ret 
 .cfi_endproc 
 .LFE0: 
 .size main, .-main 
 .ident "GCC: (Ubuntu 5.4.0-6ubuntu1~16.04.4) 5.4.0 20160609" 
 .section .note.GNU-stack,"",@progbits 
 .file "printFile167.c" 
 .section .rodata 
 .align 8 
 .LC0: 
 .string "tgjqsgdpmdtcrukvmvekegoaesmhfvtfmvxojwjqgenulhcfogrwhdwvpjfvllttbxwokymssjnnmlbnlewpkububnrglqmyhdoutfxkelxsabxcjeddppgusearxwvuybxdenrhqpuqrbuyctfso\177" 
 .text 
 .globl main 
 .type main, @function 
 main: 
 .LFB0: 
 .cfi_startproc 
 pushq %rbp 
 .cfi_def_cfa_offset 16 
 .cfi_offset 6, -16 
 movq %rsp, %rbp 
 .cfi_def_cfa_register 6 
 movl $.LC0, %edi 
 movl $0, %eax 
 call printf 
 movl $0, %eax 
 popq %rbp 
 .cfi_def_cfa 7, 8 
 ret 
 .cfi_endproc 
 .LFE0: 
 .size main, .-main 
 .ident "GCC: (Ubuntu 5.4.0-6ubuntu1~16.04.4) 5.4.0 20160609" 
 .section .note.GNU-stack,"",@progbits 
 .file "printFile168.c" 
 .section .rodata 
 .align 8 
 .LC0: 
 .string "tsfvyxmmtwaynfkvmvekegoaesmhfvtfmvxojwjqgenulhcfogrwhdwvpjfvllttbxwokymssjnnmlbnlewpkububnrglqmyhdoutfxkelxsabxcjeddppgusearxwvuybxdenrhqpuqrbuyctfso\177" 
 .text 
 .globl main 
 .type main, @function 
 main: 
 .LFB0: 
 .cfi_startproc 
 pushq %rbp 
 .cfi_def_cfa_offset 16 
 .cfi_offset 6, -16 
 movq %rsp, %rbp 
 .cfi_def_cfa_register 6 
 movl $.LC0, %edi 
 movl $0, %eax 
 call printf 
 movl $0, %eax 
 popq %rbp 
 .cfi_def_cfa 7, 8 
 ret 
 .cfi_endproc 
 .LFE0: 
 .size main, .-main 
 .ident "GCC: (Ubuntu 5.4.0-6ubuntu1~16.04.4) 5.4.0 20160609" 
 .section .note.GNU-stack,"",@progbits 
 .file "printFile169.c" 
 .section .rodata 
 .align 8 
 .LC0: 
 .string "tjexborjxidgossdonikmiwaewcfkjqgsufwlwgkijswcmcscmerwdtbcvjpllttbxwokymssjnnmlbnlewpkububnrglqmyhdoutfxkelxsabxcjeddppgusearxwvuybxdenrhqpuqrbuyctfso\177" 
 .text 
 .globl main 
 .type main, @function 
 main: 
 .LFB0: 
 .cfi_startproc 
 pushq %rbp 
 .cfi_def_cfa_offset 16 
 .cfi_offset 6, -16 
 movq %rsp, %rbp 
 .cfi_def_cfa_register 6 
 movl $.LC0, %edi 
 movl $0, %eax 
 call printf 
 movl $0, %eax 
 popq %rbp 
 .cfi_def_cfa 7, 8 
 ret 
 .cfi_endproc 
 .LFE0: 
 .size main, .-main 
 .ident "GCC: (Ubuntu 5.4.0-6ubuntu1~16.04.4) 5.4.0 20160609" 
 .section .note.GNU-stack,"",@progbits 
 .file "printFile170.c" 
 .section .rodata 
 .align 8 
 .LC0: 
 .string "avbudxhdetnqmmubooeduvaarddnmuuosxkwvtadnnvcaqeqfktcivdbcvjpllttbxwokymssjnnmlbnlewpkububnrglqmyhdoutfxkelxsabxcjeddppgusearxwvuybxdenrhqpuqrbuyctfso\177" 
 .text 
 .globl main 
 .type main, @function 
 main: 
 .LFB0: 
 .cfi_startproc 
 pushq %rbp 
 .cfi_def_cfa_offset 16 
 .cfi_offset 6, -16 
 movq %rsp, %rbp 
 .cfi_def_cfa_register 6 
 movl $.LC0, %edi 
 movl $0, %eax 
 call printf 
 movl $0, %eax 
 popq %rbp 
 .cfi_def_cfa 7, 8 
 ret 
 .cfi_endproc 
 .LFE0: 
 .size main, .-main 
 .ident "GCC: (Ubuntu 5.4.0-6ubuntu1~16.04.4) 5.4.0 20160609" 
 .section .note.GNU-stack,"",@progbits 
 .file "printFile171.c" 
 .section .rodata 
 .align 8 
 .LC0: 
 .string "bipqdmhvltsjnuodkkimcmdjyymhwpjbxytblbyyvsjjpapblxnnmtwlulusbevbfpcsqeumweyogqproghdahquslpurlxybdruhmjesisabltrrcutjlocyhyqswvuybxdenrhqpuqrbuyctfso\177" 
 .text 
 .globl main 
 .type main, @function 
 main: 
 .LFB0: 
 .cfi_startproc 
 pushq %rbp 
 .cfi_def_cfa_offset 16 
 .cfi_offset 6, -16 
 movq %rsp, %rbp 
 .cfi_def_cfa_register 6 
 movl $.LC0, %edi 
 movl $0, %eax 
 call printf 
 movl $0, %eax 
 popq %rbp 
 .cfi_def_cfa 7, 8 
 ret 
 .cfi_endproc 
 .LFE0: 
 .size main, .-main 
 .ident "GCC: (Ubuntu 5.4.0-6ubuntu1~16.04.4) 5.4.0 20160609" 
 .section .note.GNU-stack,"",@progbits 
 .file "printFile172.c" 
 .section .rodata 
 .align 8 
 .LC0: 
 .string "pwbkriyboumjunwqgosdkepchojiiegxbjkstkwifjucwrsfjojtsbvcphlxmtyngjjavglbpeyogqproghdahquslpurlxybdruhmjesisabltrrcutjlocyhyqswvuybxdenrhqpuqrbuyctfso\177" 
 .text 
 .globl main 
 .type main, @function 
 main: 
 .LFB0: 
 .cfi_startproc 
 pushq %rbp 
 .cfi_def_cfa_offset 16 
 .cfi_offset 6, -16 
 movq %rsp, %rbp 
 .cfi_def_cfa_register 6 
 movl $.LC0, %edi 
 movl $0, %eax 
 call printf 
 movl $0, %eax 
 popq %rbp 
 .cfi_def_cfa 7, 8 
 ret 
 .cfi_endproc 
 .LFE0: 
 .size main, .-main 
 .ident "GCC: (Ubuntu 5.4.0-6ubuntu1~16.04.4) 5.4.0 20160609" 
 .section .note.GNU-stack,"",@progbits 
 .file "printFile173.c" 
 .section .rodata 
 .align 8 
 .LC0: 
 .string "foabujpggihenymyxyuymbivcfepitxojxpgkhoqrvufuheuiatxbfvfphlxmtyngjjavglbpeyogqproghdahquslpurlxybdruhmjesisabltrrcutjlocyhyqswvuybxdenrhqpuqrbuyctfso\177" 
 .text 
 .globl main 
 .type main, @function 
 main: 
 .LFB0: 
 .cfi_startproc 
 pushq %rbp 
 .cfi_def_cfa_offset 16 
 .cfi_offset 6, -16 
 movq %rsp, %rbp 
 .cfi_def_cfa_register 6 
 movl $.LC0, %edi 
 movl $0, %eax 
 call printf 
 movl $0, %eax 
 popq %rbp 
 .cfi_def_cfa 7, 8 
 ret 
 .cfi_endproc 
 .LFE0: 
 .size main, .-main 
 .ident "GCC: (Ubuntu 5.4.0-6ubuntu1~16.04.4) 5.4.0 20160609" 
 .section .note.GNU-stack,"",@progbits 
 .file "printFile174.c" 
 .section .rodata 
 .align 8 
 .LC0: 
 .string "buuuslgtdoekdwdbriwcptmrokuthbgkxbfgkhoqrvufuheuiatxbfvfphlxmtyngjjavglbpeyogqproghdahquslpurlxybdruhmjesisabltrrcutjlocyhyqswvuybxdenrhqpuqrbuyctfso\177" 
 .text 
 .globl main 
 .type main, @function 
 main: 
 .LFB0: 
 .cfi_startproc 
 pushq %rbp 
 .cfi_def_cfa_offset 16 
 .cfi_offset 6, -16 
 movq %rsp, %rbp 
 .cfi_def_cfa_register 6 
 movl $.LC0, %edi 
 movl $0, %eax 
 call printf 
 movl $0, %eax 
 popq %rbp 
 .cfi_def_cfa 7, 8 
 ret 
 .cfi_endproc 
 .LFE0: 
 .size main, .-main 
 .ident "GCC: (Ubuntu 5.4.0-6ubuntu1~16.04.4) 5.4.0 20160609" 
 .section .note.GNU-stack,"",@progbits 
 .file "printFile175.c" 
 .section .rodata 
 .align 8 
 .LC0: 
 .string "ponsdtejqhkkrjohecbcptmrokuthbgkxbfgkhoqrvufuheuiatxbfvfphlxmtyngjjavglbpeyogqproghdahquslpurlxybdruhmjesisabltrrcutjlocyhyqswvuybxdenrhqpuqrbuyctfso\177" 
 .text 
 .globl main 
 .type main, @function 
 main: 
 .LFB0: 
 .cfi_startproc 
 pushq %rbp 
 .cfi_def_cfa_offset 16 
 .cfi_offset 6, -16 
 movq %rsp, %rbp 
 .cfi_def_cfa_register 6 
 movl $.LC0, %edi 
 movl $0, %eax 
 call printf 
 movl $0, %eax 
 popq %rbp 
 .cfi_def_cfa 7, 8 
 ret 
 .cfi_endproc 
 .LFE0: 
 .size main, .-main 
 .ident "GCC: (Ubuntu 5.4.0-6ubuntu1~16.04.4) 5.4.0 20160609" 
 .section .note.GNU-stack,"",@progbits 
 .file "printFile176.c" 
 .section .rodata 
 .align 8 
 .LC0: 
 .string "owqxxwixaqrpfhjkdpvtyhhqsxbycctrykryjbamttebcheuiatxbfvfphlxmtyngjjavglbpeyogqproghdahquslpurlxybdruhmjesisabltrrcutjlocyhyqswvuybxdenrhqpuqrbuyctfso\177" 
 .text 
 .globl main 
 .type main, @function 
 main: 
 .LFB0: 
 .cfi_startproc 
 pushq %rbp 
 .cfi_def_cfa_offset 16 
 .cfi_offset 6, -16 
 movq %rsp, %rbp 
 .cfi_def_cfa_register 6 
 movl $.LC0, %edi 
 movl $0, %eax 
 call printf 
 movl $0, %eax 
 popq %rbp 
 .cfi_def_cfa 7, 8 
 ret 
 .cfi_endproc 
 .LFE0: 
 .size main, .-main 
 .ident "GCC: (Ubuntu 5.4.0-6ubuntu1~16.04.4) 5.4.0 20160609" 
 .section .note.GNU-stack,"",@progbits 
 .file "printFile177.c" 
 .section .rodata 
 .align 8 
 .LC0: 
 .string "lfficerlxkjykmdggdtxefbetuyyvdqkiwumdmabttebcheuiatxbfvfphlxmtyngjjavglbpeyogqproghdahquslpurlxybdruhmjesisabltrrcutjlocyhyqswvuybxdenrhqpuqrbuyctfso\177" 
 .text 
 .globl main 
 .type main, @function 
 main: 
 .LFB0: 
 .cfi_startproc 
 pushq %rbp 
 .cfi_def_cfa_offset 16 
 .cfi_offset 6, -16 
 movq %rsp, %rbp 
 .cfi_def_cfa_register 6 
 movl $.LC0, %edi 
 movl $0, %eax 
 call printf 
 movl $0, %eax 
 popq %rbp 
 .cfi_def_cfa 7, 8 
 ret 
 .cfi_endproc 
 .LFE0: 
 .size main, .-main 
 .ident "GCC: (Ubuntu 5.4.0-6ubuntu1~16.04.4) 5.4.0 20160609" 
 .section .note.GNU-stack,"",@progbits 
 .file "printFile178.c" 
 .section .rodata 
 .align 8 
 .LC0: 
 .string "kclyguflodptfuocvpyygljfgwjuwmvjriixdnlttbpbxgdtvatxbfvfphlxmtyngjjavglbpeyogqproghdahquslpurlxybdruhmjesisabltrrcutjlocyhyqswvuybxdenrhqpuqrbuyctfso\177" 
 .text 
 .globl main 
 .type main, @function 
 main: 
 .LFB0: 
 .cfi_startproc 
 pushq %rbp 
 .cfi_def_cfa_offset 16 
 .cfi_offset 6, -16 
 movq %rsp, %rbp 
 .cfi_def_cfa_register 6 
 movl $.LC0, %edi 
 movl $0, %eax 
 call printf 
 movl $0, %eax 
 popq %rbp 
 .cfi_def_cfa 7, 8 
 ret 
 .cfi_endproc 
 .LFE0: 
 .size main, .-main 
 .ident "GCC: (Ubuntu 5.4.0-6ubuntu1~16.04.4) 5.4.0 20160609" 
 .section .note.GNU-stack,"",@progbits 
 .file "printFile179.c" 
 .section .rodata 
 .align 8 
 .LC0: 
 .string "ufpfguflodptfuocvpyygljfgwjuwmvjriixdnlttbpbxgdtvatxbfvfphlxmtyngjjavglbpeyogqproghdahquslpurlxybdruhmjesisabltrrcutjlocyhyqswvuybxdenrhqpuqrbuyctfso\177" 
 .text 
 .globl main 
 .type main, @function 
 main: 
 .LFB0: 
 .cfi_startproc 
 pushq %rbp 
 .cfi_def_cfa_offset 16 
 .cfi_offset 6, -16 
 movq %rsp, %rbp 
 .cfi_def_cfa_register 6 
 movl $.LC0, %edi 
 movl $0, %eax 
 call printf 
 movl $0, %eax 
 popq %rbp 
 .cfi_def_cfa 7, 8 
 ret 
 .cfi_endproc 
 .LFE0: 
 .size main, .-main 
 .ident "GCC: (Ubuntu 5.4.0-6ubuntu1~16.04.4) 5.4.0 20160609" 
 .section .note.GNU-stack,"",@progbits 
 .file "printFile180.c" 
 .section .rodata 
 .align 8 
 .LC0: 
 .string "vevsdjpnbxvbdmmygpojqvmmttiyjnkitgbwrqkuqjvvvkuedmnticicvqcgmtyngjjavglbpeyogqproghdahquslpurlxybdruhmjesisabltrrcutjlocyhyqswvuybxdenrhqpuqrbuyctfso\177" 
 .text 
 .globl main 
 .type main, @function 
 main: 
 .LFB0: 
 .cfi_startproc 
 pushq %rbp 
 .cfi_def_cfa_offset 16 
 .cfi_offset 6, -16 
 movq %rsp, %rbp 
 .cfi_def_cfa_register 6 
 movl $.LC0, %edi 
 movl $0, %eax 
 call printf 
 movl $0, %eax 
 popq %rbp 
 .cfi_def_cfa 7, 8 
 ret 
 .cfi_endproc 
 .LFE0: 
 .size main, .-main 
 .ident "GCC: (Ubuntu 5.4.0-6ubuntu1~16.04.4) 5.4.0 20160609" 
 .section .note.GNU-stack,"",@progbits 
 .file "printFile181.c" 
 .section .rodata 
 .align 8 
 .LC0: 
 .string "oqaurxpnbxvbdmmygpojqvmmttiyjnkitgbwrqkuqjvvvkuedmnticicvqcgmtyngjjavglbpeyogqproghdahquslpurlxybdruhmjesisabltrrcutjlocyhyqswvuybxdenrhqpuqrbuyctfso\177" 
 .text 
 .globl main 
 .type main, @function 
 main: 
 .LFB0: 
 .cfi_startproc 
 pushq %rbp 
 .cfi_def_cfa_offset 16 
 .cfi_offset 6, -16 
 movq %rsp, %rbp 
 .cfi_def_cfa_register 6 
 movl $.LC0, %edi 
 movl $0, %eax 
 call printf 
 movl $0, %eax 
 popq %rbp 
 .cfi_def_cfa 7, 8 
 ret 
 .cfi_endproc 
 .LFE0: 
 .size main, .-main 
 .ident "GCC: (Ubuntu 5.4.0-6ubuntu1~16.04.4) 5.4.0 20160609" 
 .section .note.GNU-stack,"",@progbits 
 .file "printFile182.c" 
 .section .rodata 
 .align 8 
 .LC0: 
 .string "lkkethdrtxvwkjsumexkwcqeqhgncgdptotnvwgrxerkokidognmkhsbqboukskehhtfgcyehqrxcadsishuccvtgmoqhcwqjsxpvxwfoqfsskoddcutjlocyhyqswvuybxdenrhqpuqrbuyctfso\177" 
 .text 
 .globl main 
 .type main, @function 
 main: 
 .LFB0: 
 .cfi_startproc 
 pushq %rbp 
 .cfi_def_cfa_offset 16 
 .cfi_offset 6, -16 
 movq %rsp, %rbp 
 .cfi_def_cfa_register 6 
 movl $.LC0, %edi 
 movl $0, %eax 
 call printf 
 movl $0, %eax 
 popq %rbp 
 .cfi_def_cfa 7, 8 
 ret 
 .cfi_endproc 
 .LFE0: 
 .size main, .-main 
 .ident "GCC: (Ubuntu 5.4.0-6ubuntu1~16.04.4) 5.4.0 20160609" 
 .section .note.GNU-stack,"",@progbits 
 .file "printFile183.c" 
 .section .rodata 
 .align 8 
 .LC0: 
 .string "xgbvchisxsuwlgrkypkxuyocuhmjmqhkyigdpovpjtovchibwsyurpwoykaldiveschjtfbfbqbgajhwcjrwbrnbeoohwnnprwbleftgxumxhvulhpkjhymnndumqkejjiwnnqvlokjvjgjqxufso\177" 
 .text 
 .globl main 
 .type main, @function 
 main: 
 .LFB0: 
 .cfi_startproc 
 pushq %rbp 
 .cfi_def_cfa_offset 16 
 .cfi_offset 6, -16 
 movq %rsp, %rbp 
 .cfi_def_cfa_register 6 
 movl $.LC0, %edi 
 movl $0, %eax 
 call printf 
 movl $0, %eax 
 popq %rbp 
 .cfi_def_cfa 7, 8 
 ret 
 .cfi_endproc 
 .LFE0: 
 .size main, .-main 
 .ident "GCC: (Ubuntu 5.4.0-6ubuntu1~16.04.4) 5.4.0 20160609" 
 .section .note.GNU-stack,"",@progbits 
 .file "printFile184.c" 
 .section .rodata 
 .align 8 
 .LC0: 
 .string "hvoujurxlecunkucalxlalwxugklefqobhjmcemoiolwcgbcsyqumnvhtgvbnmpqtbfwhrnqiypmgjhwcjrwbrnbeoohwnnprwbleftgxumxhvulhpkjhymnndumqkejjiwnnqvlokjvjgjqxufso\177" 
 .text 
 .globl main 
 .type main, @function 
 main: 
 .LFB0: 
 .cfi_startproc 
 pushq %rbp 
 .cfi_def_cfa_offset 16 
 .cfi_offset 6, -16 
 movq %rsp, %rbp 
 .cfi_def_cfa_register 6 
 movl $.LC0, %edi 
 movl $0, %eax 
 call printf 
 movl $0, %eax 
 popq %rbp 
 .cfi_def_cfa 7, 8 
 ret 
 .cfi_endproc 
 .LFE0: 
 .size main, .-main 
 .ident "GCC: (Ubuntu 5.4.0-6ubuntu1~16.04.4) 5.4.0 20160609" 
 .section .note.GNU-stack,"",@progbits 
 .file "printFile185.c" 
 .section .rodata 
 .align 8 
 .LC0: 
 .string "pbrivfxtmsaivpwnalxlalwxugklefqobhjmcemoiolwcgbcsyqumnvhtgvbnmpqtbfwhrnqiypmgjhwcjrwbrnbeoohwnnprwbleftgxumxhvulhpkjhymnndumqkejjiwnnqvlokjvjgjqxufso\177" 
 .text 
 .globl main 
 .type main, @function 
 main: 
 .LFB0: 
 .cfi_startproc 
 pushq %rbp 
 .cfi_def_cfa_offset 16 
 .cfi_offset 6, -16 
 movq %rsp, %rbp 
 .cfi_def_cfa_register 6 
 movl $.LC0, %edi 
 movl $0, %eax 
 call printf 
 movl $0, %eax 
 popq %rbp 
 .cfi_def_cfa 7, 8 
 ret 
 .cfi_endproc 
 .LFE0: 
 .size main, .-main 
 .ident "GCC: (Ubuntu 5.4.0-6ubuntu1~16.04.4) 5.4.0 20160609" 
 .section .note.GNU-stack,"",@progbits 
 .file "printFile186.c" 
 .section .rodata 
 .align 8 
 .LC0: 
 .string "ronqyhepqdfdjvuknfjuediwgsuxsihkyhjmcemoiolwcgbcsyqumnvhtgvbnmpqtbfwhrnqiypmgjhwcjrwbrnbeoohwnnprwbleftgxumxhvulhpkjhymnndumqkejjiwnnqvlokjvjgjqxufso\177" 
 .text 
 .globl main 
 .type main, @function 
 main: 
 .LFB0: 
 .cfi_startproc 
 pushq %rbp 
 .cfi_def_cfa_offset 16 
 .cfi_offset 6, -16 
 movq %rsp, %rbp 
 .cfi_def_cfa_register 6 
 movl $.LC0, %edi 
 movl $0, %eax 
 call printf 
 movl $0, %eax 
 popq %rbp 
 .cfi_def_cfa 7, 8 
 ret 
 .cfi_endproc 
 .LFE0: 
 .size main, .-main 
 .ident "GCC: (Ubuntu 5.4.0-6ubuntu1~16.04.4) 5.4.0 20160609" 
 .section .note.GNU-stack,"",@progbits 
 .file "printFile187.c" 
 .section .rodata 
 .align 8 
 .LC0: 
 .string "dxfhpxmudwsbjjguekyojhkefdoopqmsqtchtoewlxxxjhsnrtfebpkjuaaksmfjihqcvxckxckhjdweacidtsmounyncexnnqrkovwmyhtkmtqmvyqqufhruhumqkejjiwnnqvlokjvjgjqxufso\177" 
 .text 
 .globl main 
 .type main, @function 
 main: 
 .LFB0: 
 .cfi_startproc 
 pushq %rbp 
 .cfi_def_cfa_offset 16 
 .cfi_offset 6, -16 
 movq %rsp, %rbp 
 .cfi_def_cfa_register 6 
 movl $.LC0, %edi 
 movl $0, %eax 
 call printf 
 movl $0, %eax 
 popq %rbp 
 .cfi_def_cfa 7, 8 
 ret 
 .cfi_endproc 
 .LFE0: 
 .size main, .-main 
 .ident "GCC: (Ubuntu 5.4.0-6ubuntu1~16.04.4) 5.4.0 20160609" 
 .section .note.GNU-stack,"",@progbits 
 .file "printFile188.c" 
 .section .rodata 
 .align 8 
 .LC0: 
 .string "angpeyhoogldhuarhtjwrkpkhwscscisqtchtoewlxxxjhsnrtfebpkjuaaksmfjihqcvxckxckhjdweacidtsmounyncexnnqrkovwmyhtkmtqmvyqqufhruhumqkejjiwnnqvlokjvjgjqxufso\177" 
 .text 
 .globl main 
 .type main, @function 
 main: 
 .LFB0: 
 .cfi_startproc 
 pushq %rbp 
 .cfi_def_cfa_offset 16 
 .cfi_offset 6, -16 
 movq %rsp, %rbp 
 .cfi_def_cfa_register 6 
 movl $.LC0, %edi 
 movl $0, %eax 
 call printf 
 movl $0, %eax 
 popq %rbp 
 .cfi_def_cfa 7, 8 
 ret 
 .cfi_endproc 
 .LFE0: 
 .size main, .-main 
 .ident "GCC: (Ubuntu 5.4.0-6ubuntu1~16.04.4) 5.4.0 20160609" 
 .section .note.GNU-stack,"",@progbits 
 .file "printFile189.c" 
 .section .rodata 
 .align 8 
 .LC0: 
 .string "rqkvptmgaamhumcfincaarnkoimjkweepqbhnnopqdalrcqaructoreeaspmpwrhnspdigtyjtnbxgbrcflqxswxlnlekflaabeihakstattgwlkfwcdrbdeuhumqkejjiwnnqvlokjvjgjqxufso\177" 
 .text 
 .globl main 
 .type main, @function 
 main: 
 .LFB0: 
 .cfi_startproc 
 pushq %rbp 
 .cfi_def_cfa_offset 16 
 .cfi_offset 6, -16 
 movq %rsp, %rbp 
 .cfi_def_cfa_register 6 
 movl $.LC0, %edi 
 movl $0, %eax 
 call printf 
 movl $0, %eax 
 popq %rbp 
 .cfi_def_cfa 7, 8 
 ret 
 .cfi_endproc 
 .LFE0: 
 .size main, .-main 
 .ident "GCC: (Ubuntu 5.4.0-6ubuntu1~16.04.4) 5.4.0 20160609" 
 .section .note.GNU-stack,"",@progbits 
 .file "printFile190.c" 
 .section .rodata 
 .align 8 
 .LC0: 
 .string "qkbvvevakhhkrbgtwaaunlcmpffqklicvlxrrureccovfwpcwrymdbauifotqyvomtghqblsdbqixgmxymmepmcytssmrobgkknclawodoybwlbxaqfqdhpaakmtyoalyqnmqndtccwbpgjqxufso\177" 
 .text 
 .globl main 
 .type main, @function 
 main: 
 .LFB0: 
 .cfi_startproc 
 pushq %rbp 
 .cfi_def_cfa_offset 16 
 .cfi_offset 6, -16 
 movq %rsp, %rbp 
 .cfi_def_cfa_register 6 
 movl $.LC0, %edi 
 movl $0, %eax 
 call printf 
 movl $0, %eax 
 popq %rbp 
 .cfi_def_cfa 7, 8 
 ret 
 .cfi_endproc 
 .LFE0: 
 .size main, .-main 
 .ident "GCC: (Ubuntu 5.4.0-6ubuntu1~16.04.4) 5.4.0 20160609" 
 .section .note.GNU-stack,"",@progbits 
 .file "printFile191.c" 
 .section .rodata 
 .align 8 
 .LC0: 
 .string "aqrfjuobuqlkkmbmxcdootcrpgvnhnqjeiopfdqdtcngoqtpsyemdbauifotqyvomtghqblsdbqixgmxymmepmcytssmrobgkknclawodoybwlbxaqfqdhpaakmtyoalyqnmqndtccwbpgjqxufso\177" 
 .text 
 .globl main 
 .type main, @function 
 main: 
 .LFB0: 
 .cfi_startproc 
 pushq %rbp 
 .cfi_def_cfa_offset 16 
 .cfi_offset 6, -16 
 movq %rsp, %rbp 
 .cfi_def_cfa_register 6 
 movl $.LC0, %edi 
 movl $0, %eax 
 call printf 
 movl $0, %eax 
 popq %rbp 
 .cfi_def_cfa 7, 8 
 ret 
 .cfi_endproc 
 .LFE0: 
 .size main, .-main 
 .ident "GCC: (Ubuntu 5.4.0-6ubuntu1~16.04.4) 5.4.0 20160609" 
 .section .note.GNU-stack,"",@progbits 
 .file "printFile192.c" 
 .section .rodata 
 .align 8 
 .LC0: 
 .string "vibloybxmritcyjiddlyfbiwremkdqtyeiopfdqdtcngoqtpsyemdbauifotqyvomtghqblsdbqixgmxymmepmcytssmrobgkknclawodoybwlbxaqfqdhpaakmtyoalyqnmqndtccwbpgjqxufso\177" 
 .text 
 .globl main 
 .type main, @function 
 main: 
 .LFB0: 
 .cfi_startproc 
 pushq %rbp 
 .cfi_def_cfa_offset 16 
 .cfi_offset 6, -16 
 movq %rsp, %rbp 
 .cfi_def_cfa_register 6 
 movl $.LC0, %edi 
 movl $0, %eax 
 call printf 
 movl $0, %eax 
 popq %rbp 
 .cfi_def_cfa 7, 8 
 ret 
 .cfi_endproc 
 .LFE0: 
 .size main, .-main 
 .ident "GCC: (Ubuntu 5.4.0-6ubuntu1~16.04.4) 5.4.0 20160609" 
 .section .note.GNU-stack,"",@progbits 
 .file "printFile193.c" 
 .section .rodata 
 .LC0: 
 .string "w93" 
 .text 
 .globl main 
 .type main, @function 
 main: 
 .LFB0: 
 .cfi_startproc 
 pushq %rbp 
 .cfi_def_cfa_offset 16 
 .cfi_offset 6, -16 
 movq %rsp, %rbp 
 .cfi_def_cfa_register 6 
 movl $.LC0, %edi 
 movl $0, %eax 
 call printf 
 movl $0, %eax 
 popq %rbp 
 .cfi_def_cfa 7, 8 
 ret 
 .cfi_endproc 
 .LFE0: 
 .size main, .-main 
 .ident "GCC: (Ubuntu 5.4.0-6ubuntu1~16.04.4) 5.4.0 20160609" 
 .section .note.GNU-stack,"",@progbits 
 .file "printFile194.c" 
 .section .rodata 
 .align 8 
 .LC0: 
 .string "rvqpklaenaqvfyjiddlyfbiwremkdqtyeiopfdqdtcngoqtpsyemdbauifotqyvomtghqblsdbqixgmxymmepmcytssmrobgkknclawodoybwlbxaqfqdhpaakmtyoalyqnmqndtccwbpgjqxufso\177" 
 .text 
 .globl main 
 .type main, @function 
 main: 
 .LFB0: 
 .cfi_startproc 
 pushq %rbp 
 .cfi_def_cfa_offset 16 
 .cfi_offset 6, -16 
 movq %rsp, %rbp 
 .cfi_def_cfa_register 6 
 movl $.LC0, %edi 
 movl $0, %eax 
 call printf 
 movl $0, %eax 
 popq %rbp 
 .cfi_def_cfa 7, 8 
 ret 
 .cfi_endproc 
 .LFE0: 
 .size main, .-main 
 .ident "GCC: (Ubuntu 5.4.0-6ubuntu1~16.04.4) 5.4.0 20160609" 
 .section .note.GNU-stack,"",@progbits 
 .file "printFile195.c" 
 .section .rodata 
 .align 8 
 .LC0: 
 .string "jgykoxcskoydiaehpvdhoosouiqlhxhqfjevhirsxqxiqdshyvqpmlfktxxdwguerbcyjblsdbqixgmxymmepmcytssmrobgkknclawodoybwlbxaqfqdhpaakmtyoalyqnmqndtccwbpgjqxufso\177" 
 .text 
 .globl main 
 .type main, @function 
 main: 
 .LFB0: 
 .cfi_startproc 
 pushq %rbp 
 .cfi_def_cfa_offset 16 
 .cfi_offset 6, -16 
 movq %rsp, %rbp 
 .cfi_def_cfa_register 6 
 movl $.LC0, %edi 
 movl $0, %eax 
 call printf 
 movl $0, %eax 
 popq %rbp 
 .cfi_def_cfa 7, 8 
 ret 
 .cfi_endproc 
 .LFE0: 
 .size main, .-main 
 .ident "GCC: (Ubuntu 5.4.0-6ubuntu1~16.04.4) 5.4.0 20160609" 
 .section .note.GNU-stack,"",@progbits 
 .file "printFile196.c" 
 .section .rodata 
 .align 8 
 .LC0: 
 .string "tjksuexnnwlepbrwllulptrmxlpblywhlkaioxvexjinkakxnhkfcetcqjfeldlynoheodimmscauoxiykqbpmdiwjmkoajcoqgevoskhxkcmlmlvfonsuxrgkcunnwcefgatcmdaxhojvdhxufso\177" 
 .text 
 .globl main 
 .type main, @function 
 main: 
 .LFB0: 
 .cfi_startproc 
 pushq %rbp 
 .cfi_def_cfa_offset 16 
 .cfi_offset 6, -16 
 movq %rsp, %rbp 
 .cfi_def_cfa_register 6 
 movl $.LC0, %edi 
 movl $0, %eax 
 call printf 
 movl $0, %eax 
 popq %rbp 
 .cfi_def_cfa 7, 8 
 ret 
 .cfi_endproc 
 .LFE0: 
 .size main, .-main 
 .ident "GCC: (Ubuntu 5.4.0-6ubuntu1~16.04.4) 5.4.0 20160609" 
 .section .note.GNU-stack,"",@progbits 
 .file "printFile197.c" 
 .section .rodata 
 .LC0: 
 .string "rx7" 
 .text 
 .globl main 
 .type main, @function 
 main: 
 .LFB0: 
 .cfi_startproc 
 pushq %rbp 
 .cfi_def_cfa_offset 16 
 .cfi_offset 6, -16 
 movq %rsp, %rbp 
 .cfi_def_cfa_register 6 
 movl $.LC0, %edi 
 movl $0, %eax 
 call printf 
 movl $0, %eax 
 popq %rbp 
 .cfi_def_cfa 7, 8 
 ret 
 .cfi_endproc 
 .LFE0: 
 .size main, .-main 
 .ident "GCC: (Ubuntu 5.4.0-6ubuntu1~16.04.4) 5.4.0 20160609" 
 .section .note.GNU-stack,"",@progbits 
 .file "printFile198.c" 
 .section .rodata 
 .align 8 
 .LC0: 
 .string "mvoujspwgmbmtkonmbsmbcdkygudbuapqqlclbyrqbgklubaxtoawrmxbhbccdrvtdxfhayxmscauoxiykqbpmdiwjmkoajcoqgevoskhxkcmlmlvfonsuxrgkcunnwcefgatcmdaxhojvdhxufso\177" 
 .text 
 .globl main 
 .type main, @function 
 main: 
 .LFB0: 
 .cfi_startproc 
 pushq %rbp 
 .cfi_def_cfa_offset 16 
 .cfi_offset 6, -16 
 movq %rsp, %rbp 
 .cfi_def_cfa_register 6 
 movl $.LC0, %edi 
 movl $0, %eax 
 call printf 
 movl $0, %eax 
 popq %rbp 
 .cfi_def_cfa 7, 8 
 ret 
 .cfi_endproc 
 .LFE0: 
 .size main, .-main 
 .ident "GCC: (Ubuntu 5.4.0-6ubuntu1~16.04.4) 5.4.0 20160609" 
 .section .note.GNU-stack,"",@progbits 
 .file "printFile199.c" 
 .section .rodata 
 .align 8 
 .LC0: 
 .string "fkocloaidahwnhxwiacnuxjaxqhxrhywspbgedqjgxhtffspiudduodtfnrwutvpjywqdnajojfvramavrfsjiooxhotdkjmkifpyoskhxkcmlmlvfonsuxrgkcunnwcefgatcmdaxhojvdhxufso\177" 
 .text 
 .globl main 
 .type main, @function 
 main: 
 .LFB0: 
 .cfi_startproc 
 pushq %rbp 
 .cfi_def_cfa_offset 16 
 .cfi_offset 6, -16 
 movq %rsp, %rbp 
 .cfi_def_cfa_register 6 
 movl $.LC0, %edi 
 movl $0, %eax 
 call printf 
 movl $0, %eax 
 popq %rbp 
 .cfi_def_cfa 7, 8 
 ret 
 .cfi_endproc 
 .LFE0: 
 .size main, .-main 
 .ident "GCC: (Ubuntu 5.4.0-6ubuntu1~16.04.4) 5.4.0 20160609" 
 .section .note.GNU-stack,"",@progbits 
 .file "printFile200.c" 
 .section .rodata 
 .align 8 
 .LC0: 
 .string "yprgljgaleusxecmscvhvyuiohstwrcxhuevgkvupqnpurequdaseubseunboryyoduvqqsikgahbgxvjbooxsjdnyeergdglxecrwmcgmkcmlmlvfonsuxrgkcunnwcefgatcmdaxhojvdhxufso\177" 
 .text 
 .globl main 
 .type main, @function 
 main: 
 .LFB0: 
 .cfi_startproc 
 pushq %rbp 
 .cfi_def_cfa_offset 16 
 .cfi_offset 6, -16 
 movq %rsp, %rbp 
 .cfi_def_cfa_register 6 
 movl $.LC0, %edi 
 movl $0, %eax 
 call printf 
 movl $0, %eax 
 popq %rbp 
 .cfi_def_cfa 7, 8 
 ret 
 .cfi_endproc 
 .LFE0: 
 .size main, .-main 
 .ident "GCC: (Ubuntu 5.4.0-6ubuntu1~16.04.4) 5.4.0 20160609" 
 .section .note.GNU-stack,"",@progbits 
 .file "printFile201.c" 
 .section .rodata 
 .align 8 
 .LC0: 
 .string "hvkffltvjogmehtjycminnmsfmfjuuscsfhxqdwdsfrwmlionvwellwqaeaubuytdguvmryhyrglfpctnbayxsjdnyeergdglxecrwmcgmkcmlmlvfonsuxrgkcunnwcefgatcmdaxhojvdhxufso\177" 
 .text 
 .globl main 
 .type main, @function 
 main: 
 .LFB0: 
 .cfi_startproc 
 pushq %rbp 
 .cfi_def_cfa_offset 16 
 .cfi_offset 6, -16 
 movq %rsp, %rbp 
 .cfi_def_cfa_register 6 
 movl $.LC0, %edi 
 movl $0, %eax 
 call printf 
 movl $0, %eax 
 popq %rbp 
 .cfi_def_cfa 7, 8 
 ret 
 .cfi_endproc 
 .LFE0: 
 .size main, .-main 
 .ident "GCC: (Ubuntu 5.4.0-6ubuntu1~16.04.4) 5.4.0 20160609" 
 .section .note.GNU-stack,"",@progbits 
 .file "printFile202.c" 
 .section .rodata 
 .align 8 
 .LC0: 
 .string "wrpbtlfqkyttvqipppojvdpnflbhlcwktonnaswdsfrwmlionvwellwqaeaubuytdguvmryhyrglfpctnbayxsjdnyeergdglxecrwmcgmkcmlmlvfonsuxrgkcunnwcefgatcmdaxhojvdhxufso\177" 
 .text 
 .globl main 
 .type main, @function 
 main: 
 .LFB0: 
 .cfi_startproc 
 pushq %rbp 
 .cfi_def_cfa_offset 16 
 .cfi_offset 6, -16 
 movq %rsp, %rbp 
 .cfi_def_cfa_register 6 
 movl $.LC0, %edi 
 movl $0, %eax 
 call printf 
 movl $0, %eax 
 popq %rbp 
 .cfi_def_cfa 7, 8 
 ret 
 .cfi_endproc 
 .LFE0: 
 .size main, .-main 
 .ident "GCC: (Ubuntu 5.4.0-6ubuntu1~16.04.4) 5.4.0 20160609" 
 .section .note.GNU-stack,"",@progbits 
 .file "printFile203.c" 
 .section .rodata 
 .align 8 
 .LC0: 
 .string "nubjqrrhkjvthylvhwyokcnuxcjofctuwueqpxxajvvqvioffotssjnqaeaubuytdguvmryhyrglfpctnbayxsjdnyeergdglxecrwmcgmkcmlmlvfonsuxrgkcunnwcefgatcmdaxhojvdhxufso\177" 
 .text 
 .globl main 
 .type main, @function 
 main: 
 .LFB0: 
 .cfi_startproc 
 pushq %rbp 
 .cfi_def_cfa_offset 16 
 .cfi_offset 6, -16 
 movq %rsp, %rbp 
 .cfi_def_cfa_register 6 
 movl $.LC0, %edi 
 movl $0, %eax 
 call printf 
 movl $0, %eax 
 popq %rbp 
 .cfi_def_cfa 7, 8 
 ret 
 .cfi_endproc 
 .LFE0: 
 .size main, .-main 
 .ident "GCC: (Ubuntu 5.4.0-6ubuntu1~16.04.4) 5.4.0 20160609" 
 .section .note.GNU-stack,"",@progbits 
 .file "printFile204.c" 
 .section .rodata 
 .align 8 
 .LC0: 
 .string "lwhscbnbytrqrrqbomumwjrfanxswlmkltepxrsymlpgfiitwdguoxaplakknyvyvaqtrkugxkndsxxpdgmrhmjumugergdglxecrwmcgmkcmlmlvfonsuxrgkcunnwcefgatcmdaxhojvdhxufso\177" 
 .text 
 .globl main 
 .type main, @function 
 main: 
 .LFB0: 
 .cfi_startproc 
 pushq %rbp 
 .cfi_def_cfa_offset 16 
 .cfi_offset 6, -16 
 movq %rsp, %rbp 
 .cfi_def_cfa_register 6 
 movl $.LC0, %edi 
 movl $0, %eax 
 call printf 
 movl $0, %eax 
 popq %rbp 
 .cfi_def_cfa 7, 8 
 ret 
 .cfi_endproc 
 .LFE0: 
 .size main, .-main 
 .ident "GCC: (Ubuntu 5.4.0-6ubuntu1~16.04.4) 5.4.0 20160609" 
 .section .note.GNU-stack,"",@progbits 
 .file "printFile205.c" 
 .section .rodata 
 .align 8 
 .LC0: 
 .string "vccretnvgifeusjpshgvqupxiaswwyasddlhyyghkllfguxyfgwxbmvjmqjjsjdvoqeprmwexkmgikhpqenrqjeecnpuyurqlxggkekkqwqyhxoxccsunwyqmrllmfwcefgatcmdaxhojvdhxufso\177" 
 .text 
 .globl main 
 .type main, @function 
 main: 
 .LFB0: 
 .cfi_startproc 
 pushq %rbp 
 .cfi_def_cfa_offset 16 
 .cfi_offset 6, -16 
 movq %rsp, %rbp 
 .cfi_def_cfa_register 6 
 movl $.LC0, %edi 
 movl $0, %eax 
 call printf 
 movl $0, %eax 
 popq %rbp 
 .cfi_def_cfa 7, 8 
 ret 
 .cfi_endproc 
 .LFE0: 
 .size main, .-main 
 .ident "GCC: (Ubuntu 5.4.0-6ubuntu1~16.04.4) 5.4.0 20160609" 
 .section .note.GNU-stack,"",@progbits 
 .file "printFile206.c" 
 .section .rodata 
 .align 8 
 .LC0: 
 .string "bdlhppragrsiyswaucssppticlupyaucggjvxdwguroulouiqnbifvrjhoyiqvkwevveaslukcrxqohjeislemuobwwtuitagpegirkkqwqyhxoxccsunwyqmrllmfwcefgatcmdaxhojvdhxufso\177" 
 .text 
 .globl main 
 .type main, @function 
 main: 
 .LFB0: 
 .cfi_startproc 
 pushq %rbp 
 .cfi_def_cfa_offset 16 
 .cfi_offset 6, -16 
 movq %rsp, %rbp 
 .cfi_def_cfa_register 6 
 movl $.LC0, %edi 
 movl $0, %eax 
 call printf 
 movl $0, %eax 
 popq %rbp 
 .cfi_def_cfa 7, 8 
 ret 
 .cfi_endproc 
 .LFE0: 
 .size main, .-main 
 .ident "GCC: (Ubuntu 5.4.0-6ubuntu1~16.04.4) 5.4.0 20160609" 
 .section .note.GNU-stack,"",@progbits 
 .file "printFile207.c" 
 .section .rodata 
 .align 8 
 .LC0: 
 .string "uuxtlpdxvlqisfdhgcecxovavleevwirtjnfyqfuevfwbjejnlmlailxwsdsrnmlwcsxuyvawbwymckdnyopkdohxtapjpbjrvhnufnsqwqyhxoxccsunwyqmrllmfwcefgatcmdaxhojvdhxufso\177" 
 .text 
 .globl main 
 .type main, @function 
 main: 
 .LFB0: 
 .cfi_startproc 
 pushq %rbp 
 .cfi_def_cfa_offset 16 
 .cfi_offset 6, -16 
 movq %rsp, %rbp 
 .cfi_def_cfa_register 6 
 movl $.LC0, %edi 
 movl $0, %eax 
 call printf 
 movl $0, %eax 
 popq %rbp 
 .cfi_def_cfa 7, 8 
 ret 
 .cfi_endproc 
 .LFE0: 
 .size main, .-main 
 .ident "GCC: (Ubuntu 5.4.0-6ubuntu1~16.04.4) 5.4.0 20160609" 
 .section .note.GNU-stack,"",@progbits 
 .file "printFile208.c" 
 .section .rodata 
 .align 8 
 .LC0: 
 .string "mtvqgyggqwqvnatjclsrocmkmagrpbbcuatbbajtycpoclxhwrblvnwipfdfgekbggeiiocisuyvgxfgrgrnkdohxtapjpbjrvhnufnsqwqyhxoxccsunwyqmrllmfwcefgatcmdaxhojvdhxufso\177" 
 .text 
 .globl main 
 .type main, @function 
 main: 
 .LFB0: 
 .cfi_startproc 
 pushq %rbp 
 .cfi_def_cfa_offset 16 
 .cfi_offset 6, -16 
 movq %rsp, %rbp 
 .cfi_def_cfa_register 6 
 movl $.LC0, %edi 
 movl $0, %eax 
 call printf 
 movl $0, %eax 
 popq %rbp 
 .cfi_def_cfa 7, 8 
 ret 
 .cfi_endproc 
 .LFE0: 
 .size main, .-main 
 .ident "GCC: (Ubuntu 5.4.0-6ubuntu1~16.04.4) 5.4.0 20160609" 
 .section .note.GNU-stack,"",@progbits 
 .file "printFile209.c" 
 .section .rodata 
 .align 8 
 .LC0: 
 .string "qwmvaucghfpnmavbegtygrigyoxggldxkrvmoytvgjjslivpqspymxfmmfsutxuerrrhsndyypukaqaqlrsypaleggcagwgxovhnufnsqwqyhxoxccsunwyqmrllmfwcefgatcmdaxhojvdhxufso\177" 
 .text 
 .globl main 
 .type main, @function 
 main: 
 .LFB0: 
 .cfi_startproc 
 pushq %rbp 
 .cfi_def_cfa_offset 16 
 .cfi_offset 6, -16 
 movq %rsp, %rbp 
 .cfi_def_cfa_register 6 
 movl $.LC0, %edi 
 movl $0, %eax 
 call printf 
 movl $0, %eax 
 popq %rbp 
 .cfi_def_cfa 7, 8 
 ret 
 .cfi_endproc 
 .LFE0: 
 .size main, .-main 
 .ident "GCC: (Ubuntu 5.4.0-6ubuntu1~16.04.4) 5.4.0 20160609" 
 .section .note.GNU-stack,"",@progbits 
 .file "printFile210.c" 
 .section .rodata 
 .align 8 
 .LC0: 
 .string "hhlljkdewdwxtjpokipvmvcqxkoeiffspqeyehfbmebgprvaqspymxfmmfsutxuerrrhsndyypukaqaqlrsypaleggcagwgxovhnufnsqwqyhxoxccsunwyqmrllmfwcefgatcmdaxhojvdhxufso\177" 
 .text 
 .globl main 
 .type main, @function 
 main: 
 .LFB0: 
 .cfi_startproc 
 pushq %rbp 
 .cfi_def_cfa_offset 16 
 .cfi_offset 6, -16 
 movq %rsp, %rbp 
 .cfi_def_cfa_register 6 
 movl $.LC0, %edi 
 movl $0, %eax 
 call printf 
 movl $0, %eax 
 popq %rbp 
 .cfi_def_cfa 7, 8 
 ret 
 .cfi_endproc 
 .LFE0: 
 .size main, .-main 
 .ident "GCC: (Ubuntu 5.4.0-6ubuntu1~16.04.4) 5.4.0 20160609" 
 .section .note.GNU-stack,"",@progbits 
 .file "printFile211.c" 
 .section .rodata 
 .align 8 
 .LC0: 
 .string "nvojagjmwnxcuqrowsueavsfaburwxtmvkvyshlpxjusamhwicpymxfmmfsutxuerrrhsndyypukaqaqlrsypaleggcagwgxovhnufnsqwqyhxoxccsunwyqmrllmfwcefgatcmdaxhojvdhxufso\177" 
 .text 
 .globl main 
 .type main, @function 
 main: 
 .LFB0: 
 .cfi_startproc 
 pushq %rbp 
 .cfi_def_cfa_offset 16 
 .cfi_offset 6, -16 
 movq %rsp, %rbp 
 .cfi_def_cfa_register 6 
 movl $.LC0, %edi 
 movl $0, %eax 
 call printf 
 movl $0, %eax 
 popq %rbp 
 .cfi_def_cfa 7, 8 
 ret 
 .cfi_endproc 
 .LFE0: 
 .size main, .-main 
 .ident "GCC: (Ubuntu 5.4.0-6ubuntu1~16.04.4) 5.4.0 20160609" 
 .section .note.GNU-stack,"",@progbits 
 .file "printFile212.c" 
 .section .rodata 
 .align 8 
 .LC0: 
 .string "ibvnbxluwjqkhdigyssqqellfbtejxkrbgiegvbghtsoxbvwvqnmucycduhourgyaqdhmhptbijylhaqlrsypaleggcagwgxovhnufnsqwqyhxoxccsunwyqmrllmfwcefgatcmdaxhojvdhxufso\177" 
 .text 
 .globl main 
 .type main, @function 
 main: 
 .LFB0: 
 .cfi_startproc 
 pushq %rbp 
 .cfi_def_cfa_offset 16 
 .cfi_offset 6, -16 
 movq %rsp, %rbp 
 .cfi_def_cfa_register 6 
 movl $.LC0, %edi 
 movl $0, %eax 
 call printf 
 movl $0, %eax 
 popq %rbp 
 .cfi_def_cfa 7, 8 
 ret 
 .cfi_endproc 
 .LFE0: 
 .size main, .-main 
 .ident "GCC: (Ubuntu 5.4.0-6ubuntu1~16.04.4) 5.4.0 20160609" 
 .section .note.GNU-stack,"",@progbits 
 .file "printFile213.c" 
 .section .rodata 
 .align 8 
 .LC0: 
 .string "ixmwsqvvtsfiqwqpwksgwavregddskcbiqxbjwydrenidgxdqtjqviiaolejvikgbljkijpapfltljwfdivaqgaitgrpqfxrqhhnufnsqwqyhxoxccsunwyqmrllmfwcefgatcmdaxhojvdhxufso\177" 
 .text 
 .globl main 
 .type main, @function 
 main: 
 .LFB0: 
 .cfi_startproc 
 pushq %rbp 
 .cfi_def_cfa_offset 16 
 .cfi_offset 6, -16 
 movq %rsp, %rbp 
 .cfi_def_cfa_register 6 
 movl $.LC0, %edi 
 movl $0, %eax 
 call printf 
 movl $0, %eax 
 popq %rbp 
 .cfi_def_cfa 7, 8 
 ret 
 .cfi_endproc 
 .LFE0: 
 .size main, .-main 
 .ident "GCC: (Ubuntu 5.4.0-6ubuntu1~16.04.4) 5.4.0 20160609" 
 .section .note.GNU-stack,"",@progbits 
 .file "printFile214.c" 
 .section .rodata 
 .LC0: 
 .string "bq4" 
 .text 
 .globl main 
 .type main, @function 
 main: 
 .LFB0: 
 .cfi_startproc 
 pushq %rbp 
 .cfi_def_cfa_offset 16 
 .cfi_offset 6, -16 
 movq %rsp, %rbp 
 .cfi_def_cfa_register 6 
 movl $.LC0, %edi 
 movl $0, %eax 
 call printf 
 movl $0, %eax 
 popq %rbp 
 .cfi_def_cfa 7, 8 
 ret 
 .cfi_endproc 
 .LFE0: 
 .size main, .-main 
 .ident "GCC: (Ubuntu 5.4.0-6ubuntu1~16.04.4) 5.4.0 20160609" 
 .section .note.GNU-stack,"",@progbits 
 .file "printFile215.c" 
 .section .rodata 
 .align 8 
 .LC0: 
 .string "dhyobnbaseiqgawjkqpgwavregddskcbiqxbjwydrenidgxdqtjqviiaolejvikgbljkijpapfltljwfdivaqgaitgrpqfxrqhhnufnsqwqyhxoxccsunwyqmrllmfwcefgatcmdaxhojvdhxufso\177" 
 .text 
 .globl main 
 .type main, @function 
 main: 
 .LFB0: 
 .cfi_startproc 
 pushq %rbp 
 .cfi_def_cfa_offset 16 
 .cfi_offset 6, -16 
 movq %rsp, %rbp 
 .cfi_def_cfa_register 6 
 movl $.LC0, %edi 
 movl $0, %eax 
 call printf 
 movl $0, %eax 
 popq %rbp 
 .cfi_def_cfa 7, 8 
 ret 
 .cfi_endproc 
 .LFE0: 
 .size main, .-main 
 .ident "GCC: (Ubuntu 5.4.0-6ubuntu1~16.04.4) 5.4.0 20160609" 
 .section .note.GNU-stack,"",@progbits 
 .file "printFile216.c" 
 .section .rodata 
 .align 8 
 .LC0: 
 .string "ijjgbcpgfhalqcatpbtkicbqeaaqskcbiqxbjwydrenidgxdqtjqviiaolejvikgbljkijpapfltljwfdivaqgaitgrpqfxrqhhnufnsqwqyhxoxccsunwyqmrllmfwcefgatcmdaxhojvdhxufso\177" 
 .text 
 .globl main 
 .type main, @function 
 main: 
 .LFB0: 
 .cfi_startproc 
 pushq %rbp 
 .cfi_def_cfa_offset 16 
 .cfi_offset 6, -16 
 movq %rsp, %rbp 
 .cfi_def_cfa_register 6 
 movl $.LC0, %edi 
 movl $0, %eax 
 call printf 
 movl $0, %eax 
 popq %rbp 
 .cfi_def_cfa 7, 8 
 ret 
 .cfi_endproc 
 .LFE0: 
 .size main, .-main 
 .ident "GCC: (Ubuntu 5.4.0-6ubuntu1~16.04.4) 5.4.0 20160609" 
 .section .note.GNU-stack,"",@progbits 
 .file "printFile217.c" 
 .section .rodata 
 .align 8 
 .LC0: 
 .string "vbchjdkylrimdbqgwghqqrvtjctjtmcrpgybklcvelkhobnmjxfcpdvbipnceptvwuwjhahlnuuexlqkjymbejdmbqqgimehicsreddrxavxlpiuqvyuhcyqmrllmfwcefgatcmdaxhojvdhxufso\177" 
 .text 
 .globl main 
 .type main, @function 
 main: 
 .LFB0: 
 .cfi_startproc 
 pushq %rbp 
 .cfi_def_cfa_offset 16 
 .cfi_offset 6, -16 
 movq %rsp, %rbp 
 .cfi_def_cfa_register 6 
 movl $.LC0, %edi 
 movl $0, %eax 
 call printf 
 movl $0, %eax 
 popq %rbp 
 .cfi_def_cfa 7, 8 
 ret 
 .cfi_endproc 
 .LFE0: 
 .size main, .-main 
 .ident "GCC: (Ubuntu 5.4.0-6ubuntu1~16.04.4) 5.4.0 20160609" 
 .section .note.GNU-stack,"",@progbits 
 .file "printFile218.c" 
 .section .rodata 
 .align 8 
 .LC0: 
 .string "iubqfovpyaimdbqgwghqqrvtjctjtmcrpgybklcvelkhobnmjxfcpdvbipnceptvwuwjhahlnuuexlqkjymbejdmbqqgimehicsreddrxavxlpiuqvyuhcyqmrllmfwcefgatcmdaxhojvdhxufso\177" 
 .text 
 .globl main 
 .type main, @function 
 main: 
 .LFB0: 
 .cfi_startproc 
 pushq %rbp 
 .cfi_def_cfa_offset 16 
 .cfi_offset 6, -16 
 movq %rsp, %rbp 
 .cfi_def_cfa_register 6 
 movl $.LC0, %edi 
 movl $0, %eax 
 call printf 
 movl $0, %eax 
 popq %rbp 
 .cfi_def_cfa 7, 8 
 ret 
 .cfi_endproc 
 .LFE0: 
 .size main, .-main 
 .ident "GCC: (Ubuntu 5.4.0-6ubuntu1~16.04.4) 5.4.0 20160609" 
 .section .note.GNU-stack,"",@progbits 
 .file "printFile219.c" 
 .section .rodata 
 .align 8 
 .LC0: 
 .string "qelvvlvtyaimdbqgwghqqrvtjctjtmcrpgybklcvelkhobnmjxfcpdvbipnceptvwuwjhahlnuuexlqkjymbejdmbqqgimehicsreddrxavxlpiuqvyuhcyqmrllmfwcefgatcmdaxhojvdhxufso\177" 
 .text 
 .globl main 
 .type main, @function 
 main: 
 .LFB0: 
 .cfi_startproc 
 pushq %rbp 
 .cfi_def_cfa_offset 16 
 .cfi_offset 6, -16 
 movq %rsp, %rbp 
 .cfi_def_cfa_register 6 
 movl $.LC0, %edi 
 movl $0, %eax 
 call printf 
 movl $0, %eax 
 popq %rbp 
 .cfi_def_cfa 7, 8 
 ret 
 .cfi_endproc 
 .LFE0: 
 .size main, .-main 
 .ident "GCC: (Ubuntu 5.4.0-6ubuntu1~16.04.4) 5.4.0 20160609" 
 .section .note.GNU-stack,"",@progbits 
 .file "printFile220.c" 
 .section .rodata 
 .align 8 
 .LC0: 
 .string "ijufcseaaikjdlalcxbbxjtcxpajmuvugtcjmhjnpvyvhbhmaipatkdrafemacjjxmulvgbnccjldsxfbogxylpbqvotbadyoxmkepbirktvesbhjhfkuxlmvcgwdlwtjlhpcixtsxhojvdhxufso\177" 
 .text 
 .globl main 
 .type main, @function 
 main: 
 .LFB0: 
 .cfi_startproc 
 pushq %rbp 
 .cfi_def_cfa_offset 16 
 .cfi_offset 6, -16 
 movq %rsp, %rbp 
 .cfi_def_cfa_register 6 
 movl $.LC0, %edi 
 movl $0, %eax 
 call printf 
 movl $0, %eax 
 popq %rbp 
 .cfi_def_cfa 7, 8 
 ret 
 .cfi_endproc 
 .LFE0: 
 .size main, .-main 
 .ident "GCC: (Ubuntu 5.4.0-6ubuntu1~16.04.4) 5.4.0 20160609" 
 .section .note.GNU-stack,"",@progbits 
 .file "printFile221.c" 
 .section .rodata 
 .align 8 
 .LC0: 
 .string "pyothxdoiymwnjyviehhyqtiivqirlcklreupjjbiyxxkytsebbdtwncuemmppwdhdaynmcxlcwvcqqgurloqytlfgywvxbfedhtpjtbmqyqkswhkkvelrpqyqnwrqdvukrkvlokfpbrixyvxufso\177" 
 .text 
 .globl main 
 .type main, @function 
 main: 
 .LFB0: 
 .cfi_startproc 
 pushq %rbp 
 .cfi_def_cfa_offset 16 
 .cfi_offset 6, -16 
 movq %rsp, %rbp 
 .cfi_def_cfa_register 6 
 movl $.LC0, %edi 
 movl $0, %eax 
 call printf 
 movl $0, %eax 
 popq %rbp 
 .cfi_def_cfa 7, 8 
 ret 
 .cfi_endproc 
 .LFE0: 
 .size main, .-main 
 .ident "GCC: (Ubuntu 5.4.0-6ubuntu1~16.04.4) 5.4.0 20160609" 
 .section .note.GNU-stack,"",@progbits 
 .file "printFile222.c" 
 .section .rodata 
 .align 8 
 .LC0: 
 .string "wavprmqjdnbtsyqfqeccumhmqyvoatcxvxpnngysvaopbgurmyuhoetfgrvgnxejyvaocbhycxqfglxsnuacyuhfofodeumfrottqduudlakaawhkkvelrpqyqnwrqdvukrkvlokfpbrixyvxufso\177" 
 .text 
 .globl main 
 .type main, @function 
 main: 
 .LFB0: 
 .cfi_startproc 
 pushq %rbp 
 .cfi_def_cfa_offset 16 
 .cfi_offset 6, -16 
 movq %rsp, %rbp 
 .cfi_def_cfa_register 6 
 movl $.LC0, %edi 
 movl $0, %eax 
 call printf 
 movl $0, %eax 
 popq %rbp 
 .cfi_def_cfa 7, 8 
 ret 
 .cfi_endproc 
 .LFE0: 
 .size main, .-main 
 .ident "GCC: (Ubuntu 5.4.0-6ubuntu1~16.04.4) 5.4.0 20160609" 
 .section .note.GNU-stack,"",@progbits 
 .file "printFile223.c" 
 .section .rodata 
 .align 8 
 .LC0: 
 .string "nuepwbycresukokrgynarsxmwjphjpmwnqoktpomwijhwtcdvpfnjetfgrvgnxejyvaocbhycxqfglxsnuacyuhfofodeumfrottqduudlakaawhkkvelrpqyqnwrqdvukrkvlokfpbrixyvxufso\177" 
 .text 
 .globl main 
 .type main, @function 
 main: 
 .LFB0: 
 .cfi_startproc 
 pushq %rbp 
 .cfi_def_cfa_offset 16 
 .cfi_offset 6, -16 
 movq %rsp, %rbp 
 .cfi_def_cfa_register 6 
 movl $.LC0, %edi 
 movl $0, %eax 
 call printf 
 movl $0, %eax 
 popq %rbp 
 .cfi_def_cfa 7, 8 
 ret 
 .cfi_endproc 
 .LFE0: 
 .size main, .-main 
 .ident "GCC: (Ubuntu 5.4.0-6ubuntu1~16.04.4) 5.4.0 20160609" 
 .section .note.GNU-stack,"",@progbits 
 .file "printFile224.c" 
 .section .rodata 
 .align 8 
 .LC0: 
 .string "dgpspbkcyxvpkrgcefkoojkqoghvuqcxyrsosfqtgomqhuslafcoongfgrvgnxejyvaocbhycxqfglxsnuacyuhfofodeumfrottqduudlakaawhkkvelrpqyqnwrqdvukrkvlokfpbrixyvxufso\177" 
 .text 
 .globl main 
 .type main, @function 
 main: 
 .LFB0: 
 .cfi_startproc 
 pushq %rbp 
 .cfi_def_cfa_offset 16 
 .cfi_offset 6, -16 
 movq %rsp, %rbp 
 .cfi_def_cfa_register 6 
 movl $.LC0, %edi 
 movl $0, %eax 
 call printf 
 movl $0, %eax 
 popq %rbp 
 .cfi_def_cfa 7, 8 
 ret 
 .cfi_endproc 
 .LFE0: 
 .size main, .-main 
 .ident "GCC: (Ubuntu 5.4.0-6ubuntu1~16.04.4) 5.4.0 20160609" 
 .section .note.GNU-stack,"",@progbits 
 .file "printFile225.c" 
 .section .rodata 
 .LC0: 
 .string "vna" 
 .text 
 .globl main 
 .type main, @function 
 main: 
 .LFB0: 
 .cfi_startproc 
 pushq %rbp 
 .cfi_def_cfa_offset 16 
 .cfi_offset 6, -16 
 movq %rsp, %rbp 
 .cfi_def_cfa_register 6 
 movl $.LC0, %edi 
 movl $0, %eax 
 call printf 
 movl $0, %eax 
 popq %rbp 
 .cfi_def_cfa 7, 8 
 ret 
 .cfi_endproc 
 .LFE0: 
 .size main, .-main 
 .ident "GCC: (Ubuntu 5.4.0-6ubuntu1~16.04.4) 5.4.0 20160609" 
 .section .note.GNU-stack,"",@progbits 
 .file "printFile226.c" 
 .section .rodata 
 .align 8 
 .LC0: 
 .string "gcqfvjtqpmlvexolsiyuncjfrpinfkhloxskkmcacpxgpmrkwsfnwosqhdfmoobfmtswjwynmytconolitygktwrxehdeumfrottqduudlakaawhkkvelrpqyqnwrqdvukrkvlokfpbrixyvxufso\177" 
 .text 
 .globl main 
 .type main, @function 
 main: 
 .LFB0: 
 .cfi_startproc 
 pushq %rbp 
 .cfi_def_cfa_offset 16 
 .cfi_offset 6, -16 
 movq %rsp, %rbp 
 .cfi_def_cfa_register 6 
 movl $.LC0, %edi 
 movl $0, %eax 
 call printf 
 movl $0, %eax 
 popq %rbp 
 .cfi_def_cfa 7, 8 
 ret 
 .cfi_endproc 
 .LFE0: 
 .size main, .-main 
 .ident "GCC: (Ubuntu 5.4.0-6ubuntu1~16.04.4) 5.4.0 20160609" 
 .section .note.GNU-stack,"",@progbits 
 .file "printFile227.c" 
 .section .rodata 
 .align 8 
 .LC0: 
 .string "sivieohnljbaiwewmslvmmcxhbrhgyxyjtjojrcacpxgpmrkwsfnwosqhdfmoobfmtswjwynmytconolitygktwrxehdeumfrottqduudlakaawhkkvelrpqyqnwrqdvukrkvlokfpbrixyvxufso\177" 
 .text 
 .globl main 
 .type main, @function 
 main: 
 .LFB0: 
 .cfi_startproc 
 pushq %rbp 
 .cfi_def_cfa_offset 16 
 .cfi_offset 6, -16 
 movq %rsp, %rbp 
 .cfi_def_cfa_register 6 
 movl $.LC0, %edi 
 movl $0, %eax 
 call printf 
 movl $0, %eax 
 popq %rbp 
 .cfi_def_cfa 7, 8 
 ret 
 .cfi_endproc 
 .LFE0: 
 .size main, .-main 
 .ident "GCC: (Ubuntu 5.4.0-6ubuntu1~16.04.4) 5.4.0 20160609" 
 .section .note.GNU-stack,"",@progbits 
 .file "printFile228.c" 
 .section .rodata 
 .align 8 
 .LC0: 
 .string "bgxjdcjsvuqkjuisvdaccaemunbghfdinbsrgemcbdmkxxevbgbfhfteuwkddnlqrgkxmycncqbcqhbrncawjtbgrnjuexnvgottqduudlakaawhkkvelrpqyqnwrqdvukrkvlokfpbrixyvxufso\177" 
 .text 
 .globl main 
 .type main, @function 
 main: 
 .LFB0: 
 .cfi_startproc 
 pushq %rbp 
 .cfi_def_cfa_offset 16 
 .cfi_offset 6, -16 
 movq %rsp, %rbp 
 .cfi_def_cfa_register 6 
 movl $.LC0, %edi 
 movl $0, %eax 
 call printf 
 movl $0, %eax 
 popq %rbp 
 .cfi_def_cfa 7, 8 
 ret 
 .cfi_endproc 
 .LFE0: 
 .size main, .-main 
 .ident "GCC: (Ubuntu 5.4.0-6ubuntu1~16.04.4) 5.4.0 20160609" 
 .section .note.GNU-stack,"",@progbits 
 .file "printFile229.c" 
 .section .rodata 
 .align 8 
 .LC0: 
 .string "vtaajfqkjirkciochxwjfqyqldqbbxewtfwfmqsvykjduxgdyfofhfteuwkddnlqrgkxmycncqbcqhbrncawjtbgrnjuexnvgottqduudlakaawhkkvelrpqyqnwrqdvukrkvlokfpbrixyvxufso\177" 
 .text 
 .globl main 
 .type main, @function 
 main: 
 .LFB0: 
 .cfi_startproc 
 pushq %rbp 
 .cfi_def_cfa_offset 16 
 .cfi_offset 6, -16 
 movq %rsp, %rbp 
 .cfi_def_cfa_register 6 
 movl $.LC0, %edi 
 movl $0, %eax 
 call printf 
 movl $0, %eax 
 popq %rbp 
 .cfi_def_cfa 7, 8 
 ret 
 .cfi_endproc 
 .LFE0: 
 .size main, .-main 
 .ident "GCC: (Ubuntu 5.4.0-6ubuntu1~16.04.4) 5.4.0 20160609" 
 .section .note.GNU-stack,"",@progbits 
 .file "printFile230.c" 
 .section .rodata 
 .align 8 
 .LC0: 
 .string "vnwjromsorskwrpjiihjvsnqrvvqbkwyytiskulymgjlycwhkhtiahatfxmgjjhkgpdsmoscxepwgngrncawjtbgrnjuexnvgottqduudlakaawhkkvelrpqyqnwrqdvukrkvlokfpbrixyvxufso\177" 
 .text 
 .globl main 
 .type main, @function 
 main: 
 .LFB0: 
 .cfi_startproc 
 pushq %rbp 
 .cfi_def_cfa_offset 16 
 .cfi_offset 6, -16 
 movq %rsp, %rbp 
 .cfi_def_cfa_register 6 
 movl $.LC0, %edi 
 movl $0, %eax 
 call printf 
 movl $0, %eax 
 popq %rbp 
 .cfi_def_cfa 7, 8 
 ret 
 .cfi_endproc 
 .LFE0: 
 .size main, .-main 
 .ident "GCC: (Ubuntu 5.4.0-6ubuntu1~16.04.4) 5.4.0 20160609" 
 .section .note.GNU-stack,"",@progbits 
 .file "printFile231.c" 
 .section .rodata 
 .align 8 
 .LC0: 
 .string "wacwjerodewoqeyyvcrjvsnqrvvqbkwyytiskulymgjlycwhkhtiahatfxmgjjhkgpdsmoscxepwgngrncawjtbgrnjuexnvgottqduudlakaawhkkvelrpqyqnwrqdvukrkvlokfpbrixyvxufso\177" 
 .text 
 .globl main 
 .type main, @function 
 main: 
 .LFB0: 
 .cfi_startproc 
 pushq %rbp 
 .cfi_def_cfa_offset 16 
 .cfi_offset 6, -16 
 movq %rsp, %rbp 
 .cfi_def_cfa_register 6 
 movl $.LC0, %edi 
 movl $0, %eax 
 call printf 
 movl $0, %eax 
 popq %rbp 
 .cfi_def_cfa 7, 8 
 ret 
 .cfi_endproc 
 .LFE0: 
 .size main, .-main 
 .ident "GCC: (Ubuntu 5.4.0-6ubuntu1~16.04.4) 5.4.0 20160609" 
 .section .note.GNU-stack,"",@progbits 
 .file "printFile232.c" 
 .section .rodata 
 .align 8 
 .LC0: 
 .string "smnqtdncswvpybnjhhaknxbgeafbeamxoaqifhlyejodmeoulphapjgtlowqqjoflhqtoessphydmnxafhcuqjrdaovqbmxotoijsdejldmarawhkkvelrpqyqnwrqdvukrkvlokfpbrixyvxufso\177" 
 .text 
 .globl main 
 .type main, @function 
 main: 
 .LFB0: 
 .cfi_startproc 
 pushq %rbp 
 .cfi_def_cfa_offset 16 
 .cfi_offset 6, -16 
 movq %rsp, %rbp 
 .cfi_def_cfa_register 6 
 movl $.LC0, %edi 
 movl $0, %eax 
 call printf 
 movl $0, %eax 
 popq %rbp 
 .cfi_def_cfa 7, 8 
 ret 
 .cfi_endproc 
 .LFE0: 
 .size main, .-main 
 .ident "GCC: (Ubuntu 5.4.0-6ubuntu1~16.04.4) 5.4.0 20160609" 
 .section .note.GNU-stack,"",@progbits 
 .file "printFile233.c" 
 .section .rodata 
 .align 8 
 .LC0: 
 .string "cwtfunqmsqdoybnjhhaknxbgeafbeamxoaqifhlyejodmeoulphapjgtlowqqjoflhqtoessphydmnxafhcuqjrdaovqbmxotoijsdejldmarawhkkvelrpqyqnwrqdvukrkvlokfpbrixyvxufso\177" 
 .text 
 .globl main 
 .type main, @function 
 main: 
 .LFB0: 
 .cfi_startproc 
 pushq %rbp 
 .cfi_def_cfa_offset 16 
 .cfi_offset 6, -16 
 movq %rsp, %rbp 
 .cfi_def_cfa_register 6 
 movl $.LC0, %edi 
 movl $0, %eax 
 call printf 
 movl $0, %eax 
 popq %rbp 
 .cfi_def_cfa 7, 8 
 ret 
 .cfi_endproc 
 .LFE0: 
 .size main, .-main 
 .ident "GCC: (Ubuntu 5.4.0-6ubuntu1~16.04.4) 5.4.0 20160609" 
 .section .note.GNU-stack,"",@progbits 
 .file "printFile234.c" 
 .section .rodata 
 .align 8 
 .LC0: 
 .string "gdhxwwgirknbxqpakeekbjfqatjsyacgdmecjmldybhytybfegrhpwxsshnrjqxofeqqtetuhbucbxjhebowqjrdaovqbmxotoijsdejldmarawhkkvelrpqyqnwrqdvukrkvlokfpbrixyvxufso\177" 
 .text 
 .globl main 
 .type main, @function 
 main: 
 .LFB0: 
 .cfi_startproc 
 pushq %rbp 
 .cfi_def_cfa_offset 16 
 .cfi_offset 6, -16 
 movq %rsp, %rbp 
 .cfi_def_cfa_register 6 
 movl $.LC0, %edi 
 movl $0, %eax 
 call printf 
 movl $0, %eax 
 popq %rbp 
 .cfi_def_cfa 7, 8 
 ret 
 .cfi_endproc 
 .LFE0: 
 .size main, .-main 
 .ident "GCC: (Ubuntu 5.4.0-6ubuntu1~16.04.4) 5.4.0 20160609" 
 .section .note.GNU-stack,"",@progbits 
 .file "printFile235.c" 
 .section .rodata 
 .align 8 
 .LC0: 
 .string "mrsvfkfxjtdpmtjtohbrcfucochrqgrfxkbdvgchchwrcjlsqorhpwxsshnrjqxofeqqtetuhbucbxjhebowqjrdaovqbmxotoijsdejldmarawhkkvelrpqyqnwrqdvukrkvlokfpbrixyvxufso\177" 
 .text 
 .globl main 
 .type main, @function 
 main: 
 .LFB0: 
 .cfi_startproc 
 pushq %rbp 
 .cfi_def_cfa_offset 16 
 .cfi_offset 6, -16 
 movq %rsp, %rbp 
 .cfi_def_cfa_register 6 
 movl $.LC0, %edi 
 movl $0, %eax 
 call printf 
 movl $0, %eax 
 popq %rbp 
 .cfi_def_cfa 7, 8 
 ret 
 .cfi_endproc 
 .LFE0: 
 .size main, .-main 
 .ident "GCC: (Ubuntu 5.4.0-6ubuntu1~16.04.4) 5.4.0 20160609" 
 .section .note.GNU-stack,"",@progbits 
 .file "printFile236.c" 
 .section .rodata 
 .align 8 
 .LC0: 
 .string "uwiwnkggemxjmllshtwqwepoiycbrsoopwogjwmnmmxyxjrhfoxcvosepwikqybixpohpdvcsvdqhxbmoypkpkrdaovqbmxotoijsdejldmarawhkkvelrpqyqnwrqdvukrkvlokfpbrixyvxufso\177" 
 .text 
 .globl main 
 .type main, @function 
 main: 
 .LFB0: 
 .cfi_startproc 
 pushq %rbp 
 .cfi_def_cfa_offset 16 
 .cfi_offset 6, -16 
 movq %rsp, %rbp 
 .cfi_def_cfa_register 6 
 movl $.LC0, %edi 
 movl $0, %eax 
 call printf 
 movl $0, %eax 
 popq %rbp 
 .cfi_def_cfa 7, 8 
 ret 
 .cfi_endproc 
 .LFE0: 
 .size main, .-main 
 .ident "GCC: (Ubuntu 5.4.0-6ubuntu1~16.04.4) 5.4.0 20160609" 
 .section .note.GNU-stack,"",@progbits 
 .file "printFile237.c" 
 .section .rodata 
 .align 8 
 .LC0: 
 .string "kasdytggemxjmllshtwqwepoiycbrsoopwogjwmnmmxyxjrhfoxcvosepwikqybixpohpdvcsvdqhxbmoypkpkrdaovqbmxotoijsdejldmarawhkkvelrpqyqnwrqdvukrkvlokfpbrixyvxufso\177" 
 .text 
 .globl main 
 .type main, @function 
 main: 
 .LFB0: 
 .cfi_startproc 
 pushq %rbp 
 .cfi_def_cfa_offset 16 
 .cfi_offset 6, -16 
 movq %rsp, %rbp 
 .cfi_def_cfa_register 6 
 movl $.LC0, %edi 
 movl $0, %eax 
 call printf 
 movl $0, %eax 
 popq %rbp 
 .cfi_def_cfa 7, 8 
 ret 
 .cfi_endproc 
 .LFE0: 
 .size main, .-main 
 .ident "GCC: (Ubuntu 5.4.0-6ubuntu1~16.04.4) 5.4.0 20160609" 
 .section .note.GNU-stack,"",@progbits 
 .file "printFile238.c" 
 .section .rodata 
 .align 8 
 .LC0: 
 .string "wmdgcicgbaluhjvuywmlnydtjdomeibdwekyoohqptnwdjteggqtgvprcefgpybixpohpdvcsvdqhxbmoypkpkrdaovqbmxotoijsdejldmarawhkkvelrpqyqnwrqdvukrkvlokfpbrixyvxufso\177" 
 .text 
 .globl main 
 .type main, @function 
 main: 
 .LFB0: 
 .cfi_startproc 
 pushq %rbp 
 .cfi_def_cfa_offset 16 
 .cfi_offset 6, -16 
 movq %rsp, %rbp 
 .cfi_def_cfa_register 6 
 movl $.LC0, %edi 
 movl $0, %eax 
 call printf 
 movl $0, %eax 
 popq %rbp 
 .cfi_def_cfa 7, 8 
 ret 
 .cfi_endproc 
 .LFE0: 
 .size main, .-main 
 .ident "GCC: (Ubuntu 5.4.0-6ubuntu1~16.04.4) 5.4.0 20160609" 
 .section .note.GNU-stack,"",@progbits 
 .file "printFile239.c" 
 .section .rodata 
 .align 8 
 .LC0: 
 .string "kmmuobcgbaluhjvuywmlnydtjdomeibdwekyoohqptnwdjteggqtgvprcefgpybixpohpdvcsvdqhxbmoypkpkrdaovqbmxotoijsdejldmarawhkkvelrpqyqnwrqdvukrkvlokfpbrixyvxufso\177" 
 .text 
 .globl main 
 .type main, @function 
 main: 
 .LFB0: 
 .cfi_startproc 
 pushq %rbp 
 .cfi_def_cfa_offset 16 
 .cfi_offset 6, -16 
 movq %rsp, %rbp 
 .cfi_def_cfa_register 6 
 movl $.LC0, %edi 
 movl $0, %eax 
 call printf 
 movl $0, %eax 
 popq %rbp 
 .cfi_def_cfa 7, 8 
 ret 
 .cfi_endproc 
 .LFE0: 
 .size main, .-main 
 .ident "GCC: (Ubuntu 5.4.0-6ubuntu1~16.04.4) 5.4.0 20160609" 
 .section .note.GNU-stack,"",@progbits 
 .file "printFile240.c" 
 .section .rodata 
 .align 8 
 .LC0: 
 .string "vtbrhyxqscacuvktmcvsjeipoxclmgxkcydkabdtffxdckwomsjwwuoostchcatecyoccuxiavlciksvffuealsufxcjaxocxffaadkdcxfkibingfsgtndbnhlofaqdfxggeqokfpbrixyvxufso\177" 
 .text 
 .globl main 
 .type main, @function 
 main: 
 .LFB0: 
 .cfi_startproc 
 pushq %rbp 
 .cfi_def_cfa_offset 16 
 .cfi_offset 6, -16 
 movq %rsp, %rbp 
 .cfi_def_cfa_register 6 
 movl $.LC0, %edi 
 movl $0, %eax 
 call printf 
 movl $0, %eax 
 popq %rbp 
 .cfi_def_cfa 7, 8 
 ret 
 .cfi_endproc 
 .LFE0: 
 .size main, .-main 
 .ident "GCC: (Ubuntu 5.4.0-6ubuntu1~16.04.4) 5.4.0 20160609" 
 .section .note.GNU-stack,"",@progbits 
 .file "printFile241.c" 
 .section .rodata 
 .align 8 
 .LC0: 
 .string "gpqsxreoaljifylhnsscyuueatkixctgrnbrhfgitpqbpfifxdhyacebxqlvsgcmvghdnnlhgfjxktfkammaalsufxcjaxocxffaadkdcxfkibingfsgtndbnhlofaqdfxggeqokfpbrixyvxufso\177" 
 .text 
 .globl main 
 .type main, @function 
 main: 
 .LFB0: 
 .cfi_startproc 
 pushq %rbp 
 .cfi_def_cfa_offset 16 
 .cfi_offset 6, -16 
 movq %rsp, %rbp 
 .cfi_def_cfa_register 6 
 movl $.LC0, %edi 
 movl $0, %eax 
 call printf 
 movl $0, %eax 
 popq %rbp 
 .cfi_def_cfa 7, 8 
 ret 
 .cfi_endproc 
 .LFE0: 
 .size main, .-main 
 .ident "GCC: (Ubuntu 5.4.0-6ubuntu1~16.04.4) 5.4.0 20160609" 
 .section .note.GNU-stack,"",@progbits 
 .file "printFile242.c" 
 .section .rodata 
 .align 8 
 .LC0: 
 .string "sdrjpnfxsttybwmrnsscyuueatkixctgrnbrhfgitpqbpfifxdhyacebxqlvsgcmvghdnnlhgfjxktfkammaalsufxcjaxocxffaadkdcxfkibingfsgtndbnhlofaqdfxggeqokfpbrixyvxufso\177" 
 .text 
 .globl main 
 .type main, @function 
 main: 
 .LFB0: 
 .cfi_startproc 
 pushq %rbp 
 .cfi_def_cfa_offset 16 
 .cfi_offset 6, -16 
 movq %rsp, %rbp 
 .cfi_def_cfa_register 6 
 movl $.LC0, %edi 
 movl $0, %eax 
 call printf 
 movl $0, %eax 
 popq %rbp 
 .cfi_def_cfa 7, 8 
 ret 
 .cfi_endproc 
 .LFE0: 
 .size main, .-main 
 .ident "GCC: (Ubuntu 5.4.0-6ubuntu1~16.04.4) 5.4.0 20160609" 
 .section .note.GNU-stack,"",@progbits 
 .file "printFile243.c" 
 .section .rodata 
 .align 8 
 .LC0: 
 .string "wasiafcfpetcfmwiehasmxnitokrbcfaexiedljurdawpwiuekpsjfcdtowwqexucgyftkdmndlfavchhtasyesufxcjaxocxffaadkdcxfkibingfsgtndbnhlofaqdfxggeqokfpbrixyvxufso\177" 
 .text 
 .globl main 
 .type main, @function 
 main: 
 .LFB0: 
 .cfi_startproc 
 pushq %rbp 
 .cfi_def_cfa_offset 16 
 .cfi_offset 6, -16 
 movq %rsp, %rbp 
 .cfi_def_cfa_register 6 
 movl $.LC0, %edi 
 movl $0, %eax 
 call printf 
 movl $0, %eax 
 popq %rbp 
 .cfi_def_cfa 7, 8 
 ret 
 .cfi_endproc 
 .LFE0: 
 .size main, .-main 
 .ident "GCC: (Ubuntu 5.4.0-6ubuntu1~16.04.4) 5.4.0 20160609" 
 .section .note.GNU-stack,"",@progbits 
 .file "printFile244.c" 
 .section .rodata 
 .align 8 
 .LC0: 
 .string "usvslcsgfyhmvtpkjsxrvutitokrbcfaexiedljurdawpwiuekpsjfcdtowwqexucgyftkdmndlfavchhtasyesufxcjaxocxffaadkdcxfkibingfsgtndbnhlofaqdfxggeqokfpbrixyvxufso\177" 
 .text 
 .globl main 
 .type main, @function 
 main: 
 .LFB0: 
 .cfi_startproc 
 pushq %rbp 
 .cfi_def_cfa_offset 16 
 .cfi_offset 6, -16 
 movq %rsp, %rbp 
 .cfi_def_cfa_register 6 
 movl $.LC0, %edi 
 movl $0, %eax 
 call printf 
 movl $0, %eax 
 popq %rbp 
 .cfi_def_cfa 7, 8 
 ret 
 .cfi_endproc 
 .LFE0: 
 .size main, .-main 
 .ident "GCC: (Ubuntu 5.4.0-6ubuntu1~16.04.4) 5.4.0 20160609" 
 .section .note.GNU-stack,"",@progbits 
 .file "printFile245.c" 
 .section .rodata 
 .align 8 
 .LC0: 
 .string "eqfwrkundsipvbxbcipxegkobjgwgcaksghlsebvxlntmowqyorducrwnxvtdwevfnjxsmvqxmmmbleaavdxxxwmxsibpnawbjwtytmwiymjmqlnmqnmokbpdkqvxqsbfxggeqokfpbrixyvxufso\177" 
 .text 
 .globl main 
 .type main, @function 
 main: 
 .LFB0: 
 .cfi_startproc 
 pushq %rbp 
 .cfi_def_cfa_offset 16 
 .cfi_offset 6, -16 
 movq %rsp, %rbp 
 .cfi_def_cfa_register 6 
 movl $.LC0, %edi 
 movl $0, %eax 
 call printf 
 movl $0, %eax 
 popq %rbp 
 .cfi_def_cfa 7, 8 
 ret 
 .cfi_endproc 
 .LFE0: 
 .size main, .-main 
 .ident "GCC: (Ubuntu 5.4.0-6ubuntu1~16.04.4) 5.4.0 20160609" 
 .section .note.GNU-stack,"",@progbits 
 .file "printFile246.c" 
 .section .rodata 
 .LC0: 
 .string "sxc" 
 .text 
 .globl main 
 .type main, @function 
 main: 
 .LFB0: 
 .cfi_startproc 
 pushq %rbp 
 .cfi_def_cfa_offset 16 
 .cfi_offset 6, -16 
 movq %rsp, %rbp 
 .cfi_def_cfa_register 6 
 movl $.LC0, %edi 
 movl $0, %eax 
 call printf 
 movl $0, %eax 
 popq %rbp 
 .cfi_def_cfa 7, 8 
 ret 
 .cfi_endproc 
 .LFE0: 
 .size main, .-main 
 .ident "GCC: (Ubuntu 5.4.0-6ubuntu1~16.04.4) 5.4.0 20160609" 
 .section .note.GNU-stack,"",@progbits 
 .file "printFile247.c" 
 .section .rodata 
 .align 8 
 .LC0: 
 .string "kbwmngygtosmcicmjtstmotgjvjcvnqgqnshvebvxlntmowqyorducrwnxvtdwevfnjxsmvqxmmmbleaavdxxxwmxsibpnawbjwtytmwiymjmqlnmqnmokbpdkqvxqsbfxggeqokfpbrixyvxufso\177" 
 .text 
 .globl main 
 .type main, @function 
 main: 
 .LFB0: 
 .cfi_startproc 
 pushq %rbp 
 .cfi_def_cfa_offset 16 
 .cfi_offset 6, -16 
 movq %rsp, %rbp 
 .cfi_def_cfa_register 6 
 movl $.LC0, %edi 
 movl $0, %eax 
 call printf 
 movl $0, %eax 
 popq %rbp 
 .cfi_def_cfa 7, 8 
 ret 
 .cfi_endproc 
 .LFE0: 
 .size main, .-main 
 .ident "GCC: (Ubuntu 5.4.0-6ubuntu1~16.04.4) 5.4.0 20160609" 
 .section .note.GNU-stack,"",@progbits 
 .file "printFile248.c" 
 .section .rodata 
 .align 8 
 .LC0: 
 .string "npjjdorhdbbvxpkrvupfwluqumenvbkjsusxlmfooiloyviusydsmajhonxkqiwkfpiqdqitbticpsxlrdehdnqudqfucchjurdaklvmfgowyoittmbactugdkqvxqsbfxggeqokfpbrixyvxufso\177" 
 .text 
 .globl main 
 .type main, @function 
 main: 
 .LFB0: 
 .cfi_startproc 
 pushq %rbp 
 .cfi_def_cfa_offset 16 
 .cfi_offset 6, -16 
 movq %rsp, %rbp 
 .cfi_def_cfa_register 6 
 movl $.LC0, %edi 
 movl $0, %eax 
 call printf 
 movl $0, %eax 
 popq %rbp 
 .cfi_def_cfa 7, 8 
 ret 
 .cfi_endproc 
 .LFE0: 
 .size main, .-main 
 .ident "GCC: (Ubuntu 5.4.0-6ubuntu1~16.04.4) 5.4.0 20160609" 
 .section .note.GNU-stack,"",@progbits 
 .file "printFile249.c" 
 .section .rodata 
 .align 8 
 .LC0: 
 .string "adnfmwagcarnvgsewqdobwiqxissdbgggvlulmfooiloyviusydsmajhonxkqiwkfpiqdqitbticpsxlrdehdnqudqfucchjurdaklvmfgowyoittmbactugdkqvxqsbfxggeqokfpbrixyvxufso\177" 
 .text 
 .globl main 
 .type main, @function 
 main: 
 .LFB0: 
 .cfi_startproc 
 pushq %rbp 
 .cfi_def_cfa_offset 16 
 .cfi_offset 6, -16 
 movq %rsp, %rbp 
 .cfi_def_cfa_register 6 
 movl $.LC0, %edi 
 movl $0, %eax 
 call printf 
 movl $0, %eax 
 popq %rbp 
 .cfi_def_cfa 7, 8 
 ret 
 .cfi_endproc 
 .LFE0: 
 .size main, .-main 
 .ident "GCC: (Ubuntu 5.4.0-6ubuntu1~16.04.4) 5.4.0 20160609" 
 .section .note.GNU-stack,"",@progbits 
 .file "printFile250.c" 
 .section .rodata 
 .align 8 
 .LC0: 
 .string "ncxpvlnefrbxupysyrsjbwiqxissdbgggvlulmfooiloyviusydsmajhonxkqiwkfpiqdqitbticpsxlrdehdnqudqfucchjurdaklvmfgowyoittmbactugdkqvxqsbfxggeqokfpbrixyvxufso\177" 
 .text 
 .globl main 
 .type main, @function 
 main: 
 .LFB0: 
 .cfi_startproc 
 pushq %rbp 
 .cfi_def_cfa_offset 16 
 .cfi_offset 6, -16 
 movq %rsp, %rbp 
 .cfi_def_cfa_register 6 
 movl $.LC0, %edi 
 movl $0, %eax 
 call printf 
 movl $0, %eax 
 popq %rbp 
 .cfi_def_cfa 7, 8 
 ret 
 .cfi_endproc 
 .LFE0: 
 .size main, .-main 
 .ident "GCC: (Ubuntu 5.4.0-6ubuntu1~16.04.4) 5.4.0 20160609" 
 .section .note.GNU-stack,"",@progbits 
 .file "printFile251.c" 
 .section .rodata 
 .align 8 
 .LC0: 
 .string "npotvvpjqlyujoswcwctbcqqejrvfcjstyppufbnsaleqgcsegofjhxntqlyuiwkfpiqdqitbticpsxlrdehdnqudqfucchjurdaklvmfgowyoittmbactugdkqvxqsbfxggeqokfpbrixyvxufso\177" 
 .text 
 .globl main 
 .type main, @function 
 main: 
 .LFB0: 
 .cfi_startproc 
 pushq %rbp 
 .cfi_def_cfa_offset 16 
 .cfi_offset 6, -16 
 movq %rsp, %rbp 
 .cfi_def_cfa_register 6 
 movl $.LC0, %edi 
 movl $0, %eax 
 call printf 
 movl $0, %eax 
 popq %rbp 
 .cfi_def_cfa 7, 8 
 ret 
 .cfi_endproc 
 .LFE0: 
 .size main, .-main 
 .ident "GCC: (Ubuntu 5.4.0-6ubuntu1~16.04.4) 5.4.0 20160609" 
 .section .note.GNU-stack,"",@progbits 
 .file "printFile252.c" 
 .section .rodata 
 .align 8 
 .LC0: 
 .string "rouhgrpjhilsncarugxlnhslwmejnyhgpcpxvhhdssyiwbcsegofjhxntqlyuiwkfpiqdqitbticpsxlrdehdnqudqfucchjurdaklvmfgowyoittmbactugdkqvxqsbfxggeqokfpbrixyvxufso\177" 
 .text 
 .globl main 
 .type main, @function 
 main: 
 .LFB0: 
 .cfi_startproc 
 pushq %rbp 
 .cfi_def_cfa_offset 16 
 .cfi_offset 6, -16 
 movq %rsp, %rbp 
 .cfi_def_cfa_register 6 
 movl $.LC0, %edi 
 movl $0, %eax 
 call printf 
 movl $0, %eax 
 popq %rbp 
 .cfi_def_cfa 7, 8 
 ret 
 .cfi_endproc 
 .LFE0: 
 .size main, .-main 
 .ident "GCC: (Ubuntu 5.4.0-6ubuntu1~16.04.4) 5.4.0 20160609" 
 .section .note.GNU-stack,"",@progbits 
 .file "printFile253.c" 
 .section .rodata 
 .align 8 
 .LC0: 
 .string "rhxfugbifnnocoxkhacfvmpcfkbnicncllkitlqabgqfxprfrumqjesopteaxrejfotcameevwjtocbhynxiuqwmmdmmuqxcirgkklvmfgowyoittmbactugdkqvxqsbfxggeqokfpbrixyvxufso\177" 
 .text 
 .globl main 
 .type main, @function 
 main: 
 .LFB0: 
 .cfi_startproc 
 pushq %rbp 
 .cfi_def_cfa_offset 16 
 .cfi_offset 6, -16 
 movq %rsp, %rbp 
 .cfi_def_cfa_register 6 
 movl $.LC0, %edi 
 movl $0, %eax 
 call printf 
 movl $0, %eax 
 popq %rbp 
 .cfi_def_cfa 7, 8 
 ret 
 .cfi_endproc 
 .LFE0: 
 .size main, .-main 
 .ident "GCC: (Ubuntu 5.4.0-6ubuntu1~16.04.4) 5.4.0 20160609" 
 .section .note.GNU-stack,"",@progbits 
 .file "printFile254.c" 
 .section .rodata 
 .align 8 
 .LC0: 
 .string "mockyvybygcpgkkyjwnmlajexnmruxycllkitlqabgqfxprfrumqjesopteaxrejfotcameevwjtocbhynxiuqwmmdmmuqxcirgkklvmfgowyoittmbactugdkqvxqsbfxggeqokfpbrixyvxufso\177" 
 .text 
 .globl main 
 .type main, @function 
 main: 
 .LFB0: 
 .cfi_startproc 
 pushq %rbp 
 .cfi_def_cfa_offset 16 
 .cfi_offset 6, -16 
 movq %rsp, %rbp 
 .cfi_def_cfa_register 6 
 movl $.LC0, %edi 
 movl $0, %eax 
 call printf 
 movl $0, %eax 
 popq %rbp 
 .cfi_def_cfa 7, 8 
 ret 
 .cfi_endproc 
 .LFE0: 
 .size main, .-main 
 .ident "GCC: (Ubuntu 5.4.0-6ubuntu1~16.04.4) 5.4.0 20160609" 
 .section .note.GNU-stack,"",@progbits 
 .file "printFile255.c" 
 .section .rodata 
 .align 8 
 .LC0: 
 .string "mbrnatqbasqjdbimawylyiqxydrtdsdsuvgwrxxrspdwsmlvlnhkxakwgteaxrejfotcameevwjtocbhynxiuqwmmdmmuqxcirgkklvmfgowyoittmbactugdkqvxqsbfxggeqokfpbrixyvxufso\177" 
 .text 
 .globl main 
 .type main, @function 
 main: 
 .LFB0: 
 .cfi_startproc 
 pushq %rbp 
 .cfi_def_cfa_offset 16 
 .cfi_offset 6, -16 
 movq %rsp, %rbp 
 .cfi_def_cfa_register 6 
 movl $.LC0, %edi 
 movl $0, %eax 
 call printf 
 movl $0, %eax 
 popq %rbp 
 .cfi_def_cfa 7, 8 
 ret 
 .cfi_endproc 
 .LFE0: 
 .size main, .-main 
 .ident "GCC: (Ubuntu 5.4.0-6ubuntu1~16.04.4) 5.4.0 20160609" 
 .section .note.GNU-stack,"",@progbits 
 .file "printFile256.c" 
 .section .rodata 
 .align 8 
 .LC0: 
 .string "sjvwesulrmlsgekkddwrykhjufjgfrlxejuifpvwchpjoattgsnhdakwgteaxrejfotcameevwjtocbhynxiuqwmmdmmuqxcirgkklvmfgowyoittmbactugdkqvxqsbfxggeqokfpbrixyvxufso\177" 
 .text 
 .globl main 
 .type main, @function 
 main: 
 .LFB0: 
 .cfi_startproc 
 pushq %rbp 
 .cfi_def_cfa_offset 16 
 .cfi_offset 6, -16 
 movq %rsp, %rbp 
 .cfi_def_cfa_register 6 
 movl $.LC0, %edi 
 movl $0, %eax 
 call printf 
 movl $0, %eax 
 popq %rbp 
 .cfi_def_cfa 7, 8 
 ret 
 .cfi_endproc 
 .LFE0: 
 .size main, .-main 
 .ident "GCC: (Ubuntu 5.4.0-6ubuntu1~16.04.4) 5.4.0 20160609" 
 .section .note.GNU-stack,"",@progbits 
 .file "printFile257.c" 
 .section .rodata 
 .align 8 
 .LC0: 
 .string "sabfigwtebgcmlrikwsdihdedlyrvcmqepvnxvjfyphldbuoanriwwmclltjpjauyykxutdvmmipnfgouaytxovlasuscupdtadqtiniwxylfhccidvgrtrudkqvxqsbfxggeqokfpbrixyvxufso\177" 
 .text 
 .globl main 
 .type main, @function 
 main: 
 .LFB0: 
 .cfi_startproc 
 pushq %rbp 
 .cfi_def_cfa_offset 16 
 .cfi_offset 6, -16 
 movq %rsp, %rbp 
 .cfi_def_cfa_register 6 
 movl $.LC0, %edi 
 movl $0, %eax 
 call printf 
 movl $0, %eax 
 popq %rbp 
 .cfi_def_cfa 7, 8 
 ret 
 .cfi_endproc 
 .LFE0: 
 .size main, .-main 
 .ident "GCC: (Ubuntu 5.4.0-6ubuntu1~16.04.4) 5.4.0 20160609" 
 .section .note.GNU-stack,"",@progbits 
 .file "printFile258.c" 
 .section .rodata 
 .align 8 
 .LC0: 
 .string "onsjdygdcyynmikmjxtqcvygthxobsfpiyclxiqcjqpybblkygbccdiykipmeuemyykxutdvmmipnfgouaytxovlasuscupdtadqtiniwxylfhccidvgrtrudkqvxqsbfxggeqokfpbrixyvxufso\177" 
 .text 
 .globl main 
 .type main, @function 
 main: 
 .LFB0: 
 .cfi_startproc 
 pushq %rbp 
 .cfi_def_cfa_offset 16 
 .cfi_offset 6, -16 
 movq %rsp, %rbp 
 .cfi_def_cfa_register 6 
 movl $.LC0, %edi 
 movl $0, %eax 
 call printf 
 movl $0, %eax 
 popq %rbp 
 .cfi_def_cfa 7, 8 
 ret 
 .cfi_endproc 
 .LFE0: 
 .size main, .-main 
 .ident "GCC: (Ubuntu 5.4.0-6ubuntu1~16.04.4) 5.4.0 20160609" 
 .section .note.GNU-stack,"",@progbits 
 .file "printFile259.c" 
 .section .rodata 
 .align 8 
 .LC0: 
 .string "gbtqrwbkoalpnvrtatydevygthxobsfpiyclxiqcjqpybblkygbccdiykipmeuemyykxutdvmmipnfgouaytxovlasuscupdtadqtiniwxylfhccidvgrtrudkqvxqsbfxggeqokfpbrixyvxufso\177" 
 .text 
 .globl main 
 .type main, @function 
 main: 
 .LFB0: 
 .cfi_startproc 
 pushq %rbp 
 .cfi_def_cfa_offset 16 
 .cfi_offset 6, -16 
 movq %rsp, %rbp 
 .cfi_def_cfa_register 6 
 movl $.LC0, %edi 
 movl $0, %eax 
 call printf 
 movl $0, %eax 
 popq %rbp 
 .cfi_def_cfa 7, 8 
 ret 
 .cfi_endproc 
 .LFE0: 
 .size main, .-main 
 .ident "GCC: (Ubuntu 5.4.0-6ubuntu1~16.04.4) 5.4.0 20160609" 
 .section .note.GNU-stack,"",@progbits 
 .file "printFile260.c" 
 .section .rodata 
 .align 8 
 .LC0: 
 .string "ponesijgfpjbjbakmpmahayyuyuvebttqjyjtkrbcbdlffvtygbccdiykipmeuemyykxutdvmmipnfgouaytxovlasuscupdtadqtiniwxylfhccidvgrtrudkqvxqsbfxggeqokfpbrixyvxufso\177" 
 .text 
 .globl main 
 .type main, @function 
 main: 
 .LFB0: 
 .cfi_startproc 
 pushq %rbp 
 .cfi_def_cfa_offset 16 
 .cfi_offset 6, -16 
 movq %rsp, %rbp 
 .cfi_def_cfa_register 6 
 movl $.LC0, %edi 
 movl $0, %eax 
 call printf 
 movl $0, %eax 
 popq %rbp 
 .cfi_def_cfa 7, 8 
 ret 
 .cfi_endproc 
 .LFE0: 
 .size main, .-main 
 .ident "GCC: (Ubuntu 5.4.0-6ubuntu1~16.04.4) 5.4.0 20160609" 
 .section .note.GNU-stack,"",@progbits 
 .file "printFile261.c" 
 .section .rodata 
 .align 8 
 .LC0: 
 .string "itflsggtccxdxuvhtgdgafiekujpsdneyupsbxodcnjaifjenokotsuepewljkpihhdifsojixlqfuwvlhkgchmuljgwvxfffadqtiniwxylfhccidvgrtrudkqvxqsbfxggeqokfpbrixyvxufso\177" 
 .text 
 .globl main 
 .type main, @function 
 main: 
 .LFB0: 
 .cfi_startproc 
 pushq %rbp 
 .cfi_def_cfa_offset 16 
 .cfi_offset 6, -16 
 movq %rsp, %rbp 
 .cfi_def_cfa_register 6 
 movl $.LC0, %edi 
 movl $0, %eax 
 call printf 
 movl $0, %eax 
 popq %rbp 
 .cfi_def_cfa 7, 8 
 ret 
 .cfi_endproc 
 .LFE0: 
 .size main, .-main 
 .ident "GCC: (Ubuntu 5.4.0-6ubuntu1~16.04.4) 5.4.0 20160609" 
 .section .note.GNU-stack,"",@progbits 
 .file "printFile262.c" 
 .section .rodata 
 .align 8 
 .LC0: 
 .string "omgdvodhhieeepnqxpxlmlwsivsqbxcrmiuibxodcnjaifjenokotsuepewljkpihhdifsojixlqfuwvlhkgchmuljgwvxfffadqtiniwxylfhccidvgrtrudkqvxqsbfxggeqokfpbrixyvxufso\177" 
 .text 
 .globl main 
 .type main, @function 
 main: 
 .LFB0: 
 .cfi_startproc 
 pushq %rbp 
 .cfi_def_cfa_offset 16 
 .cfi_offset 6, -16 
 movq %rsp, %rbp 
 .cfi_def_cfa_register 6 
 movl $.LC0, %edi 
 movl $0, %eax 
 call printf 
 movl $0, %eax 
 popq %rbp 
 .cfi_def_cfa 7, 8 
 ret 
 .cfi_endproc 
 .LFE0: 
 .size main, .-main 
 .ident "GCC: (Ubuntu 5.4.0-6ubuntu1~16.04.4) 5.4.0 20160609" 
 .section .note.GNU-stack,"",@progbits 
 .file "printFile263.c" 
 .section .rodata 
 .align 8 
 .LC0: 
 .string "xpgjvknmxhkpfxdtxxcvtuwrwphhmpglimueykswrgpaguveuxaotahsrodggjroyovxcqvvwllqfuwvlhkgchmuljgwvxfffadqtiniwxylfhccidvgrtrudkqvxqsbfxggeqokfpbrixyvxufso\177" 
 .text 
 .globl main 
 .type main, @function 
 main: 
 .LFB0: 
 .cfi_startproc 
 pushq %rbp 
 .cfi_def_cfa_offset 16 
 .cfi_offset 6, -16 
 movq %rsp, %rbp 
 .cfi_def_cfa_register 6 
 movl $.LC0, %edi 
 movl $0, %eax 
 call printf 
 movl $0, %eax 
 popq %rbp 
 .cfi_def_cfa 7, 8 
 ret 
 .cfi_endproc 
 .LFE0: 
 .size main, .-main 
 .ident "GCC: (Ubuntu 5.4.0-6ubuntu1~16.04.4) 5.4.0 20160609" 
 .section .note.GNU-stack,"",@progbits 
 .file "printFile264.c" 
 .section .rodata 
 .align 8 
 .LC0: 
 .string "eirkdsnsopcjjsmpywkqxyovdfraffxlnsvrnlmcbonmhbdganyxontsvosbvqmmlkeyysbvwllqfuwvlhkgchmuljgwvxfffadqtiniwxylfhccidvgrtrudkqvxqsbfxggeqokfpbrixyvxufso\177" 
 .text 
 .globl main 
 .type main, @function 
 main: 
 .LFB0: 
 .cfi_startproc 
 pushq %rbp 
 .cfi_def_cfa_offset 16 
 .cfi_offset 6, -16 
 movq %rsp, %rbp 
 .cfi_def_cfa_register 6 
 movl $.LC0, %edi 
 movl $0, %eax 
 call printf 
 movl $0, %eax 
 popq %rbp 
 .cfi_def_cfa 7, 8 
 ret 
 .cfi_endproc 
 .LFE0: 
 .size main, .-main 
 .ident "GCC: (Ubuntu 5.4.0-6ubuntu1~16.04.4) 5.4.0 20160609" 
 .section .note.GNU-stack,"",@progbits 
 .file "printFile265.c" 
 .section .rodata 
 .align 8 
 .LC0: 
 .string "hrposswsgysummpkdilacamnnsnaffxlnsvrnlmcbonmhbdganyxontsvosbvqmmlkeyysbvwllqfuwvlhkgchmuljgwvxfffadqtiniwxylfhccidvgrtrudkqvxqsbfxggeqokfpbrixyvxufso\177" 
 .text 
 .globl main 
 .type main, @function 
 main: 
 .LFB0: 
 .cfi_startproc 
 pushq %rbp 
 .cfi_def_cfa_offset 16 
 .cfi_offset 6, -16 
 movq %rsp, %rbp 
 .cfi_def_cfa_register 6 
 movl $.LC0, %edi 
 movl $0, %eax 
 call printf 
 movl $0, %eax 
 popq %rbp 
 .cfi_def_cfa 7, 8 
 ret 
 .cfi_endproc 
 .LFE0: 
 .size main, .-main 
 .ident "GCC: (Ubuntu 5.4.0-6ubuntu1~16.04.4) 5.4.0 20160609" 
 .section .note.GNU-stack,"",@progbits 
 .file "printFile266.c" 
 .section .rodata 
 .align 8 
 .LC0: 
 .string "lqouigjdyixhhqfwguhlgtlivaxjsnxgfnbpvmvvvtfdnkatgifoetwatwkplkvsxakumgsibxoolqktyrifnhgiesapdxkexvblcvvfvkthegbdbjlostyxoyptxbxvybjbwijtupbrixyvxufso\177" 
 .text 
 .globl main 
 .type main, @function 
 main: 
 .LFB0: 
 .cfi_startproc 
 pushq %rbp 
 .cfi_def_cfa_offset 16 
 .cfi_offset 6, -16 
 movq %rsp, %rbp 
 .cfi_def_cfa_register 6 
 movl $.LC0, %edi 
 movl $0, %eax 
 call printf 
 movl $0, %eax 
 popq %rbp 
 .cfi_def_cfa 7, 8 
 ret 
 .cfi_endproc 
 .LFE0: 
 .size main, .-main 
 .ident "GCC: (Ubuntu 5.4.0-6ubuntu1~16.04.4) 5.4.0 20160609" 
 .section .note.GNU-stack,"",@progbits 
 .file "printFile267.c" 
 .section .rodata 
 .align 8 
 .LC0: 
 .string "dymffnqqckkckydasbdtaculgutpqputqjbvwsmcfyepxhptlvpnamyghtxalvwcfxbfsnhxnnnnwgjieyvemxnvtlwhjtjptkunbelfvkthegbdbjlostyxoyptxbxvybjbwijtupbrixyvxufso\177" 
 .text 
 .globl main 
 .type main, @function 
 main: 
 .LFB0: 
 .cfi_startproc 
 pushq %rbp 
 .cfi_def_cfa_offset 16 
 .cfi_offset 6, -16 
 movq %rsp, %rbp 
 .cfi_def_cfa_register 6 
 movl $.LC0, %edi 
 movl $0, %eax 
 call printf 
 movl $0, %eax 
 popq %rbp 
 .cfi_def_cfa 7, 8 
 ret 
 .cfi_endproc 
 .LFE0: 
 .size main, .-main 
 .ident "GCC: (Ubuntu 5.4.0-6ubuntu1~16.04.4) 5.4.0 20160609" 
 .section .note.GNU-stack,"",@progbits 
 .file "printFile268.c" 
 .section .rodata 
 .align 8 
 .LC0: 
 .string "rcgoiqamrxsgxgdrucyexlvrxqfywrrotygerisliyepxhptlvpnamyghtxalvwcfxbfsnhxnnnnwgjieyvemxnvtlwhjtjptkunbelfvkthegbdbjlostyxoyptxbxvybjbwijtupbrixyvxufso\177" 
 .text 
 .globl main 
 .type main, @function 
 main: 
 .LFB0: 
 .cfi_startproc 
 pushq %rbp 
 .cfi_def_cfa_offset 16 
 .cfi_offset 6, -16 
 movq %rsp, %rbp 
 .cfi_def_cfa_register 6 
 movl $.LC0, %edi 
 movl $0, %eax 
 call printf 
 movl $0, %eax 
 popq %rbp 
 .cfi_def_cfa 7, 8 
 ret 
 .cfi_endproc 
 .LFE0: 
 .size main, .-main 
 .ident "GCC: (Ubuntu 5.4.0-6ubuntu1~16.04.4) 5.4.0 20160609" 
 .section .note.GNU-stack,"",@progbits 
 .file "printFile269.c" 
 .section .rodata 
 .align 8 
 .LC0: 
 .string "shuvypxbvvmspgdrucyexlvrxqfywrrotygerisliyepxhptlvpnamyghtxalvwcfxbfsnhxnnnnwgjieyvemxnvtlwhjtjptkunbelfvkthegbdbjlostyxoyptxbxvybjbwijtupbrixyvxufso\177" 
 .text 
 .globl main 
 .type main, @function 
 main: 
 .LFB0: 
 .cfi_startproc 
 pushq %rbp 
 .cfi_def_cfa_offset 16 
 .cfi_offset 6, -16 
 movq %rsp, %rbp 
 .cfi_def_cfa_register 6 
 movl $.LC0, %edi 
 movl $0, %eax 
 call printf 
 movl $0, %eax 
 popq %rbp 
 .cfi_def_cfa 7, 8 
 ret 
 .cfi_endproc 
 .LFE0: 
 .size main, .-main 
 .ident "GCC: (Ubuntu 5.4.0-6ubuntu1~16.04.4) 5.4.0 20160609" 
 .section .note.GNU-stack,"",@progbits 
 .file "printFile270.c" 
 .section .rodata 
 .align 8 
 .LC0: 
 .string "lvkjpexjdgpwqkjaxchuaikajhxvanjljvwyavkgecdvmoxnqfiqpvqcfoxhlvwcfxbfsnhxnnnnwgjieyvemxnvtlwhjtjptkunbelfvkthegbdbjlostyxoyptxbxvybjbwijtupbrixyvxufso\177" 
 .text 
 .globl main 
 .type main, @function 
 main: 
 .LFB0: 
 .cfi_startproc 
 pushq %rbp 
 .cfi_def_cfa_offset 16 
 .cfi_offset 6, -16 
 movq %rsp, %rbp 
 .cfi_def_cfa_register 6 
 movl $.LC0, %edi 
 movl $0, %eax 
 call printf 
 movl $0, %eax 
 popq %rbp 
 .cfi_def_cfa 7, 8 
 ret 
 .cfi_endproc 
 .LFE0: 
 .size main, .-main 
 .ident "GCC: (Ubuntu 5.4.0-6ubuntu1~16.04.4) 5.4.0 20160609" 
 .section .note.GNU-stack,"",@progbits 
 .file "printFile271.c" 
 .section .rodata 
 .align 8 
 .LC0: 
 .string "hsofsogobmuersshqgaxrronkqscqahbuxgnmoeqbcutundmwdkowbeirwmlyvottukjkqansujokmbjqnxnpcxjbmuaijwfhhotxqhtlrixgliyyiponpyodvrniqspybjbwijtupbrixyvxufso\177" 
 .text 
 .globl main 
 .type main, @function 
 main: 
 .LFB0: 
 .cfi_startproc 
 pushq %rbp 
 .cfi_def_cfa_offset 16 
 .cfi_offset 6, -16 
 movq %rsp, %rbp 
 .cfi_def_cfa_register 6 
 movl $.LC0, %edi 
 movl $0, %eax 
 call printf 
 movl $0, %eax 
 popq %rbp 
 .cfi_def_cfa 7, 8 
 ret 
 .cfi_endproc 
 .LFE0: 
 .size main, .-main 
 .ident "GCC: (Ubuntu 5.4.0-6ubuntu1~16.04.4) 5.4.0 20160609" 
 .section .note.GNU-stack,"",@progbits 
 .file "printFile272.c" 
 .section .rodata 
 .align 8 
 .LC0: 
 .string "jjaastnmcotnysnhiewydoecgtkypayylycetrrxgnmficnrgmkowbeirwmlyvottukjkqansujokmbjqnxnpcxjbmuaijwfhhotxqhtlrixgliyyiponpyodvrniqspybjbwijtupbrixyvxufso\177" 
 .text 
 .globl main 
 .type main, @function 
 main: 
 .LFB0: 
 .cfi_startproc 
 pushq %rbp 
 .cfi_def_cfa_offset 16 
 .cfi_offset 6, -16 
 movq %rsp, %rbp 
 .cfi_def_cfa_register 6 
 movl $.LC0, %edi 
 movl $0, %eax 
 call printf 
 movl $0, %eax 
 popq %rbp 
 .cfi_def_cfa 7, 8 
 ret 
 .cfi_endproc 
 .LFE0: 
 .size main, .-main 
 .ident "GCC: (Ubuntu 5.4.0-6ubuntu1~16.04.4) 5.4.0 20160609" 
 .section .note.GNU-stack,"",@progbits 
 .file "printFile273.c" 
 .section .rodata 
 .align 8 
 .LC0: 
 .string "mbyojsyiibhiohmsdemblcpqlrgfbvxnwwehpdpbgxjficnrgmkowbeirwmlyvottukjkqansujokmbjqnxnpcxjbmuaijwfhhotxqhtlrixgliyyiponpyodvrniqspybjbwijtupbrixyvxufso\177" 
 .text 
 .globl main 
 .type main, @function 
 main: 
 .LFB0: 
 .cfi_startproc 
 pushq %rbp 
 .cfi_def_cfa_offset 16 
 .cfi_offset 6, -16 
 movq %rsp, %rbp 
 .cfi_def_cfa_register 6 
 movl $.LC0, %edi 
 movl $0, %eax 
 call printf 
 movl $0, %eax 
 popq %rbp 
 .cfi_def_cfa 7, 8 
 ret 
 .cfi_endproc 
 .LFE0: 
 .size main, .-main 
 .ident "GCC: (Ubuntu 5.4.0-6ubuntu1~16.04.4) 5.4.0 20160609" 
 .section .note.GNU-stack,"",@progbits 
 .file "printFile274.c" 
 .section .rodata 
 .align 8 
 .LC0: 
 .string "hxpmcfnpjghuxpaylaolwsspxkqeicbratgebwukdegbvidkjrvgloxjyqqksteunlaoiualyiouqrfakdjxrjhtbagtumpfhhotxqhtlrixgliyyiponpyodvrniqspybjbwijtupbrixyvxufso\177" 
 .text 
 .globl main 
 .type main, @function 
 main: 
 .LFB0: 
 .cfi_startproc 
 pushq %rbp 
 .cfi_def_cfa_offset 16 
 .cfi_offset 6, -16 
 movq %rsp, %rbp 
 .cfi_def_cfa_register 6 
 movl $.LC0, %edi 
 movl $0, %eax 
 call printf 
 movl $0, %eax 
 popq %rbp 
 .cfi_def_cfa 7, 8 
 ret 
 .cfi_endproc 
 .LFE0: 
 .size main, .-main 
 .ident "GCC: (Ubuntu 5.4.0-6ubuntu1~16.04.4) 5.4.0 20160609" 
 .section .note.GNU-stack,"",@progbits 
 .file "printFile275.c" 
 .section .rodata 
 .align 8 
 .LC0: 
 .string "araimcvnknkdfsgrvprqbckccsywfoiiikswmpkyfucmnkfmaydcbpgeifqksteunlaoiualyiouqrfakdjxrjhtbagtumpfhhotxqhtlrixgliyyiponpyodvrniqspybjbwijtupbrixyvxufso\177" 
 .text 
 .globl main 
 .type main, @function 
 main: 
 .LFB0: 
 .cfi_startproc 
 pushq %rbp 
 .cfi_def_cfa_offset 16 
 .cfi_offset 6, -16 
 movq %rsp, %rbp 
 .cfi_def_cfa_register 6 
 movl $.LC0, %edi 
 movl $0, %eax 
 call printf 
 movl $0, %eax 
 popq %rbp 
 .cfi_def_cfa 7, 8 
 ret 
 .cfi_endproc 
 .LFE0: 
 .size main, .-main 
 .ident "GCC: (Ubuntu 5.4.0-6ubuntu1~16.04.4) 5.4.0 20160609" 
 .section .note.GNU-stack,"",@progbits 
 .file "printFile276.c" 
 .section .rodata 
 .align 8 
 .LC0: 
 .string "pvnxextbklnlqjodyyklckogleopouvhqjhxibyumnhdyxjaytmdedjskbkbvgioqsmbvovjedofbafburebxqtithlpnuggpvhlkgwtlrixgliyyiponpyodvrniqspybjbwijtupbrixyvxufso\177" 
 .text 
 .globl main 
 .type main, @function 
 main: 
 .LFB0: 
 .cfi_startproc 
 pushq %rbp 
 .cfi_def_cfa_offset 16 
 .cfi_offset 6, -16 
 movq %rsp, %rbp 
 .cfi_def_cfa_register 6 
 movl $.LC0, %edi 
 movl $0, %eax 
 call printf 
 movl $0, %eax 
 popq %rbp 
 .cfi_def_cfa 7, 8 
 ret 
 .cfi_endproc 
 .LFE0: 
 .size main, .-main 
 .ident "GCC: (Ubuntu 5.4.0-6ubuntu1~16.04.4) 5.4.0 20160609" 
 .section .note.GNU-stack,"",@progbits 
 .file "printFile277.c" 
 .section .rodata 
 .align 8 
 .LC0: 
 .string "jmvnobqjvwnvpjejqpbfmineevqqenhncddrgtdetqajbgttywynfnslljcpylfeqjxafdeywflalhtkevykltxyfdoeovkghkgpqmonrangjjqofrbsnpyodvrniqspybjbwijtupbrixyvxufso\177" 
 .text 
 .globl main 
 .type main, @function 
 main: 
 .LFB0: 
 .cfi_startproc 
 pushq %rbp 
 .cfi_def_cfa_offset 16 
 .cfi_offset 6, -16 
 movq %rsp, %rbp 
 .cfi_def_cfa_register 6 
 movl $.LC0, %edi 
 movl $0, %eax 
 call printf 
 movl $0, %eax 
 popq %rbp 
 .cfi_def_cfa 7, 8 
 ret 
 .cfi_endproc 
 .LFE0: 
 .size main, .-main 
 .ident "GCC: (Ubuntu 5.4.0-6ubuntu1~16.04.4) 5.4.0 20160609" 
 .section .note.GNU-stack,"",@progbits 
 .file "printFile278.c" 
 .section .rodata 
 .align 8 
 .LC0: 
 .string "yrqcixtfkcoxkeowtcpvrvgdowjjxcwwwqcfqvkdxcbigphctwbnujrmgdxefudenhkefwkfylngevixulosugxyfdoeovkghkgpqmonrangjjqofrbsnpyodvrniqspybjbwijtupbrixyvxufso\177" 
 .text 
 .globl main 
 .type main, @function 
 main: 
 .LFB0: 
 .cfi_startproc 
 pushq %rbp 
 .cfi_def_cfa_offset 16 
 .cfi_offset 6, -16 
 movq %rsp, %rbp 
 .cfi_def_cfa_register 6 
 movl $.LC0, %edi 
 movl $0, %eax 
 call printf 
 movl $0, %eax 
 popq %rbp 
 .cfi_def_cfa 7, 8 
 ret 
 .cfi_endproc 
 .LFE0: 
 .size main, .-main 
 .ident "GCC: (Ubuntu 5.4.0-6ubuntu1~16.04.4) 5.4.0 20160609" 
 .section .note.GNU-stack,"",@progbits 
 .file "printFile279.c" 
 .section .rodata 
 .align 8 
 .LC0: 
 .string "bjfhqanvqugwbdhgftwlauvxriokfurhewqxaetqccnfhxlmrkarhwrahhkmefvlcnjetfuvhlbojpcdulosugxyfdoeovkghkgpqmonrangjjqofrbsnpyodvrniqspybjbwijtupbrixyvxufso\177" 
 .text 
 .globl main 
 .type main, @function 
 main: 
 .LFB0: 
 .cfi_startproc 
 pushq %rbp 
 .cfi_def_cfa_offset 16 
 .cfi_offset 6, -16 
 movq %rsp, %rbp 
 .cfi_def_cfa_register 6 
 movl $.LC0, %edi 
 movl $0, %eax 
 call printf 
 movl $0, %eax 
 popq %rbp 
 .cfi_def_cfa 7, 8 
 ret 
 .cfi_endproc 
 .LFE0: 
 .size main, .-main 
 .ident "GCC: (Ubuntu 5.4.0-6ubuntu1~16.04.4) 5.4.0 20160609" 
 .section .note.GNU-stack,"",@progbits 
 .file "printFile280.c" 
 .section .rodata 
 .align 8 
 .LC0: 
 .string "cwkbqmixwxfetqhjangfleowidixfnckkolbbwcbuhfqxodadjhopvnxbvxjjbtvphwreysbiauipxksjrjypwxtuxdgyycrgylnbgojgjuvjfquaawrywltuqaupcopybjbwijtupbrixyvxufso\177" 
 .text 
 .globl main 
 .type main, @function 
 main: 
 .LFB0: 
 .cfi_startproc 
 pushq %rbp 
 .cfi_def_cfa_offset 16 
 .cfi_offset 6, -16 
 movq %rsp, %rbp 
 .cfi_def_cfa_register 6 
 movl $.LC0, %edi 
 movl $0, %eax 
 call printf 
 movl $0, %eax 
 popq %rbp 
 .cfi_def_cfa 7, 8 
 ret 
 .cfi_endproc 
 .LFE0: 
 .size main, .-main 
 .ident "GCC: (Ubuntu 5.4.0-6ubuntu1~16.04.4) 5.4.0 20160609" 
 .section .note.GNU-stack,"",@progbits 
 .file "printFile281.c" 
 .section .rodata 
 .align 8 
 .LC0: 
 .string "eamfgbqmnllyreurftlgqxblobifgyekyqrhtkwjwijqogkvavdqveelhpsnoyaorrxlfuvcffuunfqndtgaxmnicgvrhyiysgkxeiajpwedcxqiryismvboeyaupcopybjbwijtupbrixyvxufso\177" 
 .text 
 .globl main 
 .type main, @function 
 main: 
 .LFB0: 
 .cfi_startproc 
 pushq %rbp 
 .cfi_def_cfa_offset 16 
 .cfi_offset 6, -16 
 movq %rsp, %rbp 
 .cfi_def_cfa_register 6 
 movl $.LC0, %edi 
 movl $0, %eax 
 call printf 
 movl $0, %eax 
 popq %rbp 
 .cfi_def_cfa 7, 8 
 ret 
 .cfi_endproc 
 .LFE0: 
 .size main, .-main 
 .ident "GCC: (Ubuntu 5.4.0-6ubuntu1~16.04.4) 5.4.0 20160609" 
 .section .note.GNU-stack,"",@progbits 
 .file "printFile282.c" 
 .section .rodata 
 .align 8 
 .LC0: 
 .string "lxskrcwpggspvpwauusdmunhhjixnijbgclaeiqkqjbnbapvuiyjdmrmxcsnoyaorrxlfuvcffuunfqndtgaxmnicgvrhyiysgkxeiajpwedcxqiryismvboeyaupcopybjbwijtupbrixyvxufso\177" 
 .text 
 .globl main 
 .type main, @function 
 main: 
 .LFB0: 
 .cfi_startproc 
 pushq %rbp 
 .cfi_def_cfa_offset 16 
 .cfi_offset 6, -16 
 movq %rsp, %rbp 
 .cfi_def_cfa_register 6 
 movl $.LC0, %edi 
 movl $0, %eax 
 call printf 
 movl $0, %eax 
 popq %rbp 
 .cfi_def_cfa 7, 8 
 ret 
 .cfi_endproc 
 .LFE0: 
 .size main, .-main 
 .ident "GCC: (Ubuntu 5.4.0-6ubuntu1~16.04.4) 5.4.0 20160609" 
 .section .note.GNU-stack,"",@progbits 
 .file "printFile283.c" 
 .section .rodata 
 .align 8 
 .LC0: 
 .string "nmuovycvenmoexrtarjvosxyxmslluybivseeiqkqjbnbapvuiyjdmrmxcsnoyaorrxlfuvcffuunfqndtgaxmnicgvrhyiysgkxeiajpwedcxqiryismvboeyaupcopybjbwijtupbrixyvxufso\177" 
 .text 
 .globl main 
 .type main, @function 
 main: 
 .LFB0: 
 .cfi_startproc 
 pushq %rbp 
 .cfi_def_cfa_offset 16 
 .cfi_offset 6, -16 
 movq %rsp, %rbp 
 .cfi_def_cfa_register 6 
 movl $.LC0, %edi 
 movl $0, %eax 
 call printf 
 movl $0, %eax 
 popq %rbp 
 .cfi_def_cfa 7, 8 
 ret 
 .cfi_endproc 
 .LFE0: 
 .size main, .-main 
 .ident "GCC: (Ubuntu 5.4.0-6ubuntu1~16.04.4) 5.4.0 20160609" 
 .section .note.GNU-stack,"",@progbits 
 .file "printFile284.c" 
 .section .rodata 
 .align 8 
 .LC0: 
 .string "ucykpqppkjpdtmtomsoynamjbotwhasecrptkhkvsabooudbqudeupnwgjvnjouojkittsrmtsckohmhcrlahcyoluexmbmvlurhqmumfywvgldldrlntmcheyaupcopybjbwijtupbrixyvxufso\177" 
 .text 
 .globl main 
 .type main, @function 
 main: 
 .LFB0: 
 .cfi_startproc 
 pushq %rbp 
 .cfi_def_cfa_offset 16 
 .cfi_offset 6, -16 
 movq %rsp, %rbp 
 .cfi_def_cfa_register 6 
 movl $.LC0, %edi 
 movl $0, %eax 
 call printf 
 movl $0, %eax 
 popq %rbp 
 .cfi_def_cfa 7, 8 
 ret 
 .cfi_endproc 
 .LFE0: 
 .size main, .-main 
 .ident "GCC: (Ubuntu 5.4.0-6ubuntu1~16.04.4) 5.4.0 20160609" 
 .section .note.GNU-stack,"",@progbits 
 .file "printFile285.c" 
 .section .rodata 
 .align 8 
 .LC0: 
 .string "ihvkttxrmgibdwgctfkikxlclyxxdiiopeymyyenhooklwohccpnaermfjvnjouojkittsrmtsckohmhcrlahcyoluexmbmvlurhqmumfywvgldldrlntmcheyaupcopybjbwijtupbrixyvxufso\177" 
 .text 
 .globl main 
 .type main, @function 
 main: 
 .LFB0: 
 .cfi_startproc 
 pushq %rbp 
 .cfi_def_cfa_offset 16 
 .cfi_offset 6, -16 
 movq %rsp, %rbp 
 .cfi_def_cfa_register 6 
 movl $.LC0, %edi 
 movl $0, %eax 
 call printf 
 movl $0, %eax 
 popq %rbp 
 .cfi_def_cfa 7, 8 
 ret 
 .cfi_endproc 
 .LFE0: 
 .size main, .-main 
 .ident "GCC: (Ubuntu 5.4.0-6ubuntu1~16.04.4) 5.4.0 20160609" 
 .section .note.GNU-stack,"",@progbits 
 .file "printFile286.c" 
 .section .rodata 
 .align 8 
 .LC0: 
 .string "mlyuaqcbdbahqixftfkikxlclyxxdiiopeymyyenhooklwohccpnaermfjvnjouojkittsrmtsckohmhcrlahcyoluexmbmvlurhqmumfywvgldldrlntmcheyaupcopybjbwijtupbrixyvxufso\177" 
 .text 
 .globl main 
 .type main, @function 
 main: 
 .LFB0: 
 .cfi_startproc 
 pushq %rbp 
 .cfi_def_cfa_offset 16 
 .cfi_offset 6, -16 
 movq %rsp, %rbp 
 .cfi_def_cfa_register 6 
 movl $.LC0, %edi 
 movl $0, %eax 
 call printf 
 movl $0, %eax 
 popq %rbp 
 .cfi_def_cfa 7, 8 
 ret 
 .cfi_endproc 
 .LFE0: 
 .size main, .-main 
 .ident "GCC: (Ubuntu 5.4.0-6ubuntu1~16.04.4) 5.4.0 20160609" 
 .section .note.GNU-stack,"",@progbits 
 .file "printFile287.c" 
 .section .rodata 
 .align 8 
 .LC0: 
 .string "lcktholuorodxhsjgplxrmdumllwlssxvftfthckaqqaywohccpnaermfjvnjouojkittsrmtsckohmhcrlahcyoluexmbmvlurhqmumfywvgldldrlntmcheyaupcopybjbwijtupbrixyvxufso\177" 
 .text 
 .globl main 
 .type main, @function 
 main: 
 .LFB0: 
 .cfi_startproc 
 pushq %rbp 
 .cfi_def_cfa_offset 16 
 .cfi_offset 6, -16 
 movq %rsp, %rbp 
 .cfi_def_cfa_register 6 
 movl $.LC0, %edi 
 movl $0, %eax 
 call printf 
 movl $0, %eax 
 popq %rbp 
 .cfi_def_cfa 7, 8 
 ret 
 .cfi_endproc 
 .LFE0: 
 .size main, .-main 
 .ident "GCC: (Ubuntu 5.4.0-6ubuntu1~16.04.4) 5.4.0 20160609" 
 .section .note.GNU-stack,"",@progbits 
 .file "printFile288.c" 
 .section .rodata 
 .align 8 
 .LC0: 
 .string "lhywhtjloxydvkvqktxgytobgqswstiebkbjgmwukvxiiwbtqyaqsqrajmynjouojkittsrmtsckohmhcrlahcyoluexmbmvlurhqmumfywvgldldrlntmcheyaupcopybjbwijtupbrixyvxufso\177" 
 .text 
 .globl main 
 .type main, @function 
 main: 
 .LFB0: 
 .cfi_startproc 
 pushq %rbp 
 .cfi_def_cfa_offset 16 
 .cfi_offset 6, -16 
 movq %rsp, %rbp 
 .cfi_def_cfa_register 6 
 movl $.LC0, %edi 
 movl $0, %eax 
 call printf 
 movl $0, %eax 
 popq %rbp 
 .cfi_def_cfa 7, 8 
 ret 
 .cfi_endproc 
 .LFE0: 
 .size main, .-main 
 .ident "GCC: (Ubuntu 5.4.0-6ubuntu1~16.04.4) 5.4.0 20160609" 
 .section .note.GNU-stack,"",@progbits 
 .file "printFile289.c" 
 .section .rodata 
 .align 8 
 .LC0: 
 .string "gkgiujtbvqxjoytwvvsowvfqmaswotbveigbtcesufejgxgctcsrxykkbfjpblnivvlpxqksxocenhmhcrlahcyoluexmbmvlurhqmumfywvgldldrlntmcheyaupcopybjbwijtupbrixyvxufso\177" 
 .text 
 .globl main 
 .type main, @function 
 main: 
 .LFB0: 
 .cfi_startproc 
 pushq %rbp 
 .cfi_def_cfa_offset 16 
 .cfi_offset 6, -16 
 movq %rsp, %rbp 
 .cfi_def_cfa_register 6 
 movl $.LC0, %edi 
 movl $0, %eax 
 call printf 
 movl $0, %eax 
 popq %rbp 
 .cfi_def_cfa 7, 8 
 ret 
 .cfi_endproc 
 .LFE0: 
 .size main, .-main 
 .ident "GCC: (Ubuntu 5.4.0-6ubuntu1~16.04.4) 5.4.0 20160609" 
 .section .note.GNU-stack,"",@progbits 
 .file "printFile290.c" 
 .section .rodata 
 .align 8 
 .LC0: 
 .string "ijnbdlcnxdujoytwvvsowvfqmaswotbveigbtcesufejgxgctcsrxykkbfjpblnivvlpxqksxocenhmhcrlahcyoluexmbmvlurhqmumfywvgldldrlntmcheyaupcopybjbwijtupbrixyvxufso\177" 
 .text 
 .globl main 
 .type main, @function 
 main: 
 .LFB0: 
 .cfi_startproc 
 pushq %rbp 
 .cfi_def_cfa_offset 16 
 .cfi_offset 6, -16 
 movq %rsp, %rbp 
 .cfi_def_cfa_register 6 
 movl $.LC0, %edi 
 movl $0, %eax 
 call printf 
 movl $0, %eax 
 popq %rbp 
 .cfi_def_cfa 7, 8 
 ret 
 .cfi_endproc 
 .LFE0: 
 .size main, .-main 
 .ident "GCC: (Ubuntu 5.4.0-6ubuntu1~16.04.4) 5.4.0 20160609" 
 .section .note.GNU-stack,"",@progbits 
 .file "printFile291.c" 
 .section .rodata 
 .align 8 
 .LC0: 
 .string "vyvlhrisjglucjjepyrxjhcmuedtkagiyctbtcesufejgxgctcsrxykkbfjpblnivvlpxqksxocenhmhcrlahcyoluexmbmvlurhqmumfywvgldldrlntmcheyaupcopybjbwijtupbrixyvxufso\177" 
 .text 
 .globl main 
 .type main, @function 
 main: 
 .LFB0: 
 .cfi_startproc 
 pushq %rbp 
 .cfi_def_cfa_offset 16 
 .cfi_offset 6, -16 
 movq %rsp, %rbp 
 .cfi_def_cfa_register 6 
 movl $.LC0, %edi 
 movl $0, %eax 
 call printf 
 movl $0, %eax 
 popq %rbp 
 .cfi_def_cfa 7, 8 
 ret 
 .cfi_endproc 
 .LFE0: 
 .size main, .-main 
 .ident "GCC: (Ubuntu 5.4.0-6ubuntu1~16.04.4) 5.4.0 20160609" 
 .section .note.GNU-stack,"",@progbits 
 .file "printFile292.c" 
 .section .rodata 
 .align 8 
 .LC0: 
 .string "vcahlncnxotpnooyvqmrwrnhrtrrxmavqcdcqipqwmgmbwmypysnsgwkcpecefxujcxakpsjeavfwifnjrlahcyoluexmbmvlurhqmumfywvgldldrlntmcheyaupcopybjbwijtupbrixyvxufso\177" 
 .text 
 .globl main 
 .type main, @function 
 main: 
 .LFB0: 
 .cfi_startproc 
 pushq %rbp 
 .cfi_def_cfa_offset 16 
 .cfi_offset 6, -16 
 movq %rsp, %rbp 
 .cfi_def_cfa_register 6 
 movl $.LC0, %edi 
 movl $0, %eax 
 call printf 
 movl $0, %eax 
 popq %rbp 
 .cfi_def_cfa 7, 8 
 ret 
 .cfi_endproc 
 .LFE0: 
 .size main, .-main 
 .ident "GCC: (Ubuntu 5.4.0-6ubuntu1~16.04.4) 5.4.0 20160609" 
 .section .note.GNU-stack,"",@progbits 
 .file "printFile293.c" 
 .section .rodata 
 .align 8 
 .LC0: 
 .string "dchaplrtovborlqrndjhmohjvgtdveebincxyvupsvfmhxexepfqeocdwygvfkwnayocxjrqfyfpalnebuwijclibteghcvhdkjbtctadyrdkhjocjwnlkxoedulhcopybjbwijtupbrixyvxufso\177" 
 .text 
 .globl main 
 .type main, @function 
 main: 
 .LFB0: 
 .cfi_startproc 
 pushq %rbp 
 .cfi_def_cfa_offset 16 
 .cfi_offset 6, -16 
 movq %rsp, %rbp 
 .cfi_def_cfa_register 6 
 movl $.LC0, %edi 
 movl $0, %eax 
 call printf 
 movl $0, %eax 
 popq %rbp 
 .cfi_def_cfa 7, 8 
 ret 
 .cfi_endproc 
 .LFE0: 
 .size main, .-main 
 .ident "GCC: (Ubuntu 5.4.0-6ubuntu1~16.04.4) 5.4.0 20160609" 
 .section .note.GNU-stack,"",@progbits 
 .file "printFile294.c" 
 .section .rodata 
 .align 8 
 .LC0: 
 .string "tkedoahkcnktswbdlfokuautoawlneehqknhlwsnmfimhxexepfqeocdwygvfkwnayocxjrqfyfpalnebuwijclibteghcvhdkjbtctadyrdkhjocjwnlkxoedulhcopybjbwijtupbrixyvxufso\177" 
 .text 
 .globl main 
 .type main, @function 
 main: 
 .LFB0: 
 .cfi_startproc 
 pushq %rbp 
 .cfi_def_cfa_offset 16 
 .cfi_offset 6, -16 
 movq %rsp, %rbp 
 .cfi_def_cfa_register 6 
 movl $.LC0, %edi 
 movl $0, %eax 
 call printf 
 movl $0, %eax 
 popq %rbp 
 .cfi_def_cfa 7, 8 
 ret 
 .cfi_endproc 
 .LFE0: 
 .size main, .-main 
 .ident "GCC: (Ubuntu 5.4.0-6ubuntu1~16.04.4) 5.4.0 20160609" 
 .section .note.GNU-stack,"",@progbits 
 .file "printFile295.c" 
 .section .rodata 
 .align 8 
 .LC0: 
 .string "ellstadoabiqdhcqlibftqofpjsdqblvpyqjytxbwhrcovvdeykxrbdhlwmcaxarwqbxncyklspcqlhxkuwijclibteghcvhdkjbtctadyrdkhjocjwnlkxoedulhcopybjbwijtupbrixyvxufso\177" 
 .text 
 .globl main 
 .type main, @function 
 main: 
 .LFB0: 
 .cfi_startproc 
 pushq %rbp 
 .cfi_def_cfa_offset 16 
 .cfi_offset 6, -16 
 movq %rsp, %rbp 
 .cfi_def_cfa_register 6 
 movl $.LC0, %edi 
 movl $0, %eax 
 call printf 
 movl $0, %eax 
 popq %rbp 
 .cfi_def_cfa 7, 8 
 ret 
 .cfi_endproc 
 .LFE0: 
 .size main, .-main 
 .ident "GCC: (Ubuntu 5.4.0-6ubuntu1~16.04.4) 5.4.0 20160609" 
 .section .note.GNU-stack,"",@progbits 
 .file "printFile296.c" 
 .section .rodata 
 .align 8 
 .LC0: 
 .string "vcvclhbyldymvyfwwsbygmtvplhwjtrhxnjjwmiiqkwmjdlgvpfccaarnhpydjibwslthvcxgcmpfbwbqegsggnvqfuvhcvhdkjbtctadyrdkhjocjwnlkxoedulhcopybjbwijtupbrixyvxufso\177" 
 .text 
 .globl main 
 .type main, @function 
 main: 
 .LFB0: 
 .cfi_startproc 
 pushq %rbp 
 .cfi_def_cfa_offset 16 
 .cfi_offset 6, -16 
 movq %rsp, %rbp 
 .cfi_def_cfa_register 6 
 movl $.LC0, %edi 
 movl $0, %eax 
 call printf 
 movl $0, %eax 
 popq %rbp 
 .cfi_def_cfa 7, 8 
 ret 
 .cfi_endproc 
 .LFE0: 
 .size main, .-main 
 .ident "GCC: (Ubuntu 5.4.0-6ubuntu1~16.04.4) 5.4.0 20160609" 
 .section .note.GNU-stack,"",@progbits 
 .file "printFile297.c" 
 .section .rodata 
 .align 8 
 .LC0: 
 .string "exlylhihljqnvguyfyrmfnsnbrgiodwsdktotdvfmmvkvqmdpepwtlludtfrwcncwslthvcxgcmpfbwbqegsggnvqfuvhcvhdkjbtctadyrdkhjocjwnlkxoedulhcopybjbwijtupbrixyvxufso\177" 
 .text 
 .globl main 
 .type main, @function 
 main: 
 .LFB0: 
 .cfi_startproc 
 pushq %rbp 
 .cfi_def_cfa_offset 16 
 .cfi_offset 6, -16 
 movq %rsp, %rbp 
 .cfi_def_cfa_register 6 
 movl $.LC0, %edi 
 movl $0, %eax 
 call printf 
 movl $0, %eax 
 popq %rbp 
 .cfi_def_cfa 7, 8 
 ret 
 .cfi_endproc 
 .LFE0: 
 .size main, .-main 
 .ident "GCC: (Ubuntu 5.4.0-6ubuntu1~16.04.4) 5.4.0 20160609" 
 .section .note.GNU-stack,"",@progbits 
 .file "printFile298.c" 
 .section .rodata 
 .align 8 
 .LC0: 
 .string "jqkopqbemoafdevhvschgykbffajudbevltlewsslsyqyuyxpdfwesxlxaxsdbycwslthvcxgcmpfbwbqegsggnvqfuvhcvhdkjbtctadyrdkhjocjwnlkxoedulhcopybjbwijtupbrixyvxufso\177" 
 .text 
 .globl main 
 .type main, @function 
 main: 
 .LFB0: 
 .cfi_startproc 
 pushq %rbp 
 .cfi_def_cfa_offset 16 
 .cfi_offset 6, -16 
 movq %rsp, %rbp 
 .cfi_def_cfa_register 6 
 movl $.LC0, %edi 
 movl $0, %eax 
 call printf 
 movl $0, %eax 
 popq %rbp 
 .cfi_def_cfa 7, 8 
 ret 
 .cfi_endproc 
 .LFE0: 
 .size main, .-main 
 .ident "GCC: (Ubuntu 5.4.0-6ubuntu1~16.04.4) 5.4.0 20160609" 
 .section .note.GNU-stack,"",@progbits 
 .file "printFile299.c" 
 .section .rodata 
 .align 8 
 .LC0: 
 .string "sntqgmecnvdkwbvhvschgykbffajudbevltlewsslsyqyuyxpdfwesxlxaxsdbycwslthvcxgcmpfbwbqegsggnvqfuvhcvhdkjbtctadyrdkhjocjwnlkxoedulhcopybjbwijtupbrixyvxufso\177" 
 .text 
 .globl main 
 .type main, @function 
 main: 
 .LFB0: 
 .cfi_startproc 
 pushq %rbp 
 .cfi_def_cfa_offset 16 
 .cfi_offset 6, -16 
 movq %rsp, %rbp 
 .cfi_def_cfa_register 6 
 movl $.LC0, %edi 
 movl $0, %eax 
 call printf 
 movl $0, %eax 
 popq %rbp 
 .cfi_def_cfa 7, 8 
 ret 
 .cfi_endproc 
 .LFE0: 
 .size main, .-main 
 .ident "GCC: (Ubuntu 5.4.0-6ubuntu1~16.04.4) 5.4.0 20160609" 
 .section .note.GNU-stack,"",@progbits 
 .file "printFile300.c" 
 .section .rodata 
 .align 8 
 .LC0: 
 .string "cjaicawcauwgxvimrxiihvojlmajudbevltlewsslsyqyuyxpdfwesxlxaxsdbycwslthvcxgcmpfbwbqegsggnvqfuvhcvhdkjbtctadyrdkhjocjwnlkxoedulhcopybjbwijtupbrixyvxufso\177" 
 .text 
 .globl main 
 .type main, @function 
 main: 
 .LFB0: 
 .cfi_startproc 
 pushq %rbp 
 .cfi_def_cfa_offset 16 
 .cfi_offset 6, -16 
 movq %rsp, %rbp 
 .cfi_def_cfa_register 6 
 movl $.LC0, %edi 
 movl $0, %eax 
 call printf 
 movl $0, %eax 
 popq %rbp 
 .cfi_def_cfa 7, 8 
 ret 
 .cfi_endproc 
 .LFE0: 
 .size main, .-main 
 .ident "GCC: (Ubuntu 5.4.0-6ubuntu1~16.04.4) 5.4.0 20160609" 
 .section .note.GNU-stack,"",@progbits 
 .file "printFile301.c" 
 .section .rodata 
 .align 8 
 .LC0: 
 .string "wlqanaayeavgcsfiqbsdsrodykukxhywtrwjtwixyggcylmppivkakqbwllwsmuowslthvcxgcmpfbwbqegsggnvqfuvhcvhdkjbtctadyrdkhjocjwnlkxoedulhcopybjbwijtupbrixyvxufso\177" 
 .text 
 .globl main 
 .type main, @function 
 main: 
 .LFB0: 
 .cfi_startproc 
 pushq %rbp 
 .cfi_def_cfa_offset 16 
 .cfi_offset 6, -16 
 movq %rsp, %rbp 
 .cfi_def_cfa_register 6 
 movl $.LC0, %edi 
 movl $0, %eax 
 call printf 
 movl $0, %eax 
 popq %rbp 
 .cfi_def_cfa 7, 8 
 ret 
 .cfi_endproc 
 .LFE0: 
 .size main, .-main 
 .ident "GCC: (Ubuntu 5.4.0-6ubuntu1~16.04.4) 5.4.0 20160609" 
 .section .note.GNU-stack,"",@progbits 
 .file "printFile302.c" 
 .section .rodata 
 .align 8 
 .LC0: 
 .string "rybrjcsqkwrwkkougyuspvrdjowvlndeofxyjqrtojsbtjvcjswbqohaggxrtcxjjxkupcoglijirhkdqegsggnvqfuvhcvhdkjbtctadyrdkhjocjwnlkxoedulhcopybjbwijtupbrixyvxufso\177" 
 .text 
 .globl main 
 .type main, @function 
 main: 
 .LFB0: 
 .cfi_startproc 
 pushq %rbp 
 .cfi_def_cfa_offset 16 
 .cfi_offset 6, -16 
 movq %rsp, %rbp 
 .cfi_def_cfa_register 6 
 movl $.LC0, %edi 
 movl $0, %eax 
 call printf 
 movl $0, %eax 
 popq %rbp 
 .cfi_def_cfa 7, 8 
 ret 
 .cfi_endproc 
 .LFE0: 
 .size main, .-main 
 .ident "GCC: (Ubuntu 5.4.0-6ubuntu1~16.04.4) 5.4.0 20160609" 
 .section .note.GNU-stack,"",@progbits 
 .file "printFile303.c" 
 .section .rodata 
 .align 8 
 .LC0: 
 .string "ihsyouhuscqwcagbkbsosbbdklwtvdxgmqiblpxgrqeurmveqqtjrwoeilxgovpboxecneiivofpebvutpglowpyipialxdcxkelqovogbekedhxupjkmylwotwctdepybjbwijtupbrixyvxufso\177" 
 .text 
 .globl main 
 .type main, @function 
 main: 
 .LFB0: 
 .cfi_startproc 
 pushq %rbp 
 .cfi_def_cfa_offset 16 
 .cfi_offset 6, -16 
 movq %rsp, %rbp 
 .cfi_def_cfa_register 6 
 movl $.LC0, %edi 
 movl $0, %eax 
 call printf 
 movl $0, %eax 
 popq %rbp 
 .cfi_def_cfa 7, 8 
 ret 
 .cfi_endproc 
 .LFE0: 
 .size main, .-main 
 .ident "GCC: (Ubuntu 5.4.0-6ubuntu1~16.04.4) 5.4.0 20160609" 
 .section .note.GNU-stack,"",@progbits 
 .file "printFile304.c" 
 .section .rodata 
 .align 8 
 .LC0: 
 .string "pkggcevigcukfcjbrbsosbbdklwtvdxgmqiblpxgrqeurmveqqtjrwoeilxgovpboxecneiivofpebvutpglowpyipialxdcxkelqovogbekedhxupjkmylwotwctdepybjbwijtupbrixyvxufso\177" 
 .text 
 .globl main 
 .type main, @function 
 main: 
 .LFB0: 
 .cfi_startproc 
 pushq %rbp 
 .cfi_def_cfa_offset 16 
 .cfi_offset 6, -16 
 movq %rsp, %rbp 
 .cfi_def_cfa_register 6 
 movl $.LC0, %edi 
 movl $0, %eax 
 call printf 
 movl $0, %eax 
 popq %rbp 
 .cfi_def_cfa 7, 8 
 ret 
 .cfi_endproc 
 .LFE0: 
 .size main, .-main 
 .ident "GCC: (Ubuntu 5.4.0-6ubuntu1~16.04.4) 5.4.0 20160609" 
 .section .note.GNU-stack,"",@progbits 
 .file "printFile305.c" 
 .section .rodata 
 .align 8 
 .LC0: 
 .string "ngwydlvdqpgwkxisekwcsbbdklwtvdxgmqiblpxgrqeurmveqqtjrwoeilxgovpboxecneiivofpebvutpglowpyipialxdcxkelqovogbekedhxupjkmylwotwctdepybjbwijtupbrixyvxufso\177" 
 .text 
 .globl main 
 .type main, @function 
 main: 
 .LFB0: 
 .cfi_startproc 
 pushq %rbp 
 .cfi_def_cfa_offset 16 
 .cfi_offset 6, -16 
 movq %rsp, %rbp 
 .cfi_def_cfa_register 6 
 movl $.LC0, %edi 
 movl $0, %eax 
 call printf 
 movl $0, %eax 
 popq %rbp 
 .cfi_def_cfa 7, 8 
 ret 
 .cfi_endproc 
 .LFE0: 
 .size main, .-main 
 .ident "GCC: (Ubuntu 5.4.0-6ubuntu1~16.04.4) 5.4.0 20160609" 
 .section .note.GNU-stack,"",@progbits 
 .file "printFile306.c" 
 .section .rodata 
 .align 8 
 .LC0: 
 .string "dfpqmrcnlydrvdwkbabsixdgixluvprbuhtkbvaoveirjgekgfdrgjxqhlofcghyodjrakhxqpravwmfcpwkbucljsqlyakcxkelqovogbekedhxupjkmylwotwctdepybjbwijtupbrixyvxufso\177" 
 .text 
 .globl main 
 .type main, @function 
 main: 
 .LFB0: 
 .cfi_startproc 
 pushq %rbp 
 .cfi_def_cfa_offset 16 
 .cfi_offset 6, -16 
 movq %rsp, %rbp 
 .cfi_def_cfa_register 6 
 movl $.LC0, %edi 
 movl $0, %eax 
 call printf 
 movl $0, %eax 
 popq %rbp 
 .cfi_def_cfa 7, 8 
 ret 
 .cfi_endproc 
 .LFE0: 
 .size main, .-main 
 .ident "GCC: (Ubuntu 5.4.0-6ubuntu1~16.04.4) 5.4.0 20160609" 
 .section .note.GNU-stack,"",@progbits 
 .file "printFile307.c" 
 .section .rodata 
 .align 8 
 .LC0: 
 .string "gwighpgxhxagudwkbabsixdgixluvprbuhtkbvaoveirjgekgfdrgjxqhlofcghyodjrakhxqpravwmfcpwkbucljsqlyakcxkelqovogbekedhxupjkmylwotwctdepybjbwijtupbrixyvxufso\177" 
 .text 
 .globl main 
 .type main, @function 
 main: 
 .LFB0: 
 .cfi_startproc 
 pushq %rbp 
 .cfi_def_cfa_offset 16 
 .cfi_offset 6, -16 
 movq %rsp, %rbp 
 .cfi_def_cfa_register 6 
 movl $.LC0, %edi 
 movl $0, %eax 
 call printf 
 movl $0, %eax 
 popq %rbp 
 .cfi_def_cfa 7, 8 
 ret 
 .cfi_endproc 
 .LFE0: 
 .size main, .-main 
 .ident "GCC: (Ubuntu 5.4.0-6ubuntu1~16.04.4) 5.4.0 20160609" 
 .section .note.GNU-stack,"",@progbits 
 .file "printFile308.c" 
 .section .rodata 
 .align 8 
 .LC0: 
 .string "laekmihqtqjmcjppyvmhevykthivngiyioluwvaoveirjgekgfdrgjxqhlofcghyodjrakhxqpravwmfcpwkbucljsqlyakcxkelqovogbekedhxupjkmylwotwctdepybjbwijtupbrixyvxufso\177" 
 .text 
 .globl main 
 .type main, @function 
 main: 
 .LFB0: 
 .cfi_startproc 
 pushq %rbp 
 .cfi_def_cfa_offset 16 
 .cfi_offset 6, -16 
 movq %rsp, %rbp 
 .cfi_def_cfa_register 6 
 movl $.LC0, %edi 
 movl $0, %eax 
 call printf 
 movl $0, %eax 
 popq %rbp 
 .cfi_def_cfa 7, 8 
 ret 
 .cfi_endproc 
 .LFE0: 
 .size main, .-main 
 .ident "GCC: (Ubuntu 5.4.0-6ubuntu1~16.04.4) 5.4.0 20160609" 
 .section .note.GNU-stack,"",@progbits 
 .file "printFile309.c" 
 .section .rodata 
 .align 8 
 .LC0: 
 .string "mqkxgohxejtsqaoqkkmhevykthivngiyioluwvaoveirjgekgfdrgjxqhlofcghyodjrakhxqpravwmfcpwkbucljsqlyakcxkelqovogbekedhxupjkmylwotwctdepybjbwijtupbrixyvxufso\177" 
 .text 
 .globl main 
 .type main, @function 
 main: 
 .LFB0: 
 .cfi_startproc 
 pushq %rbp 
 .cfi_def_cfa_offset 16 
 .cfi_offset 6, -16 
 movq %rsp, %rbp 
 .cfi_def_cfa_register 6 
 movl $.LC0, %edi 
 movl $0, %eax 
 call printf 
 movl $0, %eax 
 popq %rbp 
 .cfi_def_cfa 7, 8 
 ret 
 .cfi_endproc 
 .LFE0: 
 .size main, .-main 
 .ident "GCC: (Ubuntu 5.4.0-6ubuntu1~16.04.4) 5.4.0 20160609" 
 .section .note.GNU-stack,"",@progbits 
 .file "printFile310.c" 
 .section .rodata 
 .align 8 
 .LC0: 
 .string "ugndqolgajdsxwfvfugdbpyuiyjyjwbgdokwfxdfhibhhiemdmphcoeknpmymnisfupksusddvkavwmfcpwkbucljsqlyakcxkelqovogbekedhxupjkmylwotwctdepybjbwijtupbrixyvxufso\177" 
 .text 
 .globl main 
 .type main, @function 
 main: 
 .LFB0: 
 .cfi_startproc 
 pushq %rbp 
 .cfi_def_cfa_offset 16 
 .cfi_offset 6, -16 
 movq %rsp, %rbp 
 .cfi_def_cfa_register 6 
 movl $.LC0, %edi 
 movl $0, %eax 
 call printf 
 movl $0, %eax 
 popq %rbp 
 .cfi_def_cfa 7, 8 
 ret 
 .cfi_endproc 
 .LFE0: 
 .size main, .-main 
 .ident "GCC: (Ubuntu 5.4.0-6ubuntu1~16.04.4) 5.4.0 20160609" 
 .section .note.GNU-stack,"",@progbits 
 .file "printFile311.c" 
 .section .rodata 
 .align 8 
 .LC0: 
 .string "eqxkdqrhfvsvlhwbuftaajnvegyjcluifvskmmstinrwupxputsxditjqsuugsdlowwdjpyudrtahtrenmcsuvelqygxrmjijilualrfflfmfxquktngrrtjtdhlpswbeivevqmbupbrixyvxufso\177" 
 .text 
 .globl main 
 .type main, @function 
 main: 
 .LFB0: 
 .cfi_startproc 
 pushq %rbp 
 .cfi_def_cfa_offset 16 
 .cfi_offset 6, -16 
 movq %rsp, %rbp 
 .cfi_def_cfa_register 6 
 movl $.LC0, %edi 
 movl $0, %eax 
 call printf 
 movl $0, %eax 
 popq %rbp 
 .cfi_def_cfa 7, 8 
 ret 
 .cfi_endproc 
 .LFE0: 
 .size main, .-main 
 .ident "GCC: (Ubuntu 5.4.0-6ubuntu1~16.04.4) 5.4.0 20160609" 
 .section .note.GNU-stack,"",@progbits 
 .file "printFile312.c" 
 .section .rodata 
 .align 8 
 .LC0: 
 .string "rpmpjhdfxlwrfglipaalwbrhaxgqkluifvskmmstinrwupxputsxditjqsuugsdlowwdjpyudrtahtrenmcsuvelqygxrmjijilualrfflfmfxquktngrrtjtdhlpswbeivevqmbupbrixyvxufso\177" 
 .text 
 .globl main 
 .type main, @function 
 main: 
 .LFB0: 
 .cfi_startproc 
 pushq %rbp 
 .cfi_def_cfa_offset 16 
 .cfi_offset 6, -16 
 movq %rsp, %rbp 
 .cfi_def_cfa_register 6 
 movl $.LC0, %edi 
 movl $0, %eax 
 call printf 
 movl $0, %eax 
 popq %rbp 
 .cfi_def_cfa 7, 8 
 ret 
 .cfi_endproc 
 .LFE0: 
 .size main, .-main 
 .ident "GCC: (Ubuntu 5.4.0-6ubuntu1~16.04.4) 5.4.0 20160609" 
 .section .note.GNU-stack,"",@progbits 
 .file "printFile313.c" 
 .section .rodata 
 .align 8 
 .LC0: 
 .string "udahujrxopjnhrwvcovdcsetagsgwfquksskmmstinrwupxputsxditjqsuugsdlowwdjpyudrtahtrenmcsuvelqygxrmjijilualrfflfmfxquktngrrtjtdhlpswbeivevqmbupbrixyvxufso\177" 
 .text 
 .globl main 
 .type main, @function 
 main: 
 .LFB0: 
 .cfi_startproc 
 pushq %rbp 
 .cfi_def_cfa_offset 16 
 .cfi_offset 6, -16 
 movq %rsp, %rbp 
 .cfi_def_cfa_register 6 
 movl $.LC0, %edi 
 movl $0, %eax 
 call printf 
 movl $0, %eax 
 popq %rbp 
 .cfi_def_cfa 7, 8 
 ret 
 .cfi_endproc 
 .LFE0: 
 .size main, .-main 
 .ident "GCC: (Ubuntu 5.4.0-6ubuntu1~16.04.4) 5.4.0 20160609" 
 .section .note.GNU-stack,"",@progbits 
 .file "printFile314.c" 
 .section .rodata 
 .align 8 
 .LC0: 
 .string "gexgujrxopjnhrwvcovdcsetagsgwfquksskmmstinrwupxputsxditjqsuugsdlowwdjpyudrtahtrenmcsuvelqygxrmjijilualrfflfmfxquktngrrtjtdhlpswbeivevqmbupbrixyvxufso\177" 
 .text 
 .globl main 
 .type main, @function 
 main: 
 .LFB0: 
 .cfi_startproc 
 pushq %rbp 
 .cfi_def_cfa_offset 16 
 .cfi_offset 6, -16 
 movq %rsp, %rbp 
 .cfi_def_cfa_register 6 
 movl $.LC0, %edi 
 movl $0, %eax 
 call printf 
 movl $0, %eax 
 popq %rbp 
 .cfi_def_cfa 7, 8 
 ret 
 .cfi_endproc 
 .LFE0: 
 .size main, .-main 
 .ident "GCC: (Ubuntu 5.4.0-6ubuntu1~16.04.4) 5.4.0 20160609" 
 .section .note.GNU-stack,"",@progbits 
 .file "printFile315.c" 
 .section .rodata 
 .align 8 
 .LC0: 
 .string "nsixkftmuprykwtkfotftmafhgnlftgumqsywmmteesodpxputsxditjqsuugsdlowwdjpyudrtahtrenmcsuvelqygxrmjijilualrfflfmfxquktngrrtjtdhlpswbeivevqmbupbrixyvxufso\177" 
 .text 
 .globl main 
 .type main, @function 
 main: 
 .LFB0: 
 .cfi_startproc 
 pushq %rbp 
 .cfi_def_cfa_offset 16 
 .cfi_offset 6, -16 
 movq %rsp, %rbp 
 .cfi_def_cfa_register 6 
 movl $.LC0, %edi 
 movl $0, %eax 
 call printf 
 movl $0, %eax 
 popq %rbp 
 .cfi_def_cfa 7, 8 
 ret 
 .cfi_endproc 
 .LFE0: 
 .size main, .-main 
 .ident "GCC: (Ubuntu 5.4.0-6ubuntu1~16.04.4) 5.4.0 20160609" 
 .section .note.GNU-stack,"",@progbits 
 .file "printFile316.c" 
 .section .rodata 
 .align 8 
 .LC0: 
 .string "aldvqakshryufgqlcgewfdktwobseghgrneipodwiftnlkbpsfnyjauiqxdwfldyowwdjpyudrtahtrenmcsuvelqygxrmjijilualrfflfmfxquktngrrtjtdhlpswbeivevqmbupbrixyvxufso\177" 
 .text 
 .globl main 
 .type main, @function 
 main: 
 .LFB0: 
 .cfi_startproc 
 pushq %rbp 
 .cfi_def_cfa_offset 16 
 .cfi_offset 6, -16 
 movq %rsp, %rbp 
 .cfi_def_cfa_register 6 
 movl $.LC0, %edi 
 movl $0, %eax 
 call printf 
 movl $0, %eax 
 popq %rbp 
 .cfi_def_cfa 7, 8 
 ret 
 .cfi_endproc 
 .LFE0: 
 .size main, .-main 
 .ident "GCC: (Ubuntu 5.4.0-6ubuntu1~16.04.4) 5.4.0 20160609" 
 .section .note.GNU-stack,"",@progbits 
 .file "printFile317.c" 
 .section .rodata 
 .align 8 
 .LC0: 
 .string "jkqanpisjxhvyyphmqsondgmhdtujuvsfovveeqpdaleabnotgeikmwrrqobnkwtbsrfykuelijnhtrenmcsuvelqygxrmjijilualrfflfmfxquktngrrtjtdhlpswbeivevqmbupbrixyvxufso\177" 
 .text 
 .globl main 
 .type main, @function 
 main: 
 .LFB0: 
 .cfi_startproc 
 pushq %rbp 
 .cfi_def_cfa_offset 16 
 .cfi_offset 6, -16 
 movq %rsp, %rbp 
 .cfi_def_cfa_register 6 
 movl $.LC0, %edi 
 movl $0, %eax 
 call printf 
 movl $0, %eax 
 popq %rbp 
 .cfi_def_cfa 7, 8 
 ret 
 .cfi_endproc 
 .LFE0: 
 .size main, .-main 
 .ident "GCC: (Ubuntu 5.4.0-6ubuntu1~16.04.4) 5.4.0 20160609" 
 .section .note.GNU-stack,"",@progbits 
 .file "printFile318.c" 
 .section .rodata 
 .align 8 
 .LC0: 
 .string "ycgiiqsupmngbqwnnsoikviwsoidxvpabyijrdfiruqulnicgykswuqpkyskxlkbkskcvrmnoeibrsdytprqnkglqygxrmjijilualrfflfmfxquktngrrtjtdhlpswbeivevqmbupbrixyvxufso\177" 
 .text 
 .globl main 
 .type main, @function 
 main: 
 .LFB0: 
 .cfi_startproc 
 pushq %rbp 
 .cfi_def_cfa_offset 16 
 .cfi_offset 6, -16 
 movq %rsp, %rbp 
 .cfi_def_cfa_register 6 
 movl $.LC0, %edi 
 movl $0, %eax 
 call printf 
 movl $0, %eax 
 popq %rbp 
 .cfi_def_cfa 7, 8 
 ret 
 .cfi_endproc 
 .LFE0: 
 .size main, .-main 
 .ident "GCC: (Ubuntu 5.4.0-6ubuntu1~16.04.4) 5.4.0 20160609" 
 .section .note.GNU-stack,"",@progbits 
 .file "printFile319.c" 
 .section .rodata 
 .align 8 
 .LC0: 
 .string "kckknvnaqaepsrfjvqkplpowsoidxvpabyijrdfiruqulnicgykswuqpkyskxlkbkskcvrmnoeibrsdytprqnkglqygxrmjijilualrfflfmfxquktngrrtjtdhlpswbeivevqmbupbrixyvxufso\177" 
 .text 
 .globl main 
 .type main, @function 
 main: 
 .LFB0: 
 .cfi_startproc 
 pushq %rbp 
 .cfi_def_cfa_offset 16 
 .cfi_offset 6, -16 
 movq %rsp, %rbp 
 .cfi_def_cfa_register 6 
 movl $.LC0, %edi 
 movl $0, %eax 
 call printf 
 movl $0, %eax 
 popq %rbp 
 .cfi_def_cfa 7, 8 
 ret 
 .cfi_endproc 
 .LFE0: 
 .size main, .-main 
 .ident "GCC: (Ubuntu 5.4.0-6ubuntu1~16.04.4) 5.4.0 20160609" 
 .section .note.GNU-stack,"",@progbits 
 .file "printFile320.c" 
 .section .rodata 
 .align 8 
 .LC0: 
 .string "gjwvtgtgigsxciavjenevsntjbkvqbcymbujhqrrxnrcvrxfwljuhxrqycorfsruwoeggxyelsgilhnkuafcayvbdmsjimgfckliimowgwfmfxquktngrrtjtdhlpswbeivevqmbupbrixyvxufso\177" 
 .text 
 .globl main 
 .type main, @function 
 main: 
 .LFB0: 
 .cfi_startproc 
 pushq %rbp 
 .cfi_def_cfa_offset 16 
 .cfi_offset 6, -16 
 movq %rsp, %rbp 
 .cfi_def_cfa_register 6 
 movl $.LC0, %edi 
 movl $0, %eax 
 call printf 
 movl $0, %eax 
 popq %rbp 
 .cfi_def_cfa 7, 8 
 ret 
 .cfi_endproc 
 .LFE0: 
 .size main, .-main 
 .ident "GCC: (Ubuntu 5.4.0-6ubuntu1~16.04.4) 5.4.0 20160609" 
 .section .note.GNU-stack,"",@progbits 
 .file "printFile321.c" 
 .section .rodata 
 .align 8 
 .LC0: 
 .string "reuecgtgigsxciavjenevsntjbkvqbcymbujhqrrxnrcvrxfwljuhxrqycorfsruwoeggxyelsgilhnkuafcayvbdmsjimgfckliimowgwfmfxquktngrrtjtdhlpswbeivevqmbupbrixyvxufso\177" 
 .text 
 .globl main 
 .type main, @function 
 main: 
 .LFB0: 
 .cfi_startproc 
 pushq %rbp 
 .cfi_def_cfa_offset 16 
 .cfi_offset 6, -16 
 movq %rsp, %rbp 
 .cfi_def_cfa_register 6 
 movl $.LC0, %edi 
 movl $0, %eax 
 call printf 
 movl $0, %eax 
 popq %rbp 
 .cfi_def_cfa 7, 8 
 ret 
 .cfi_endproc 
 .LFE0: 
 .size main, .-main 
 .ident "GCC: (Ubuntu 5.4.0-6ubuntu1~16.04.4) 5.4.0 20160609" 
 .section .note.GNU-stack,"",@progbits 
 .file "printFile322.c" 
 .section .rodata 
 .align 8 
 .LC0: 
 .string "jgwlexortxcgehiquscihyofgildmnbxuajybysuyubgekyfwljuhxrqycorfsruwoeggxyelsgilhnkuafcayvbdmsjimgfckliimowgwfmfxquktngrrtjtdhlpswbeivevqmbupbrixyvxufso\177" 
 .text 
 .globl main 
 .type main, @function 
 main: 
 .LFB0: 
 .cfi_startproc 
 pushq %rbp 
 .cfi_def_cfa_offset 16 
 .cfi_offset 6, -16 
 movq %rsp, %rbp 
 .cfi_def_cfa_register 6 
 movl $.LC0, %edi 
 movl $0, %eax 
 call printf 
 movl $0, %eax 
 popq %rbp 
 .cfi_def_cfa 7, 8 
 ret 
 .cfi_endproc 
 .LFE0: 
 .size main, .-main 
 .ident "GCC: (Ubuntu 5.4.0-6ubuntu1~16.04.4) 5.4.0 20160609" 
 .section .note.GNU-stack,"",@progbits 
 .file "printFile323.c" 
 .section .rodata 
 .align 8 
 .LC0: 
 .string "dbincyskjeqxstxptkqujmpkhtqmgsoltyyyarjjwcjrvhjqrandmgqwajlgcarwyrxyljkkmtcilhnkuafcayvbdmsjimgfckliimowgwfmfxquktngrrtjtdhlpswbeivevqmbupbrixyvxufso\177" 
 .text 
 .globl main 
 .type main, @function 
 main: 
 .LFB0: 
 .cfi_startproc 
 pushq %rbp 
 .cfi_def_cfa_offset 16 
 .cfi_offset 6, -16 
 movq %rsp, %rbp 
 .cfi_def_cfa_register 6 
 movl $.LC0, %edi 
 movl $0, %eax 
 call printf 
 movl $0, %eax 
 popq %rbp 
 .cfi_def_cfa 7, 8 
 ret 
 .cfi_endproc 
 .LFE0: 
 .size main, .-main 
 .ident "GCC: (Ubuntu 5.4.0-6ubuntu1~16.04.4) 5.4.0 20160609" 
 .section .note.GNU-stack,"",@progbits 
 .file "printFile324.c" 
 .section .rodata 
 .align 8 
 .LC0: 
 .string "dnbvqpbfvrcxcpeepxdqrbrelcoxxtiehyyyarjjwcjrvhjqrandmgqwajlgcarwyrxyljkkmtcilhnkuafcayvbdmsjimgfckliimowgwfmfxquktngrrtjtdhlpswbeivevqmbupbrixyvxufso\177" 
 .text 
 .globl main 
 .type main, @function 
 main: 
 .LFB0: 
 .cfi_startproc 
 pushq %rbp 
 .cfi_def_cfa_offset 16 
 .cfi_offset 6, -16 
 movq %rsp, %rbp 
 .cfi_def_cfa_register 6 
 movl $.LC0, %edi 
 movl $0, %eax 
 call printf 
 movl $0, %eax 
 popq %rbp 
 .cfi_def_cfa 7, 8 
 ret 
 .cfi_endproc 
 .LFE0: 
 .size main, .-main 
 .ident "GCC: (Ubuntu 5.4.0-6ubuntu1~16.04.4) 5.4.0 20160609" 
 .section .note.GNU-stack,"",@progbits 
 .file "printFile325.c" 
 .section .rodata 
 .align 8 
 .LC0: 
 .string "axadexvivayaeqaiislawwflwffgjnqlnsrrqndmncotsoebhqegplsnsavfposehkxaxbonffiytmcedikvvfjpghwxvpcfbdhygvpmbanwmrdsbooyvaqejndhehmhkvittxgbupbrixyvxufso\177" 
 .text 
 .globl main 
 .type main, @function 
 main: 
 .LFB0: 
 .cfi_startproc 
 pushq %rbp 
 .cfi_def_cfa_offset 16 
 .cfi_offset 6, -16 
 movq %rsp, %rbp 
 .cfi_def_cfa_register 6 
 movl $.LC0, %edi 
 movl $0, %eax 
 call printf 
 movl $0, %eax 
 popq %rbp 
 .cfi_def_cfa 7, 8 
 ret 
 .cfi_endproc 
 .LFE0: 
 .size main, .-main 
 .ident "GCC: (Ubuntu 5.4.0-6ubuntu1~16.04.4) 5.4.0 20160609" 
 .section .note.GNU-stack,"",@progbits 
 .file "printFile326.c" 
 .section .rodata 
 .align 8 
 .LC0: 
 .string "xvtnnxiqoyqkyjpkxurecglpctjvurssnoidoqwfppqqyibyfsdhyqwdnibiavdplmvcdsivibmjlojqjoxjixovgqgjmjyavwfcpnxaokmabxqlmqwwoluvebftlgtjeynvolwdyjfahxnvpmvso\177" 
 .text 
 .globl main 
 .type main, @function 
 main: 
 .LFB0: 
 .cfi_startproc 
 pushq %rbp 
 .cfi_def_cfa_offset 16 
 .cfi_offset 6, -16 
 movq %rsp, %rbp 
 .cfi_def_cfa_register 6 
 movl $.LC0, %edi 
 movl $0, %eax 
 call printf 
 movl $0, %eax 
 popq %rbp 
 .cfi_def_cfa 7, 8 
 ret 
 .cfi_endproc 
 .LFE0: 
 .size main, .-main 
 .ident "GCC: (Ubuntu 5.4.0-6ubuntu1~16.04.4) 5.4.0 20160609" 
 .section .note.GNU-stack,"",@progbits 
 .file "printFile327.c" 
 .section .rodata 
 .align 8 
 .LC0: 
 .string "bqcfnxiqoyqkyjpkxurecglpctjvurssnoidoqwfppqqyibyfsdhyqwdnibiavdplmvcdsivibmjlojqjoxjixovgqgjmjyavwfcpnxaokmabxqlmqwwoluvebftlgtjeynvolwdyjfahxnvpmvso\177" 
 .text 
 .globl main 
 .type main, @function 
 main: 
 .LFB0: 
 .cfi_startproc 
 pushq %rbp 
 .cfi_def_cfa_offset 16 
 .cfi_offset 6, -16 
 movq %rsp, %rbp 
 .cfi_def_cfa_register 6 
 movl $.LC0, %edi 
 movl $0, %eax 
 call printf 
 movl $0, %eax 
 popq %rbp 
 .cfi_def_cfa 7, 8 
 ret 
 .cfi_endproc 
 .LFE0: 
 .size main, .-main 
 .ident "GCC: (Ubuntu 5.4.0-6ubuntu1~16.04.4) 5.4.0 20160609" 
 .section .note.GNU-stack,"",@progbits 
 .file "printFile328.c" 
 .section .rodata 
 .align 8 
 .LC0: 
 .string "hygqvruwgqmtprsbavrecglpctjvurssnoidoqwfppqqyibyfsdhyqwdnibiavdplmvcdsivibmjlojqjoxjixovgqgjmjyavwfcpnxaokmabxqlmqwwoluvebftlgtjeynvolwdyjfahxnvpmvso\177" 
 .text 
 .globl main 
 .type main, @function 
 main: 
 .LFB0: 
 .cfi_startproc 
 pushq %rbp 
 .cfi_def_cfa_offset 16 
 .cfi_offset 6, -16 
 movq %rsp, %rbp 
 .cfi_def_cfa_register 6 
 movl $.LC0, %edi 
 movl $0, %eax 
 call printf 
 movl $0, %eax 
 popq %rbp 
 .cfi_def_cfa 7, 8 
 ret 
 .cfi_endproc 
 .LFE0: 
 .size main, .-main 
 .ident "GCC: (Ubuntu 5.4.0-6ubuntu1~16.04.4) 5.4.0 20160609" 
 .section .note.GNU-stack,"",@progbits 
 .file "printFile329.c" 
 .section .rodata 
 .align 8 
 .LC0: 
 .string "xlhnyfsavuhqfjyvhrsealstenpfnnqlyaaafucdrmuyvtwdnpjnefkisapiavdplmvcdsivibmjlojqjoxjixovgqgjmjyavwfcpnxaokmabxqlmqwwoluvebftlgtjeynvolwdyjfahxnvpmvso\177" 
 .text 
 .globl main 
 .type main, @function 
 main: 
 .LFB0: 
 .cfi_startproc 
 pushq %rbp 
 .cfi_def_cfa_offset 16 
 .cfi_offset 6, -16 
 movq %rsp, %rbp 
 .cfi_def_cfa_register 6 
 movl $.LC0, %edi 
 movl $0, %eax 
 call printf 
 movl $0, %eax 
 popq %rbp 
 .cfi_def_cfa 7, 8 
 ret 
 .cfi_endproc 
 .LFE0: 
 .size main, .-main 
 .ident "GCC: (Ubuntu 5.4.0-6ubuntu1~16.04.4) 5.4.0 20160609" 
 .section .note.GNU-stack,"",@progbits 
 .file "printFile330.c" 
 .section .rodata 
 .align 8 
 .LC0: 
 .string "gtqivtpsvtnkomikklycxmgdyoxbfgqnciybeovcijnwwvihkjjivsnxjnyqvqfabgdfuahelwditnreweovyetituaplhronvvixgojduswkmdistgwoluvebftlgtjeynvolwdyjfahxnvpmvso\177" 
 .text 
 .globl main 
 .type main, @function 
 main: 
 .LFB0: 
 .cfi_startproc 
 pushq %rbp 
 .cfi_def_cfa_offset 16 
 .cfi_offset 6, -16 
 movq %rsp, %rbp 
 .cfi_def_cfa_register 6 
 movl $.LC0, %edi 
 movl $0, %eax 
 call printf 
 movl $0, %eax 
 popq %rbp 
 .cfi_def_cfa 7, 8 
 ret 
 .cfi_endproc 
 .LFE0: 
 .size main, .-main 
 .ident "GCC: (Ubuntu 5.4.0-6ubuntu1~16.04.4) 5.4.0 20160609" 
 .section .note.GNU-stack,"",@progbits 
 .file "printFile331.c" 
 .section .rodata 
 .align 8 
 .LC0: 
 .string "acbtwbllkgcxcyiaflycxmgdyoxbfgqnciybeovcijnwwvihkjjivsnxjnyqvqfabgdfuahelwditnreweovyetituaplhronvvixgojduswkmdistgwoluvebftlgtjeynvolwdyjfahxnvpmvso\177" 
 .text 
 .globl main 
 .type main, @function 
 main: 
 .LFB0: 
 .cfi_startproc 
 pushq %rbp 
 .cfi_def_cfa_offset 16 
 .cfi_offset 6, -16 
 movq %rsp, %rbp 
 .cfi_def_cfa_register 6 
 movl $.LC0, %edi 
 movl $0, %eax 
 call printf 
 movl $0, %eax 
 popq %rbp 
 .cfi_def_cfa 7, 8 
 ret 
 .cfi_endproc 
 .LFE0: 
 .size main, .-main 
 .ident "GCC: (Ubuntu 5.4.0-6ubuntu1~16.04.4) 5.4.0 20160609" 
 .section .note.GNU-stack,"",@progbits 
 .file "printFile332.c" 
 .section .rodata 
 .align 8 
 .LC0: 
 .string "jiueiftnpmkxhkcihclunvbpvoxbfgqnciybeovcijnwwvihkjjivsnxjnyqvqfabgdfuahelwditnreweovyetituaplhronvvixgojduswkmdistgwoluvebftlgtjeynvolwdyjfahxnvpmvso\177" 
 .text 
 .globl main 
 .type main, @function 
 main: 
 .LFB0: 
 .cfi_startproc 
 pushq %rbp 
 .cfi_def_cfa_offset 16 
 .cfi_offset 6, -16 
 movq %rsp, %rbp 
 .cfi_def_cfa_register 6 
 movl $.LC0, %edi 
 movl $0, %eax 
 call printf 
 movl $0, %eax 
 popq %rbp 
 .cfi_def_cfa 7, 8 
 ret 
 .cfi_endproc 
 .LFE0: 
 .size main, .-main 
 .ident "GCC: (Ubuntu 5.4.0-6ubuntu1~16.04.4) 5.4.0 20160609" 
 .section .note.GNU-stack,"",@progbits 
 .file "printFile333.c" 
 .section .rodata 
 .align 8 
 .LC0: 
 .string "qgfvgrhbxrjrhbfraofewogklvinmeufmdctulwsfilmksfmhmqgbxqxjnyqvqfabgdfuahelwditnreweovyetituaplhronvvixgojduswkmdistgwoluvebftlgtjeynvolwdyjfahxnvpmvso\177" 
 .text 
 .globl main 
 .type main, @function 
 main: 
 .LFB0: 
 .cfi_startproc 
 pushq %rbp 
 .cfi_def_cfa_offset 16 
 .cfi_offset 6, -16 
 movq %rsp, %rbp 
 .cfi_def_cfa_register 6 
 movl $.LC0, %edi 
 movl $0, %eax 
 call printf 
 movl $0, %eax 
 popq %rbp 
 .cfi_def_cfa 7, 8 
 ret 
 .cfi_endproc 
 .LFE0: 
 .size main, .-main 
 .ident "GCC: (Ubuntu 5.4.0-6ubuntu1~16.04.4) 5.4.0 20160609" 
 .section .note.GNU-stack,"",@progbits 
 .file "printFile334.c" 
 .section .rodata 
 .align 8 
 .LC0: 
 .string "tyeifaordsnxglfraofewogklvinmeufmdctulwsfilmksfmhmqgbxqxjnyqvqfabgdfuahelwditnreweovyetituaplhronvvixgojduswkmdistgwoluvebftlgtjeynvolwdyjfahxnvpmvso\177" 
 .text 
 .globl main 
 .type main, @function 
 main: 
 .LFB0: 
 .cfi_startproc 
 pushq %rbp 
 .cfi_def_cfa_offset 16 
 .cfi_offset 6, -16 
 movq %rsp, %rbp 
 .cfi_def_cfa_register 6 
 movl $.LC0, %edi 
 movl $0, %eax 
 call printf 
 movl $0, %eax 
 popq %rbp 
 .cfi_def_cfa 7, 8 
 ret 
 .cfi_endproc 
 .LFE0: 
 .size main, .-main 
 .ident "GCC: (Ubuntu 5.4.0-6ubuntu1~16.04.4) 5.4.0 20160609" 
 .section .note.GNU-stack,"",@progbits 
 .file "printFile335.c" 
 .section .rodata 
 .align 8 
 .LC0: 
 .string "ltgxebfsitkqwkjmgkfewogklvinmeufmdctulwsfilmksfmhmqgbxqxjnyqvqfabgdfuahelwditnreweovyetituaplhronvvixgojduswkmdistgwoluvebftlgtjeynvolwdyjfahxnvpmvso\177" 
 .text 
 .globl main 
 .type main, @function 
 main: 
 .LFB0: 
 .cfi_startproc 
 pushq %rbp 
 .cfi_def_cfa_offset 16 
 .cfi_offset 6, -16 
 movq %rsp, %rbp 
 .cfi_def_cfa_register 6 
 movl $.LC0, %edi 
 movl $0, %eax 
 call printf 
 movl $0, %eax 
 popq %rbp 
 .cfi_def_cfa 7, 8 
 ret 
 .cfi_endproc 
 .LFE0: 
 .size main, .-main 
 .ident "GCC: (Ubuntu 5.4.0-6ubuntu1~16.04.4) 5.4.0 20160609" 
 .section .note.GNU-stack,"",@progbits 
 .file "printFile336.c" 
 .section .rodata 
 .align 8 
 .LC0: 
 .string "rpsgkvbxvjlpugxumadikwscuflhlwadotlbpocoxnguveslevtpuotpvhyjganxvbylsdcstiqrpjdthylcphsnptxvtntpqvejbifurvnhhsdoupsmylboiyncmhudfbphjucdsrmalxnvpmvso\177" 
 .text 
 .globl main 
 .type main, @function 
 main: 
 .LFB0: 
 .cfi_startproc 
 pushq %rbp 
 .cfi_def_cfa_offset 16 
 .cfi_offset 6, -16 
 movq %rsp, %rbp 
 .cfi_def_cfa_register 6 
 movl $.LC0, %edi 
 movl $0, %eax 
 call printf 
 movl $0, %eax 
 popq %rbp 
 .cfi_def_cfa 7, 8 
 ret 
 .cfi_endproc 
 .LFE0: 
 .size main, .-main 
 .ident "GCC: (Ubuntu 5.4.0-6ubuntu1~16.04.4) 5.4.0 20160609" 
 .section .note.GNU-stack,"",@progbits 
 .file "printFile337.c" 
 .section .rodata 
 .align 8 
 .LC0: 
 .string "qiijuhxvwgukkjtfpcihjscnxuilwtcncmwwtuvsbsfmfctuedcpxgfxdnjcjnpnaoylsdcstiqrpjdthylcphsnptxvtntpqvejbifurvnhhsdoupsmylboiyncmhudfbphjucdsrmalxnvpmvso\177" 
 .text 
 .globl main 
 .type main, @function 
 main: 
 .LFB0: 
 .cfi_startproc 
 pushq %rbp 
 .cfi_def_cfa_offset 16 
 .cfi_offset 6, -16 
 movq %rsp, %rbp 
 .cfi_def_cfa_register 6 
 movl $.LC0, %edi 
 movl $0, %eax 
 call printf 
 movl $0, %eax 
 popq %rbp 
 .cfi_def_cfa 7, 8 
 ret 
 .cfi_endproc 
 .LFE0: 
 .size main, .-main 
 .ident "GCC: (Ubuntu 5.4.0-6ubuntu1~16.04.4) 5.4.0 20160609" 
 .section .note.GNU-stack,"",@progbits 
 .file "printFile338.c" 
 .section .rodata 
 .align 8 
 .LC0: 
 .string "wmjrncachcyeieiaeqhctvmvfanvddjarsthwtvsbsfmfctuedcpxgfxdnjcjnpnaoylsdcstiqrpjdthylcphsnptxvtntpqvejbifurvnhhsdoupsmylboiyncmhudfbphjucdsrmalxnvpmvso\177" 
 .text 
 .globl main 
 .type main, @function 
 main: 
 .LFB0: 
 .cfi_startproc 
 pushq %rbp 
 .cfi_def_cfa_offset 16 
 .cfi_offset 6, -16 
 movq %rsp, %rbp 
 .cfi_def_cfa_register 6 
 movl $.LC0, %edi 
 movl $0, %eax 
 call printf 
 movl $0, %eax 
 popq %rbp 
 .cfi_def_cfa 7, 8 
 ret 
 .cfi_endproc 
 .LFE0: 
 .size main, .-main 
 .ident "GCC: (Ubuntu 5.4.0-6ubuntu1~16.04.4) 5.4.0 20160609" 
 .section .note.GNU-stack,"",@progbits 
 .file "printFile339.c" 
 .section .rodata 
 .align 8 
 .LC0: 
 .string "hxlnipwivnqxkokivnyrqebsvvodvjpdjbqsspdogvnqkabjpabgefbcdsgycvenaxgunmktiamvaofsqiyxpdatvguafapfxyallmivmwrpnyifkjdaofvmmrotrfyrebdponndsrmalxnvpmvso\177" 
 .text 
 .globl main 
 .type main, @function 
 main: 
 .LFB0: 
 .cfi_startproc 
 pushq %rbp 
 .cfi_def_cfa_offset 16 
 .cfi_offset 6, -16 
 movq %rsp, %rbp 
 .cfi_def_cfa_register 6 
 movl $.LC0, %edi 
 movl $0, %eax 
 call printf 
 movl $0, %eax 
 popq %rbp 
 .cfi_def_cfa 7, 8 
 ret 
 .cfi_endproc 
 .LFE0: 
 .size main, .-main 
 .ident "GCC: (Ubuntu 5.4.0-6ubuntu1~16.04.4) 5.4.0 20160609" 
 .section .note.GNU-stack,"",@progbits 
 .file "printFile340.c" 
 .section .rodata 
 .align 8 
 .LC0: 
 .string "lguyhfgrrjugrqvgkkacrbtvcanspcybkvbtchmttjcncxtnltpdumcyopsertgepjyrsnnowqcyqvfsqiyxpdatvguafapfxyallmivmwrpnyifkjdaofvmmrotrfyrebdponndsrmalxnvpmvso\177" 
 .text 
 .globl main 
 .type main, @function 
 main: 
 .LFB0: 
 .cfi_startproc 
 pushq %rbp 
 .cfi_def_cfa_offset 16 
 .cfi_offset 6, -16 
 movq %rsp, %rbp 
 .cfi_def_cfa_register 6 
 movl $.LC0, %edi 
 movl $0, %eax 
 call printf 
 movl $0, %eax 
 popq %rbp 
 .cfi_def_cfa 7, 8 
 ret 
 .cfi_endproc 
 .LFE0: 
 .size main, .-main 
 .ident "GCC: (Ubuntu 5.4.0-6ubuntu1~16.04.4) 5.4.0 20160609" 
 .section .note.GNU-stack,"",@progbits 
 .file "printFile341.c" 
 .section .rodata 
 .align 8 
 .LC0: 
 .string "epfimtkmicfmwbubqgalapyqmrtolrdpkiawemjmpqcmrwpleswgixwxssmelrgepjyrsnnowqcyqvfsqiyxpdatvguafapfxyallmivmwrpnyifkjdaofvmmrotrfyrebdponndsrmalxnvpmvso\177" 
 .text 
 .globl main 
 .type main, @function 
 main: 
 .LFB0: 
 .cfi_startproc 
 pushq %rbp 
 .cfi_def_cfa_offset 16 
 .cfi_offset 6, -16 
 movq %rsp, %rbp 
 .cfi_def_cfa_register 6 
 movl $.LC0, %edi 
 movl $0, %eax 
 call printf 
 movl $0, %eax 
 popq %rbp 
 .cfi_def_cfa 7, 8 
 ret 
 .cfi_endproc 
 .LFE0: 
 .size main, .-main 
 .ident "GCC: (Ubuntu 5.4.0-6ubuntu1~16.04.4) 5.4.0 20160609" 
 .section .note.GNU-stack,"",@progbits 
 .file "printFile342.c" 
 .section .rodata 
 .align 8 
 .LC0: 
 .string "xdwuhlfubxypqvgecbbkjbijtdxaqqwotvkbhrxlpwbivjpleswgixwxssmelrgepjyrsnnowqcyqvfsqiyxpdatvguafapfxyallmivmwrpnyifkjdaofvmmrotrfyrebdponndsrmalxnvpmvso\177" 
 .text 
 .globl main 
 .type main, @function 
 main: 
 .LFB0: 
 .cfi_startproc 
 pushq %rbp 
 .cfi_def_cfa_offset 16 
 .cfi_offset 6, -16 
 movq %rsp, %rbp 
 .cfi_def_cfa_register 6 
 movl $.LC0, %edi 
 movl $0, %eax 
 call printf 
 movl $0, %eax 
 popq %rbp 
 .cfi_def_cfa 7, 8 
 ret 
 .cfi_endproc 
 .LFE0: 
 .size main, .-main 
 .ident "GCC: (Ubuntu 5.4.0-6ubuntu1~16.04.4) 5.4.0 20160609" 
 .section .note.GNU-stack,"",@progbits 
 .file "printFile343.c" 
 .section .rodata 
 .align 8 
 .LC0: 
 .string "akplwrvglyfmsvlhphtsolrceqemopapbrbxjrxlpwbivjpleswgixwxssmelrgepjyrsnnowqcyqvfsqiyxpdatvguafapfxyallmivmwrpnyifkjdaofvmmrotrfyrebdponndsrmalxnvpmvso\177" 
 .text 
 .globl main 
 .type main, @function 
 main: 
 .LFB0: 
 .cfi_startproc 
 pushq %rbp 
 .cfi_def_cfa_offset 16 
 .cfi_offset 6, -16 
 movq %rsp, %rbp 
 .cfi_def_cfa_register 6 
 movl $.LC0, %edi 
 movl $0, %eax 
 call printf 
 movl $0, %eax 
 popq %rbp 
 .cfi_def_cfa 7, 8 
 ret 
 .cfi_endproc 
 .LFE0: 
 .size main, .-main 
 .ident "GCC: (Ubuntu 5.4.0-6ubuntu1~16.04.4) 5.4.0 20160609" 
 .section .note.GNU-stack,"",@progbits 
 .file "printFile344.c" 
 .section .rodata 
 .align 8 
 .LC0: 
 .string "gvxlkshvdyfwsvlmyrffeuugkxynvkmdimqsgyqjaxiuutjtnpysmvbyucmsnyvvnprtqkfqwqcyqvfsqiyxpdatvguafapfxyallmivmwrpnyifkjdaofvmmrotrfyrebdponndsrmalxnvpmvso\177" 
 .text 
 .globl main 
 .type main, @function 
 main: 
 .LFB0: 
 .cfi_startproc 
 pushq %rbp 
 .cfi_def_cfa_offset 16 
 .cfi_offset 6, -16 
 movq %rsp, %rbp 
 .cfi_def_cfa_register 6 
 movl $.LC0, %edi 
 movl $0, %eax 
 call printf 
 movl $0, %eax 
 popq %rbp 
 .cfi_def_cfa 7, 8 
 ret 
 .cfi_endproc 
 .LFE0: 
 .size main, .-main 
 .ident "GCC: (Ubuntu 5.4.0-6ubuntu1~16.04.4) 5.4.0 20160609" 
 .section .note.GNU-stack,"",@progbits 
 .file "printFile345.c" 
 .section .rodata 
 .align 8 
 .LC0: 
 .string "omekxaypbyfwsvlmyrffeuugkxynvkmdimqsgyqjaxiuutjtnpysmvbyucmsnyvvnprtqkfqwqcyqvfsqiyxpdatvguafapfxyallmivmwrpnyifkjdaofvmmrotrfyrebdponndsrmalxnvpmvso\177" 
 .text 
 .globl main 
 .type main, @function 
 main: 
 .LFB0: 
 .cfi_startproc 
 pushq %rbp 
 .cfi_def_cfa_offset 16 
 .cfi_offset 6, -16 
 movq %rsp, %rbp 
 .cfi_def_cfa_register 6 
 movl $.LC0, %edi 
 movl $0, %eax 
 call printf 
 movl $0, %eax 
 popq %rbp 
 .cfi_def_cfa 7, 8 
 ret 
 .cfi_endproc 
 .LFE0: 
 .size main, .-main 
 .ident "GCC: (Ubuntu 5.4.0-6ubuntu1~16.04.4) 5.4.0 20160609" 
 .section .note.GNU-stack,"",@progbits 
 .file "printFile346.c" 
 .section .rodata 
 .align 8 
 .LC0: 
 .string "cwwbrcplpqjnfyhbpuhjevxkivmhmndombsffisucckheuivppfvndiwcugokmfwpaeulkfqwqcyqvfsqiyxpdatvguafapfxyallmivmwrpnyifkjdaofvmmrotrfyrebdponndsrmalxnvpmvso\177" 
 .text 
 .globl main 
 .type main, @function 
 main: 
 .LFB0: 
 .cfi_startproc 
 pushq %rbp 
 .cfi_def_cfa_offset 16 
 .cfi_offset 6, -16 
 movq %rsp, %rbp 
 .cfi_def_cfa_register 6 
 movl $.LC0, %edi 
 movl $0, %eax 
 call printf 
 movl $0, %eax 
 popq %rbp 
 .cfi_def_cfa 7, 8 
 ret 
 .cfi_endproc 
 .LFE0: 
 .size main, .-main 
 .ident "GCC: (Ubuntu 5.4.0-6ubuntu1~16.04.4) 5.4.0 20160609" 
 .section .note.GNU-stack,"",@progbits 
 .file "printFile347.c" 
 .section .rodata 
 .align 8 
 .LC0: 
 .string "rnaeugyfcqximlnukprtgcgocvogsagkngokoqqqhobwcrtphojqsrfupteiwksmsjxhcqakwqcyqvfsqiyxpdatvguafapfxyallmivmwrpnyifkjdaofvmmrotrfyrebdponndsrmalxnvpmvso\177" 
 .text 
 .globl main 
 .type main, @function 
 main: 
 .LFB0: 
 .cfi_startproc 
 pushq %rbp 
 .cfi_def_cfa_offset 16 
 .cfi_offset 6, -16 
 movq %rsp, %rbp 
 .cfi_def_cfa_register 6 
 movl $.LC0, %edi 
 movl $0, %eax 
 call printf 
 movl $0, %eax 
 popq %rbp 
 .cfi_def_cfa 7, 8 
 ret 
 .cfi_endproc 
 .LFE0: 
 .size main, .-main 
 .ident "GCC: (Ubuntu 5.4.0-6ubuntu1~16.04.4) 5.4.0 20160609" 
 .section .note.GNU-stack,"",@progbits 
 .file "printFile348.c" 
 .section .rodata 
 .align 8 
 .LC0: 
 .string "cjjtdbdrktlcbitxmcuwwhpjhylxaxhehtxnudhiasmbehyqjvqheisnieokdvompoalrkvrfivjpwdattyxpdatvguafapfxyallmivmwrpnyifkjdaofvmmrotrfyrebdponndsrmalxnvpmvso\177" 
 .text 
 .globl main 
 .type main, @function 
 main: 
 .LFB0: 
 .cfi_startproc 
 pushq %rbp 
 .cfi_def_cfa_offset 16 
 .cfi_offset 6, -16 
 movq %rsp, %rbp 
 .cfi_def_cfa_register 6 
 movl $.LC0, %edi 
 movl $0, %eax 
 call printf 
 movl $0, %eax 
 popq %rbp 
 .cfi_def_cfa 7, 8 
 ret 
 .cfi_endproc 
 .LFE0: 
 .size main, .-main 
 .ident "GCC: (Ubuntu 5.4.0-6ubuntu1~16.04.4) 5.4.0 20160609" 
 .section .note.GNU-stack,"",@progbits 
 .file "printFile349.c" 
 .section .rodata 
 .align 8 
 .LC0: 
 .string "aecnmicynynbqcdewnaqtjodymgbgcmghqtvawxnxlqoqutpkvgefvkhkskqxxyhqsfqrdhrpajiwdxibgohebqowbhuygcqchjvlsodtxnsdyifkjdaofvmmrotrfyrebdponndsrmalxnvpmvso\177" 
 .text 
 .globl main 
 .type main, @function 
 main: 
 .LFB0: 
 .cfi_startproc 
 pushq %rbp 
 .cfi_def_cfa_offset 16 
 .cfi_offset 6, -16 
 movq %rsp, %rbp 
 .cfi_def_cfa_register 6 
 movl $.LC0, %edi 
 movl $0, %eax 
 call printf 
 movl $0, %eax 
 popq %rbp 
 .cfi_def_cfa 7, 8 
 ret 
 .cfi_endproc 
 .LFE0: 
 .size main, .-main 
 .ident "GCC: (Ubuntu 5.4.0-6ubuntu1~16.04.4) 5.4.0 20160609" 
 .section .note.GNU-stack,"",@progbits 
 .file "printFile350.c" 
 .section .rodata 
 .align 8 
 .LC0: 
 .string "detsnyvepsgxnfgpxiakfnfvsbtguytxdnsrawxnxlqoqutpkvgefvkhkskqxxyhqsfqrdhrpajiwdxibgohebqowbhuygcqchjvlsodtxnsdyifkjdaofvmmrotrfyrebdponndsrmalxnvpmvso\177" 
 .text 
 .globl main 
 .type main, @function 
 main: 
 .LFB0: 
 .cfi_startproc 
 pushq %rbp 
 .cfi_def_cfa_offset 16 
 .cfi_offset 6, -16 
 movq %rsp, %rbp 
 .cfi_def_cfa_register 6 
 movl $.LC0, %edi 
 movl $0, %eax 
 call printf 
 movl $0, %eax 
 popq %rbp 
 .cfi_def_cfa 7, 8 
 ret 
 .cfi_endproc 
 .LFE0: 
 .size main, .-main 
 .ident "GCC: (Ubuntu 5.4.0-6ubuntu1~16.04.4) 5.4.0 20160609" 
 .section .note.GNU-stack,"",@progbits 
 .file "printFile351.c" 
 .section .rodata 
 .align 8 
 .LC0: 
 .string "pvhichwkpokyqwgedeyeafbybaeruvikuptyyslpjyqbvyhydhgdmhcojigfforcqsfqrdhrpajiwdxibgohebqowbhuygcqchjvlsodtxnsdyifkjdaofvmmrotrfyrebdponndsrmalxnvpmvso\177" 
 .text 
 .globl main 
 .type main, @function 
 main: 
 .LFB0: 
 .cfi_startproc 
 pushq %rbp 
 .cfi_def_cfa_offset 16 
 .cfi_offset 6, -16 
 movq %rsp, %rbp 
 .cfi_def_cfa_register 6 
 movl $.LC0, %edi 
 movl $0, %eax 
 call printf 
 movl $0, %eax 
 popq %rbp 
 .cfi_def_cfa 7, 8 
 ret 
 .cfi_endproc 
 .LFE0: 
 .size main, .-main 
 .ident "GCC: (Ubuntu 5.4.0-6ubuntu1~16.04.4) 5.4.0 20160609" 
 .section .note.GNU-stack,"",@progbits 
 .file "printFile352.c" 
 .section .rodata 
 .align 8 
 .LC0: 
 .string "ndggpxqoorknymqiuvveamojuvqlpsuevcmncdcrwphycbhywfdxttjopigfforcqsfqrdhrpajiwdxibgohebqowbhuygcqchjvlsodtxnsdyifkjdaofvmmrotrfyrebdponndsrmalxnvpmvso\177" 
 .text 
 .globl main 
 .type main, @function 
 main: 
 .LFB0: 
 .cfi_startproc 
 pushq %rbp 
 .cfi_def_cfa_offset 16 
 .cfi_offset 6, -16 
 movq %rsp, %rbp 
 .cfi_def_cfa_register 6 
 movl $.LC0, %edi 
 movl $0, %eax 
 call printf 
 movl $0, %eax 
 popq %rbp 
 .cfi_def_cfa 7, 8 
 ret 
 .cfi_endproc 
 .LFE0: 
 .size main, .-main 
 .ident "GCC: (Ubuntu 5.4.0-6ubuntu1~16.04.4) 5.4.0 20160609" 
 .section .note.GNU-stack,"",@progbits 
 .file "printFile353.c" 
 .section .rodata 
 .align 8 
 .LC0: 
 .string "diuxmqcyhffjycbgdfhnehsihvqlpsuevcmncdcrwphycbhywfdxttjopigfforcqsfqrdhrpajiwdxibgohebqowbhuygcqchjvlsodtxnsdyifkjdaofvmmrotrfyrebdponndsrmalxnvpmvso\177" 
 .text 
 .globl main 
 .type main, @function 
 main: 
 .LFB0: 
 .cfi_startproc 
 pushq %rbp 
 .cfi_def_cfa_offset 16 
 .cfi_offset 6, -16 
 movq %rsp, %rbp 
 .cfi_def_cfa_register 6 
 movl $.LC0, %edi 
 movl $0, %eax 
 call printf 
 movl $0, %eax 
 popq %rbp 
 .cfi_def_cfa 7, 8 
 ret 
 .cfi_endproc 
 .LFE0: 
 .size main, .-main 
 .ident "GCC: (Ubuntu 5.4.0-6ubuntu1~16.04.4) 5.4.0 20160609" 
 .section .note.GNU-stack,"",@progbits 
 .file "printFile354.c" 
 .section .rodata 
 .align 8 
 .LC0: 
 .string "cqeuqjdlirekslrgdfhnehsihvqlpsuevcmncdcrwphycbhywfdxttjopigfforcqsfqrdhrpajiwdxibgohebqowbhuygcqchjvlsodtxnsdyifkjdaofvmmrotrfyrebdponndsrmalxnvpmvso\177" 
 .text 
 .globl main 
 .type main, @function 
 main: 
 .LFB0: 
 .cfi_startproc 
 pushq %rbp 
 .cfi_def_cfa_offset 16 
 .cfi_offset 6, -16 
 movq %rsp, %rbp 
 .cfi_def_cfa_register 6 
 movl $.LC0, %edi 
 movl $0, %eax 
 call printf 
 movl $0, %eax 
 popq %rbp 
 .cfi_def_cfa 7, 8 
 ret 
 .cfi_endproc 
 .LFE0: 
 .size main, .-main 
 .ident "GCC: (Ubuntu 5.4.0-6ubuntu1~16.04.4) 5.4.0 20160609" 
 .section .note.GNU-stack,"",@progbits 
 .file "printFile355.c" 
 .section .rodata 
 .align 8 
 .LC0: 
 .string "xqdyxgfhtloptvfymltfvyqgqxqjllkjcnlavsiseykbvpaiwfdxttjopigfforcqsfqrdhrpajiwdxibgohebqowbhuygcqchjvlsodtxnsdyifkjdaofvmmrotrfyrebdponndsrmalxnvpmvso\177" 
 .text 
 .globl main 
 .type main, @function 
 main: 
 .LFB0: 
 .cfi_startproc 
 pushq %rbp 
 .cfi_def_cfa_offset 16 
 .cfi_offset 6, -16 
 movq %rsp, %rbp 
 .cfi_def_cfa_register 6 
 movl $.LC0, %edi 
 movl $0, %eax 
 call printf 
 movl $0, %eax 
 popq %rbp 
 .cfi_def_cfa 7, 8 
 ret 
 .cfi_endproc 
 .LFE0: 
 .size main, .-main 
 .ident "GCC: (Ubuntu 5.4.0-6ubuntu1~16.04.4) 5.4.0 20160609" 
 .section .note.GNU-stack,"",@progbits 
 .file "printFile356.c" 
 .section .rodata 
 .align 8 
 .LC0: 
 .string "tqbujhlhbwvmhhowsrtnamsywtwotitpyvkidxsewoqfvgcrxxfamxbltyapjufisrqvrlbpatwycyxibgohebqowbhuygcqchjvlsodtxnsdyifkjdaofvmmrotrfyrebdponndsrmalxnvpmvso\177" 
 .text 
 .globl main 
 .type main, @function 
 main: 
 .LFB0: 
 .cfi_startproc 
 pushq %rbp 
 .cfi_def_cfa_offset 16 
 .cfi_offset 6, -16 
 movq %rsp, %rbp 
 .cfi_def_cfa_register 6 
 movl $.LC0, %edi 
 movl $0, %eax 
 call printf 
 movl $0, %eax 
 popq %rbp 
 .cfi_def_cfa 7, 8 
 ret 
 .cfi_endproc 
 .LFE0: 
 .size main, .-main 
 .ident "GCC: (Ubuntu 5.4.0-6ubuntu1~16.04.4) 5.4.0 20160609" 
 .section .note.GNU-stack,"",@progbits 
 .file "printFile357.c" 
 .section .rodata 
 .align 8 
 .LC0: 
 .string "cavemwgyqhbhqxoyqjrnbgqqgmnhppxrruyetffkohtfhjgyuaovifprrdyjuxemudtokybyivgqhmpcoeaxlppdvopqotglwaahbegkaobjdsnrwnrkofvmmrotrfyrebdponndsrmalxnvpmvso\177" 
 .text 
 .globl main 
 .type main, @function 
 main: 
 .LFB0: 
 .cfi_startproc 
 pushq %rbp 
 .cfi_def_cfa_offset 16 
 .cfi_offset 6, -16 
 movq %rsp, %rbp 
 .cfi_def_cfa_register 6 
 movl $.LC0, %edi 
 movl $0, %eax 
 call printf 
 movl $0, %eax 
 popq %rbp 
 .cfi_def_cfa 7, 8 
 ret 
 .cfi_endproc 
 .LFE0: 
 .size main, .-main 
 .ident "GCC: (Ubuntu 5.4.0-6ubuntu1~16.04.4) 5.4.0 20160609" 
 .section .note.GNU-stack,"",@progbits 
 .file "printFile358.c" 
 .section .rodata 
 .align 8 
 .LC0: 
 .string "jncbfspybexbefdknpmeqvhjlaiatsgeiifodwpfboiivnsmdiqvgyprrdyjuxemudtokybyivgqhmpcoeaxlppdvopqotglwaahbegkaobjdsnrwnrkofvmmrotrfyrebdponndsrmalxnvpmvso\177" 
 .text 
 .globl main 
 .type main, @function 
 main: 
 .LFB0: 
 .cfi_startproc 
 pushq %rbp 
 .cfi_def_cfa_offset 16 
 .cfi_offset 6, -16 
 movq %rsp, %rbp 
 .cfi_def_cfa_register 6 
 movl $.LC0, %edi 
 movl $0, %eax 
 call printf 
 movl $0, %eax 
 popq %rbp 
 .cfi_def_cfa 7, 8 
 ret 
 .cfi_endproc 
 .LFE0: 
 .size main, .-main 
 .ident "GCC: (Ubuntu 5.4.0-6ubuntu1~16.04.4) 5.4.0 20160609" 
 .section .note.GNU-stack,"",@progbits 
 .file "printFile359.c" 
 .section .rodata 
 .align 8 
 .LC0: 
 .string "sbpuuibbtlgiqgaxjohrnuncbvswctfwuursgutagdkajkxscfnrdbtgyoddjibgguymqvoyyyyklxdnfshkvbqusubcfeklymapiorjpqtcqyrwuajqdbmvxpaftltsxtdponndsrmalxnvpmvso\177" 
 .text 
 .globl main 
 .type main, @function 
 main: 
 .LFB0: 
 .cfi_startproc 
 pushq %rbp 
 .cfi_def_cfa_offset 16 
 .cfi_offset 6, -16 
 movq %rsp, %rbp 
 .cfi_def_cfa_register 6 
 movl $.LC0, %edi 
 movl $0, %eax 
 call printf 
 movl $0, %eax 
 popq %rbp 
 .cfi_def_cfa 7, 8 
 ret 
 .cfi_endproc 
 .LFE0: 
 .size main, .-main 
 .ident "GCC: (Ubuntu 5.4.0-6ubuntu1~16.04.4) 5.4.0 20160609" 
 .section .note.GNU-stack,"",@progbits 
 .file "printFile360.c" 
 .section .rodata 
 .align 8 
 .LC0: 
 .string "ildtbtpdnqviqgaxjohrnuncbvswctfwuursgutagdkajkxscfnrdbtgyoddjibgguymqvoyyyyklxdnfshkvbqusubcfeklymapiorjpqtcqyrwuajqdbmvxpaftltsxtdponndsrmalxnvpmvso\177" 
 .text 
 .globl main 
 .type main, @function 
 main: 
 .LFB0: 
 .cfi_startproc 
 pushq %rbp 
 .cfi_def_cfa_offset 16 
 .cfi_offset 6, -16 
 movq %rsp, %rbp 
 .cfi_def_cfa_register 6 
 movl $.LC0, %edi 
 movl $0, %eax 
 call printf 
 movl $0, %eax 
 popq %rbp 
 .cfi_def_cfa 7, 8 
 ret 
 .cfi_endproc 
 .LFE0: 
 .size main, .-main 
 .ident "GCC: (Ubuntu 5.4.0-6ubuntu1~16.04.4) 5.4.0 20160609" 
 .section .note.GNU-stack,"",@progbits 
 .file "printFile361.c" 
 .section .rodata 
 .align 8 
 .LC0: 
 .string "lxvdbwrxuhxdblwvlqhtckpghfjuwhhifdlhbdhxkhbntxkfrrcvfrcmxohuvqdetrlwuuxicbxvcictderixwwvlgqjwwnsobslvqvyruwtfbpkhisgfrcsxvcwusqltjwqcvrdsrmalxnvpmvso\177" 
 .text 
 .globl main 
 .type main, @function 
 main: 
 .LFB0: 
 .cfi_startproc 
 pushq %rbp 
 .cfi_def_cfa_offset 16 
 .cfi_offset 6, -16 
 movq %rsp, %rbp 
 .cfi_def_cfa_register 6 
 movl $.LC0, %edi 
 movl $0, %eax 
 call printf 
 movl $0, %eax 
 popq %rbp 
 .cfi_def_cfa 7, 8 
 ret 
 .cfi_endproc 
 .LFE0: 
 .size main, .-main 
 .ident "GCC: (Ubuntu 5.4.0-6ubuntu1~16.04.4) 5.4.0 20160609" 
 .section .note.GNU-stack,"",@progbits 
 .file "printFile362.c" 
 .section .rodata 
 .align 8 
 .LC0: 
 .string "sqqxsgjcqeixwnqwlvugonriwqbbmuufmnghurjnvsmuifutbrarftdekefxcadoqjvndfbaapwkvteylgtqawuldalfdonsobslvqvyruwtfbpkhisgfrcsxvcwusqltjwqcvrdsrmalxnvpmvso\177" 
 .text 
 .globl main 
 .type main, @function 
 main: 
 .LFB0: 
 .cfi_startproc 
 pushq %rbp 
 .cfi_def_cfa_offset 16 
 .cfi_offset 6, -16 
 movq %rsp, %rbp 
 .cfi_def_cfa_register 6 
 movl $.LC0, %edi 
 movl $0, %eax 
 call printf 
 movl $0, %eax 
 popq %rbp 
 .cfi_def_cfa 7, 8 
 ret 
 .cfi_endproc 
 .LFE0: 
 .size main, .-main 
 .ident "GCC: (Ubuntu 5.4.0-6ubuntu1~16.04.4) 5.4.0 20160609" 
 .section .note.GNU-stack,"",@progbits 
 .file "printFile363.c" 
 .section .rodata 
 .align 8 
 .LC0: 
 .string "tbrjeakgcdgnbatcmdvgonriwqbbmuufmnghurjnvsmuifutbrarftdekefxcadoqjvndfbaapwkvteylgtqawuldalfdonsobslvqvyruwtfbpkhisgfrcsxvcwusqltjwqcvrdsrmalxnvpmvso\177" 
 .text 
 .globl main 
 .type main, @function 
 main: 
 .LFB0: 
 .cfi_startproc 
 pushq %rbp 
 .cfi_def_cfa_offset 16 
 .cfi_offset 6, -16 
 movq %rsp, %rbp 
 .cfi_def_cfa_register 6 
 movl $.LC0, %edi 
 movl $0, %eax 
 call printf 
 movl $0, %eax 
 popq %rbp 
 .cfi_def_cfa 7, 8 
 ret 
 .cfi_endproc 
 .LFE0: 
 .size main, .-main 
 .ident "GCC: (Ubuntu 5.4.0-6ubuntu1~16.04.4) 5.4.0 20160609" 
 .section .note.GNU-stack,"",@progbits 
 .file "printFile364.c" 
 .section .rodata 
 .align 8 
 .LC0: 
 .string "fubqydcegtbcwuldwymacspdulfjoepuyqnatshdoihnfvqdwffyauevilfxpuurnirkdyprjyfpuyureasfwydflkfdgcuvlniqoxlyxuwtfbpkhisgfrcsxvcwusqltjwqcvrdsrmalxnvpmvso\177" 
 .text 
 .globl main 
 .type main, @function 
 main: 
 .LFB0: 
 .cfi_startproc 
 pushq %rbp 
 .cfi_def_cfa_offset 16 
 .cfi_offset 6, -16 
 movq %rsp, %rbp 
 .cfi_def_cfa_register 6 
 movl $.LC0, %edi 
 movl $0, %eax 
 call printf 
 movl $0, %eax 
 popq %rbp 
 .cfi_def_cfa 7, 8 
 ret 
 .cfi_endproc 
 .LFE0: 
 .size main, .-main 
 .ident "GCC: (Ubuntu 5.4.0-6ubuntu1~16.04.4) 5.4.0 20160609" 
 .section .note.GNU-stack,"",@progbits 
 .file "printFile365.c" 
 .section .rodata 
 .align 8 
 .LC0: 
 .string "qurlnynigmijtvtayccubpkjjyiuxinodgcshrcneihnfvqdwffyauevilfxpuurnirkdyprjyfpuyureasfwydflkfdgcuvlniqoxlyxuwtfbpkhisgfrcsxvcwusqltjwqcvrdsrmalxnvpmvso\177" 
 .text 
 .globl main 
 .type main, @function 
 main: 
 .LFB0: 
 .cfi_startproc 
 pushq %rbp 
 .cfi_def_cfa_offset 16 
 .cfi_offset 6, -16 
 movq %rsp, %rbp 
 .cfi_def_cfa_register 6 
 movl $.LC0, %edi 
 movl $0, %eax 
 call printf 
 movl $0, %eax 
 popq %rbp 
 .cfi_def_cfa 7, 8 
 ret 
 .cfi_endproc 
 .LFE0: 
 .size main, .-main 
 .ident "GCC: (Ubuntu 5.4.0-6ubuntu1~16.04.4) 5.4.0 20160609" 
 .section .note.GNU-stack,"",@progbits 
 .file "printFile366.c" 
 .section .rodata 
 .align 8 
 .LC0: 
 .string "wbisdhxheyxoijoseobrghakahdeujqtkbpnjnvpovfwfvsjmvbsdeegljkhsedefstqiphwnowsmpcyngsrmyxflkfdgcuvlniqoxlyxuwtfbpkhisgfrcsxvcwusqltjwqcvrdsrmalxnvpmvso\177" 
 .text 
 .globl main 
 .type main, @function 
 main: 
 .LFB0: 
 .cfi_startproc 
 pushq %rbp 
 .cfi_def_cfa_offset 16 
 .cfi_offset 6, -16 
 movq %rsp, %rbp 
 .cfi_def_cfa_register 6 
 movl $.LC0, %edi 
 movl $0, %eax 
 call printf 
 movl $0, %eax 
 popq %rbp 
 .cfi_def_cfa 7, 8 
 ret 
 .cfi_endproc 
 .LFE0: 
 .size main, .-main 
 .ident "GCC: (Ubuntu 5.4.0-6ubuntu1~16.04.4) 5.4.0 20160609" 
 .section .note.GNU-stack,"",@progbits 
 .file "printFile367.c" 
 .section .rodata 
 .align 8 
 .LC0: 
 .string "ikhdqljwgeppvymkpjdcbicpquhdvhdgtljlytkfacuvciitmvbsdeegljkhsedefstqiphwnowsmpcyngsrmyxflkfdgcuvlniqoxlyxuwtfbpkhisgfrcsxvcwusqltjwqcvrdsrmalxnvpmvso\177" 
 .text 
 .globl main 
 .type main, @function 
 main: 
 .LFB0: 
 .cfi_startproc 
 pushq %rbp 
 .cfi_def_cfa_offset 16 
 .cfi_offset 6, -16 
 movq %rsp, %rbp 
 .cfi_def_cfa_register 6 
 movl $.LC0, %edi 
 movl $0, %eax 
 call printf 
 movl $0, %eax 
 popq %rbp 
 .cfi_def_cfa 7, 8 
 ret 
 .cfi_endproc 
 .LFE0: 
 .size main, .-main 
 .ident "GCC: (Ubuntu 5.4.0-6ubuntu1~16.04.4) 5.4.0 20160609" 
 .section .note.GNU-stack,"",@progbits 
 .file "printFile368.c" 
 .section .rodata 
 .align 8 
 .LC0: 
 .string "owvyylrvuureaaxljjkfvsfynedxowsdtocuctsyqmdrmbfwnsellkkbqpafnujjlnhnkambnrucsbbivgujshkjxmqnhcwssgidhwewocykfbubjpkcawnsxvcwusqltjwqcvrdsrmalxnvpmvso\177" 
 .text 
 .globl main 
 .type main, @function 
 main: 
 .LFB0: 
 .cfi_startproc 
 pushq %rbp 
 .cfi_def_cfa_offset 16 
 .cfi_offset 6, -16 
 movq %rsp, %rbp 
 .cfi_def_cfa_register 6 
 movl $.LC0, %edi 
 movl $0, %eax 
 call printf 
 movl $0, %eax 
 popq %rbp 
 .cfi_def_cfa 7, 8 
 ret 
 .cfi_endproc 
 .LFE0: 
 .size main, .-main 
 .ident "GCC: (Ubuntu 5.4.0-6ubuntu1~16.04.4) 5.4.0 20160609" 
 .section .note.GNU-stack,"",@progbits 
 .file "printFile369.c" 
 .section .rodata 
 .align 8 
 .LC0: 
 .string "kglrjknerxhbvnampywucsvnkipkifksmxmxjccdblgwyglphjkkejaqtqecxowmpkmbmoepakocsbramcmqnnhignmedkrswetlvacxmqafrtfeyswmihwouksawmuttofrqjpfbskuoscnnbbvo\177" 
 .text 
 .globl main 
 .type main, @function 
 main: 
 .LFB0: 
 .cfi_startproc 
 pushq %rbp 
 .cfi_def_cfa_offset 16 
 .cfi_offset 6, -16 
 movq %rsp, %rbp 
 .cfi_def_cfa_register 6 
 movl $.LC0, %edi 
 movl $0, %eax 
 call printf 
 movl $0, %eax 
 popq %rbp 
 .cfi_def_cfa 7, 8 
 ret 
 .cfi_endproc 
 .LFE0: 
 .size main, .-main 
 .ident "GCC: (Ubuntu 5.4.0-6ubuntu1~16.04.4) 5.4.0 20160609" 
 .section .note.GNU-stack,"",@progbits 
 .file "printFile370.c" 
 .section .rodata 
 .align 8 
 .LC0: 
 .string "akgkfgjscdmslemuvrxqdvgxavnbwjmxvskbbutdaiyloljndhgifoiflvjkfvkdqxfrsbxumwhbksqpaxyqnnhignmedkrswetlvacxmqafrtfeyswmihwouksawmuttofrqjpfbskuoscnnbbvo\177" 
 .text 
 .globl main 
 .type main, @function 
 main: 
 .LFB0: 
 .cfi_startproc 
 pushq %rbp 
 .cfi_def_cfa_offset 16 
 .cfi_offset 6, -16 
 movq %rsp, %rbp 
 .cfi_def_cfa_register 6 
 movl $.LC0, %edi 
 movl $0, %eax 
 call printf 
 movl $0, %eax 
 popq %rbp 
 .cfi_def_cfa 7, 8 
 ret 
 .cfi_endproc 
 .LFE0: 
 .size main, .-main 
 .ident "GCC: (Ubuntu 5.4.0-6ubuntu1~16.04.4) 5.4.0 20160609" 
 .section .note.GNU-stack,"",@progbits 
 .file "printFile371.c" 
 .section .rodata 
 .align 8 
 .LC0: 
 .string "ojnagwnnuxrlvwgqaeombvolohdqhcbworyuqmimncalbgfcktonrfbinfbujdrxurslgeavgbkihpkujbidhklupmpyrkxmesbmwbjgctqmrtfeyswmihwouksawmuttofrqjpfbskuoscnnbbvo\177" 
 .text 
 .globl main 
 .type main, @function 
 main: 
 .LFB0: 
 .cfi_startproc 
 pushq %rbp 
 .cfi_def_cfa_offset 16 
 .cfi_offset 6, -16 
 movq %rsp, %rbp 
 .cfi_def_cfa_register 6 
 movl $.LC0, %edi 
 movl $0, %eax 
 call printf 
 movl $0, %eax 
 popq %rbp 
 .cfi_def_cfa 7, 8 
 ret 
 .cfi_endproc 
 .LFE0: 
 .size main, .-main 
 .ident "GCC: (Ubuntu 5.4.0-6ubuntu1~16.04.4) 5.4.0 20160609" 
 .section .note.GNU-stack,"",@progbits 
 .file "printFile372.c" 
 .section .rodata 
 .align 8 
 .LC0: 
 .string "dhuepalcliraytslthpmicmknuohlbsokpudpjfdraestwgnevcpboaojqwuurlfijiasqemqiimhoanlcdotfddwcbruoyfxkfsblittqgdfitsmwjgfnmcpnvmewrdhaxklgpfbskuoscnnbbvo\177" 
 .text 
 .globl main 
 .type main, @function 
 main: 
 .LFB0: 
 .cfi_startproc 
 pushq %rbp 
 .cfi_def_cfa_offset 16 
 .cfi_offset 6, -16 
 movq %rsp, %rbp 
 .cfi_def_cfa_register 6 
 movl $.LC0, %edi 
 movl $0, %eax 
 call printf 
 movl $0, %eax 
 popq %rbp 
 .cfi_def_cfa 7, 8 
 ret 
 .cfi_endproc 
 .LFE0: 
 .size main, .-main 
 .ident "GCC: (Ubuntu 5.4.0-6ubuntu1~16.04.4) 5.4.0 20160609" 
 .section .note.GNU-stack,"",@progbits 
 .file "printFile373.c" 
 .section .rodata 
 .align 8 
 .LC0: 
 .string "iyolhwfakfkskaforukfajwfrydelmlokpudpjfdraestwgnevcpboaojqwuurlfijiasqemqiimhoanlcdotfddwcbruoyfxkfsblittqgdfitsmwjgfnmcpnvmewrdhaxklgpfbskuoscnnbbvo\177" 
 .text 
 .globl main 
 .type main, @function 
 main: 
 .LFB0: 
 .cfi_startproc 
 pushq %rbp 
 .cfi_def_cfa_offset 16 
 .cfi_offset 6, -16 
 movq %rsp, %rbp 
 .cfi_def_cfa_register 6 
 movl $.LC0, %edi 
 movl $0, %eax 
 call printf 
 movl $0, %eax 
 popq %rbp 
 .cfi_def_cfa 7, 8 
 ret 
 .cfi_endproc 
 .LFE0: 
 .size main, .-main 
 .ident "GCC: (Ubuntu 5.4.0-6ubuntu1~16.04.4) 5.4.0 20160609" 
 .section .note.GNU-stack,"",@progbits 
 .file "printFile374.c" 
 .section .rodata 
 .align 8 
 .LC0: 
 .string "lahsanvmuihfinvakihkrhrlgxqrkelxgtrgjpugxdlisjkdrsqjaivgiobssotyknivdfcdinnbyxhqqxbsiycrndmitgyfxkfsblittqgdfitsmwjgfnmcpnvmewrdhaxklgpfbskuoscnnbbvo\177" 
 .text 
 .globl main 
 .type main, @function 
 main: 
 .LFB0: 
 .cfi_startproc 
 pushq %rbp 
 .cfi_def_cfa_offset 16 
 .cfi_offset 6, -16 
 movq %rsp, %rbp 
 .cfi_def_cfa_register 6 
 movl $.LC0, %edi 
 movl $0, %eax 
 call printf 
 movl $0, %eax 
 popq %rbp 
 .cfi_def_cfa 7, 8 
 ret 
 .cfi_endproc 
 .LFE0: 
 .size main, .-main 
 .ident "GCC: (Ubuntu 5.4.0-6ubuntu1~16.04.4) 5.4.0 20160609" 
 .section .note.GNU-stack,"",@progbits 
 .file "printFile375.c" 
 .section .rodata 
 .align 8 
 .LC0: 
 .string "fttbyaecitpmtqtkjrndcohtemjmgpylmsrgjpugxdlisjkdrsqjaivgiobssotyknivdfcdinnbyxhqqxbsiycrndmitgyfxkfsblittqgdfitsmwjgfnmcpnvmewrdhaxklgpfbskuoscnnbbvo\177" 
 .text 
 .globl main 
 .type main, @function 
 main: 
 .LFB0: 
 .cfi_startproc 
 pushq %rbp 
 .cfi_def_cfa_offset 16 
 .cfi_offset 6, -16 
 movq %rsp, %rbp 
 .cfi_def_cfa_register 6 
 movl $.LC0, %edi 
 movl $0, %eax 
 call printf 
 movl $0, %eax 
 popq %rbp 
 .cfi_def_cfa 7, 8 
 ret 
 .cfi_endproc 
 .LFE0: 
 .size main, .-main 
 .ident "GCC: (Ubuntu 5.4.0-6ubuntu1~16.04.4) 5.4.0 20160609" 
 .section .note.GNU-stack,"",@progbits 
 .file "printFile376.c" 
 .section .rodata 
 .align 8 
 .LC0: 
 .string "nsvsepiqlbkylemqgeadimmvseuhspyhluapkkiyxdlisjkdrsqjaivgiobssotyknivdfcdinnbyxhqqxbsiycrndmitgyfxkfsblittqgdfitsmwjgfnmcpnvmewrdhaxklgpfbskuoscnnbbvo\177" 
 .text 
 .globl main 
 .type main, @function 
 main: 
 .LFB0: 
 .cfi_startproc 
 pushq %rbp 
 .cfi_def_cfa_offset 16 
 .cfi_offset 6, -16 
 movq %rsp, %rbp 
 .cfi_def_cfa_register 6 
 movl $.LC0, %edi 
 movl $0, %eax 
 call printf 
 movl $0, %eax 
 popq %rbp 
 .cfi_def_cfa 7, 8 
 ret 
 .cfi_endproc 
 .LFE0: 
 .size main, .-main 
 .ident "GCC: (Ubuntu 5.4.0-6ubuntu1~16.04.4) 5.4.0 20160609" 
 .section .note.GNU-stack,"",@progbits 
 .file "printFile377.c" 
 .section .rodata 
 .align 8 
 .LC0: 
 .string "sxaymsfqskafwvaesjwkievdenqpvpeonepayvrritygrykkljwtotauhqkgiquxwnavltntnmafomrawpvnlxiuovbymywkmagxtwrilupajicgabvnyfiqbkppjpaxrjvlgpvrmskuoscnnbbvo\177" 
 .text 
 .globl main 
 .type main, @function 
 main: 
 .LFB0: 
 .cfi_startproc 
 pushq %rbp 
 .cfi_def_cfa_offset 16 
 .cfi_offset 6, -16 
 movq %rsp, %rbp 
 .cfi_def_cfa_register 6 
 movl $.LC0, %edi 
 movl $0, %eax 
 call printf 
 movl $0, %eax 
 popq %rbp 
 .cfi_def_cfa 7, 8 
 ret 
 .cfi_endproc 
 .LFE0: 
 .size main, .-main 
 .ident "GCC: (Ubuntu 5.4.0-6ubuntu1~16.04.4) 5.4.0 20160609" 
 .section .note.GNU-stack,"",@progbits 
 .file "printFile378.c" 
 .section .rodata 
 .align 8 
 .LC0: 
 .string "uwwyfyacmahuwvaesjwkievdenqpvpeonepayvrritygrykkljwtotauhqkgiquxwnavltntnmafomrawpvnlxiuovbymywkmagxtwrilupajicgabvnyfiqbkppjpaxrjvlgpvrmskuoscnnbbvo\177" 
 .text 
 .globl main 
 .type main, @function 
 main: 
 .LFB0: 
 .cfi_startproc 
 pushq %rbp 
 .cfi_def_cfa_offset 16 
 .cfi_offset 6, -16 
 movq %rsp, %rbp 
 .cfi_def_cfa_register 6 
 movl $.LC0, %edi 
 movl $0, %eax 
 call printf 
 movl $0, %eax 
 popq %rbp 
 .cfi_def_cfa 7, 8 
 ret 
 .cfi_endproc 
 .LFE0: 
 .size main, .-main 
 .ident "GCC: (Ubuntu 5.4.0-6ubuntu1~16.04.4) 5.4.0 20160609" 
 .section .note.GNU-stack,"",@progbits 
 .file "printFile379.c" 
 .section .rodata 
 .align 8 
 .LC0: 
 .string "khkasadqrmoguhcmtqwkievdenqpvpeonepayvrritygrykkljwtotauhqkgiquxwnavltntnmafomrawpvnlxiuovbymywkmagxtwrilupajicgabvnyfiqbkppjpaxrjvlgpvrmskuoscnnbbvo\177" 
 .text 
 .globl main 
 .type main, @function 
 main: 
 .LFB0: 
 .cfi_startproc 
 pushq %rbp 
 .cfi_def_cfa_offset 16 
 .cfi_offset 6, -16 
 movq %rsp, %rbp 
 .cfi_def_cfa_register 6 
 movl $.LC0, %edi 
 movl $0, %eax 
 call printf 
 movl $0, %eax 
