.file "aritmeticFile0.c" 
 .section .rodata 
 .LC0: 
 .string " a = %d" 
 .text 
 .globl main 
 .type main, @function 
 main: 
 .LFB0: 
 .cfi_startproc 
 pushq %rbp 
 .cfi_def_cfa_offset 16 
 .cfi_offset 6, -16 
 movq %rsp, %rbp 
 .cfi_def_cfa_register 6 
 subq $16, %rsp 
 movl $0, -4(%rbp) 
 movl $-166014, -4(%rbp) 
 movl -4(%rbp), %eax 
 movl %eax, %esi 
 movl $.LC0, %edi 
 movl $0, %eax 
 call printf 
 movl $0, %eax 
 leave 
 .cfi_def_cfa 7, 8 
 ret 
 .cfi_endproc 
 .LFE0: 
 .size main, .-main 
 .ident "GCC: (Ubuntu 5.4.0-6ubuntu1~16.04.4) 5.4.0 20160609" 
 .section .note.GNU-stack,"",@progbits 
 .file "aritmeticFile1.c" 
 .section .rodata 
 .LC0: 
 .string " a = %d" 
 .text 
 .globl main 
 .type main, @function 
 main: 
 .LFB0: 
 .cfi_startproc 
 pushq %rbp 
 .cfi_def_cfa_offset 16 
 .cfi_offset 6, -16 
 movq %rsp, %rbp 
 .cfi_def_cfa_register 6 
 subq $16, %rsp 
 movl $0, -4(%rbp) 
 movl $11185129, -4(%rbp) 
 movl -4(%rbp), %eax 
 movl %eax, %esi 
 movl $.LC0, %edi 
 movl $0, %eax 
 call printf 
 movl $0, %eax 
 leave 
 .cfi_def_cfa 7, 8 
 ret 
 .cfi_endproc 
 .LFE0: 
 .size main, .-main 
 .ident "GCC: (Ubuntu 5.4.0-6ubuntu1~16.04.4) 5.4.0 20160609" 
 .section .note.GNU-stack,"",@progbits 
 .file "aritmeticFile2.c" 
 .section .rodata 
 .LC0: 
 .string " a = %d" 
 .text 
 .globl main 
 .type main, @function 
 main: 
 .LFB0: 
 .cfi_startproc 
 pushq %rbp 
 .cfi_def_cfa_offset 16 
 .cfi_offset 6, -16 
 movq %rsp, %rbp 
 .cfi_def_cfa_register 6 
 subq $16, %rsp 
 movl $0, -4(%rbp) 
 movl $520, -4(%rbp) 
 movl -4(%rbp), %eax 
 movl %eax, %esi 
 movl $.LC0, %edi 
 movl $0, %eax 
 call printf 
 movl $0, %eax 
 leave 
 .cfi_def_cfa 7, 8 
 ret 
 .cfi_endproc 
 .LFE0: 
 .size main, .-main 
 .ident "GCC: (Ubuntu 5.4.0-6ubuntu1~16.04.4) 5.4.0 20160609" 
 .section .note.GNU-stack,"",@progbits 
 .file "aritmeticFile3.c" 
 .section .rodata 
 .LC0: 
 .string " a = %d" 
 .text 
 .globl main 
 .type main, @function 
 main: 
 .LFB0: 
 .cfi_startproc 
 pushq %rbp 
 .cfi_def_cfa_offset 16 
 .cfi_offset 6, -16 
 movq %rsp, %rbp 
 .cfi_def_cfa_register 6 
 subq $16, %rsp 
 movl $0, -4(%rbp) 
 movl $-30501, -4(%rbp) 
 movl -4(%rbp), %eax 
 movl %eax, %esi 
 movl $.LC0, %edi 
 movl $0, %eax 
 call printf 
 movl $0, %eax 
 leave 
 .cfi_def_cfa 7, 8 
 ret 
 .cfi_endproc 
 .LFE0: 
 .size main, .-main 
 .ident "GCC: (Ubuntu 5.4.0-6ubuntu1~16.04.4) 5.4.0 20160609" 
 .section .note.GNU-stack,"",@progbits 
 .file "aritmeticFile4.c" 
 .section .rodata 
 .LC0: 
 .string " a = %d" 
 .text 
 .globl main 
 .type main, @function 
 main: 
 .LFB0: 
 .cfi_startproc 
 pushq %rbp 
 .cfi_def_cfa_offset 16 
 .cfi_offset 6, -16 
 movq %rsp, %rbp 
 .cfi_def_cfa_register 6 
 subq $16, %rsp 
 movl $0, -4(%rbp) 
 movl $124192, -4(%rbp) 
 movl -4(%rbp), %eax 
 movl %eax, %esi 
 movl $.LC0, %edi 
 movl $0, %eax 
 call printf 
 movl $0, %eax 
 leave 
 .cfi_def_cfa 7, 8 
 ret 
 .cfi_endproc 
 .LFE0: 
 .size main, .-main 
 .ident "GCC: (Ubuntu 5.4.0-6ubuntu1~16.04.4) 5.4.0 20160609" 
 .section .note.GNU-stack,"",@progbits 
 .file "aritmeticFile5.c" 
 .section .rodata 
 .LC0: 
 .string " a = %d" 
 .text 
 .globl main 
 .type main, @function 
 main: 
 .LFB0: 
 .cfi_startproc 
 pushq %rbp 
 .cfi_def_cfa_offset 16 
 .cfi_offset 6, -16 
 movq %rsp, %rbp 
 .cfi_def_cfa_register 6 
 subq $16, %rsp 
 movl $0, -4(%rbp) 
 movl $287520, -4(%rbp) 
 movl -4(%rbp), %eax 
 movl %eax, %esi 
 movl $.LC0, %edi 
 movl $0, %eax 
 call printf 
 movl $0, %eax 
 leave 
 .cfi_def_cfa 7, 8 
 ret 
 .cfi_endproc 
 .LFE0: 
 .size main, .-main 
 .ident "GCC: (Ubuntu 5.4.0-6ubuntu1~16.04.4) 5.4.0 20160609" 
 .section .note.GNU-stack,"",@progbits 
 .file "aritmeticFile6.c" 
 .section .rodata 
 .LC0: 
 .string " a = %d" 
 .text 
 .globl main 
 .type main, @function 
 main: 
 .LFB0: 
 .cfi_startproc 
 pushq %rbp 
 .cfi_def_cfa_offset 16 
 .cfi_offset 6, -16 
 movq %rsp, %rbp 
 .cfi_def_cfa_register 6 
 subq $16, %rsp 
 movl $0, -4(%rbp) 
 movl $1499, -4(%rbp) 
 movl -4(%rbp), %eax 
 movl %eax, %esi 
 movl $.LC0, %edi 
 movl $0, %eax 
 call printf 
 movl $0, %eax 
 leave 
 .cfi_def_cfa 7, 8 
 ret 
 .cfi_endproc 
 .LFE0: 
 .size main, .-main 
 .ident "GCC: (Ubuntu 5.4.0-6ubuntu1~16.04.4) 5.4.0 20160609" 
 .section .note.GNU-stack,"",@progbits 
 .file "aritmeticFile7.c" 
 .section .rodata 
 .LC0: 
 .string " a = %d" 
 .text 
 .globl main 
 .type main, @function 
 main: 
 .LFB0: 
 .cfi_startproc 
 pushq %rbp 
 .cfi_def_cfa_offset 16 
 .cfi_offset 6, -16 
 movq %rsp, %rbp 
 .cfi_def_cfa_register 6 
 subq $16, %rsp 
 movl $0, -4(%rbp) 
 movl $116974, -4(%rbp) 
 movl -4(%rbp), %eax 
 movl %eax, %esi 
 movl $.LC0, %edi 
 movl $0, %eax 
 call printf 
 movl $0, %eax 
 leave 
 .cfi_def_cfa 7, 8 
 ret 
 .cfi_endproc 
 .LFE0: 
 .size main, .-main 
 .ident "GCC: (Ubuntu 5.4.0-6ubuntu1~16.04.4) 5.4.0 20160609" 
 .section .note.GNU-stack,"",@progbits 
 .file "aritmeticFile8.c" 
 .section .rodata 
 .LC0: 
 .string " a = %d" 
 .text 
 .globl main 
 .type main, @function 
 main: 
 .LFB0: 
 .cfi_startproc 
 pushq %rbp 
 .cfi_def_cfa_offset 16 
 .cfi_offset 6, -16 
 movq %rsp, %rbp 
 .cfi_def_cfa_register 6 
 subq $16, %rsp 
 movl $0, -4(%rbp) 
 movl $760189, -4(%rbp) 
 movl -4(%rbp), %eax 
 movl %eax, %esi 
 movl $.LC0, %edi 
 movl $0, %eax 
 call printf 
 movl $0, %eax 
 leave 
 .cfi_def_cfa 7, 8 
 ret 
 .cfi_endproc 
 .LFE0: 
 .size main, .-main 
 .ident "GCC: (Ubuntu 5.4.0-6ubuntu1~16.04.4) 5.4.0 20160609" 
 .section .note.GNU-stack,"",@progbits 
 .file "aritmeticFile9.c" 
 .section .rodata 
 .LC0: 
 .string " a = %d" 
 .text 
 .globl main 
 .type main, @function 
 main: 
 .LFB0: 
 .cfi_startproc 
 pushq %rbp 
 .cfi_def_cfa_offset 16 
 .cfi_offset 6, -16 
 movq %rsp, %rbp 
 .cfi_def_cfa_register 6 
 subq $16, %rsp 
 movl $0, -4(%rbp) 
 movl $261559, -4(%rbp) 
 movl -4(%rbp), %eax 
 movl %eax, %esi 
 movl $.LC0, %edi 
 movl $0, %eax 
 call printf 
 movl $0, %eax 
 leave 
 .cfi_def_cfa 7, 8 
 ret 
 .cfi_endproc 
 .LFE0: 
 .size main, .-main 
 .ident "GCC: (Ubuntu 5.4.0-6ubuntu1~16.04.4) 5.4.0 20160609" 
 .section .note.GNU-stack,"",@progbits 
 .file "aritmeticFile10.c" 
 .section .rodata 
 .LC0: 
 .string " a = %d" 
 .text 
 .globl main 
 .type main, @function 
 main: 
 .LFB0: 
 .cfi_startproc 
 pushq %rbp 
 .cfi_def_cfa_offset 16 
 .cfi_offset 6, -16 
 movq %rsp, %rbp 
 .cfi_def_cfa_register 6 
 subq $16, %rsp 
 movl $0, -4(%rbp) 
 movl $37702406, -4(%rbp) 
 movl -4(%rbp), %eax 
 movl %eax, %esi 
 movl $.LC0, %edi 
 movl $0, %eax 
 call printf 
 movl $0, %eax 
 leave 
 .cfi_def_cfa 7, 8 
 ret 
 .cfi_endproc 
 .LFE0: 
 .size main, .-main 
 .ident "GCC: (Ubuntu 5.4.0-6ubuntu1~16.04.4) 5.4.0 20160609" 
 .section .note.GNU-stack,"",@progbits 
 .file "aritmeticFile11.c" 
 .section .rodata 
 .LC0: 
 .string " a = %d" 
 .text 
 .globl main 
 .type main, @function 
 main: 
 .LFB0: 
 .cfi_startproc 
 pushq %rbp 
 .cfi_def_cfa_offset 16 
 .cfi_offset 6, -16 
 movq %rsp, %rbp 
 .cfi_def_cfa_register 6 
 subq $16, %rsp 
 movl $0, -4(%rbp) 
 movl $116540656, -4(%rbp) 
 movl -4(%rbp), %eax 
 movl %eax, %esi 
 movl $.LC0, %edi 
 movl $0, %eax 
 call printf 
 movl $0, %eax 
 leave 
 .cfi_def_cfa 7, 8 
 ret 
 .cfi_endproc 
 .LFE0: 
 .size main, .-main 
 .ident "GCC: (Ubuntu 5.4.0-6ubuntu1~16.04.4) 5.4.0 20160609" 
 .section .note.GNU-stack,"",@progbits 
 .file "aritmeticFile12.c" 
 .section .rodata 
 .LC0: 
 .string " a = %d" 
 .text 
 .globl main 
 .type main, @function 
 main: 
 .LFB0: 
 .cfi_startproc 
 pushq %rbp 
 .cfi_def_cfa_offset 16 
 .cfi_offset 6, -16 
 movq %rsp, %rbp 
 .cfi_def_cfa_register 6 
 subq $16, %rsp 
 movl $0, -4(%rbp) 
 movl $-198120, -4(%rbp) 
 movl -4(%rbp), %eax 
 movl %eax, %esi 
 movl $.LC0, %edi 
 movl $0, %eax 
 call printf 
 movl $0, %eax 
 leave 
 .cfi_def_cfa 7, 8 
 ret 
 .cfi_endproc 
 .LFE0: 
 .size main, .-main 
 .ident "GCC: (Ubuntu 5.4.0-6ubuntu1~16.04.4) 5.4.0 20160609" 
 .section .note.GNU-stack,"",@progbits 
 .file "aritmeticFile13.c" 
 .section .rodata 
 .LC0: 
 .string " a = %d" 
 .text 
 .globl main 
 .type main, @function 
 main: 
 .LFB0: 
 .cfi_startproc 
 pushq %rbp 
 .cfi_def_cfa_offset 16 
 .cfi_offset 6, -16 
 movq %rsp, %rbp 
 .cfi_def_cfa_register 6 
 subq $16, %rsp 
 movl $0, -4(%rbp) 
 movl $133479616, -4(%rbp) 
 movl -4(%rbp), %eax 
 movl %eax, %esi 
 movl $.LC0, %edi 
 movl $0, %eax 
 call printf 
 movl $0, %eax 
 leave 
 .cfi_def_cfa 7, 8 
 ret 
 .cfi_endproc 
 .LFE0: 
 .size main, .-main 
 .ident "GCC: (Ubuntu 5.4.0-6ubuntu1~16.04.4) 5.4.0 20160609" 
 .section .note.GNU-stack,"",@progbits 
 .file "aritmeticFile14.c" 
 .section .rodata 
 .LC0: 
 .string " a = %d" 
 .text 
 .globl main 
 .type main, @function 
 main: 
 .LFB0: 
 .cfi_startproc 
 pushq %rbp 
 .cfi_def_cfa_offset 16 
 .cfi_offset 6, -16 
 movq %rsp, %rbp 
 .cfi_def_cfa_register 6 
 subq $16, %rsp 
 movl $0, -4(%rbp) 
 movl $396105, -4(%rbp) 
 movl -4(%rbp), %eax 
 movl %eax, %esi 
 movl $.LC0, %edi 
 movl $0, %eax 
 call printf 
 movl $0, %eax 
 leave 
 .cfi_def_cfa 7, 8 
 ret 
 .cfi_endproc 
 .LFE0: 
 .size main, .-main 
 .ident "GCC: (Ubuntu 5.4.0-6ubuntu1~16.04.4) 5.4.0 20160609" 
 .section .note.GNU-stack,"",@progbits 
 .file "aritmeticFile15.c" 
 .section .rodata 
 .LC0: 
 .string " a = %d" 
 .text 
 .globl main 
 .type main, @function 
 main: 
 .LFB0: 
 .cfi_startproc 
 pushq %rbp 
 .cfi_def_cfa_offset 16 
 .cfi_offset 6, -16 
 movq %rsp, %rbp 
 .cfi_def_cfa_register 6 
 subq $16, %rsp 
 movl $0, -4(%rbp) 
 movl $-65328, -4(%rbp) 
 movl -4(%rbp), %eax 
 movl %eax, %esi 
 movl $.LC0, %edi 
 movl $0, %eax 
 call printf 
 movl $0, %eax 
 leave 
 .cfi_def_cfa 7, 8 
 ret 
 .cfi_endproc 
 .LFE0: 
 .size main, .-main 
 .ident "GCC: (Ubuntu 5.4.0-6ubuntu1~16.04.4) 5.4.0 20160609" 
 .section .note.GNU-stack,"",@progbits 
 .file "aritmeticFile16.c" 
 .section .rodata 
 .LC0: 
 .string " a = %d" 
 .text 
 .globl main 
 .type main, @function 
 main: 
 .LFB0: 
 .cfi_startproc 
 pushq %rbp 
 .cfi_def_cfa_offset 16 
 .cfi_offset 6, -16 
 movq %rsp, %rbp 
 .cfi_def_cfa_register 6 
 subq $16, %rsp 
 movl $0, -4(%rbp) 
 movl $-181878, -4(%rbp) 
 movl -4(%rbp), %eax 
 movl %eax, %esi 
 movl $.LC0, %edi 
 movl $0, %eax 
 call printf 
 movl $0, %eax 
 leave 
 .cfi_def_cfa 7, 8 
 ret 
 .cfi_endproc 
 .LFE0: 
 .size main, .-main 
 .ident "GCC: (Ubuntu 5.4.0-6ubuntu1~16.04.4) 5.4.0 20160609" 
 .section .note.GNU-stack,"",@progbits 
 .file "aritmeticFile17.c" 
 .section .rodata 
 .LC0: 
 .string " a = %d" 
 .text 
 .globl main 
 .type main, @function 
 main: 
 .LFB0: 
 .cfi_startproc 
 pushq %rbp 
 .cfi_def_cfa_offset 16 
 .cfi_offset 6, -16 
 movq %rsp, %rbp 
 .cfi_def_cfa_register 6 
 subq $16, %rsp 
 movl $0, -4(%rbp) 
 movl $193473, -4(%rbp) 
 movl -4(%rbp), %eax 
 movl %eax, %esi 
 movl $.LC0, %edi 
 movl $0, %eax 
 call printf 
 movl $0, %eax 
 leave 
 .cfi_def_cfa 7, 8 
 ret 
 .cfi_endproc 
 .LFE0: 
 .size main, .-main 
 .ident "GCC: (Ubuntu 5.4.0-6ubuntu1~16.04.4) 5.4.0 20160609" 
 .section .note.GNU-stack,"",@progbits 
 .file "aritmeticFile18.c" 
 .section .rodata 
 .LC0: 
 .string " a = %d" 
 .text 
 .globl main 
 .type main, @function 
 main: 
 .LFB0: 
 .cfi_startproc 
 pushq %rbp 
 .cfi_def_cfa_offset 16 
 .cfi_offset 6, -16 
 movq %rsp, %rbp 
 .cfi_def_cfa_register 6 
 subq $16, %rsp 
 movl $0, -4(%rbp) 
 movl $246820, -4(%rbp) 
 movl -4(%rbp), %eax 
 movl %eax, %esi 
 movl $.LC0, %edi 
 movl $0, %eax 
 call printf 
 movl $0, %eax 
 leave 
 .cfi_def_cfa 7, 8 
 ret 
 .cfi_endproc 
 .LFE0: 
 .size main, .-main 
 .ident "GCC: (Ubuntu 5.4.0-6ubuntu1~16.04.4) 5.4.0 20160609" 
 .section .note.GNU-stack,"",@progbits 
 .file "aritmeticFile19.c" 
 .section .rodata 
 .LC0: 
 .string " a = %d" 
 .text 
 .globl main 
 .type main, @function 
 main: 
 .LFB0: 
 .cfi_startproc 
 pushq %rbp 
 .cfi_def_cfa_offset 16 
 .cfi_offset 6, -16 
 movq %rsp, %rbp 
 .cfi_def_cfa_register 6 
 subq $16, %rsp 
 movl $0, -4(%rbp) 
 movl $0, -4(%rbp) 
 movl -4(%rbp), %eax 
 movl %eax, %esi 
 movl $.LC0, %edi 
 movl $0, %eax 
 call printf 
 movl $0, %eax 
 leave 
 .cfi_def_cfa 7, 8 
 ret 
 .cfi_endproc 
 .LFE0: 
 .size main, .-main 
 .ident "GCC: (Ubuntu 5.4.0-6ubuntu1~16.04.4) 5.4.0 20160609" 
 .section .note.GNU-stack,"",@progbits 
 .file "aritmeticFile20.c" 
 .section .rodata 
 .LC0: 
 .string " a = %d" 
 .text 
 .globl main 
 .type main, @function 
 main: 
 .LFB0: 
 .cfi_startproc 
 pushq %rbp 
 .cfi_def_cfa_offset 16 
 .cfi_offset 6, -16 
 movq %rsp, %rbp 
 .cfi_def_cfa_register 6 
 subq $16, %rsp 
 movl $0, -4(%rbp) 
 movl $-5136010, -4(%rbp) 
 movl -4(%rbp), %eax 
 movl %eax, %esi 
 movl $.LC0, %edi 
 movl $0, %eax 
 call printf 
 movl $0, %eax 
 leave 
 .cfi_def_cfa 7, 8 
 ret 
 .cfi_endproc 
 .LFE0: 
 .size main, .-main 
 .ident "GCC: (Ubuntu 5.4.0-6ubuntu1~16.04.4) 5.4.0 20160609" 
 .section .note.GNU-stack,"",@progbits 
 .file "aritmeticFile21.c" 
 .section .rodata 
 .LC0: 
 .string " a = %d" 
 .text 
 .globl main 
 .type main, @function 
 main: 
 .LFB0: 
 .cfi_startproc 
 pushq %rbp 
 .cfi_def_cfa_offset 16 
 .cfi_offset 6, -16 
 movq %rsp, %rbp 
 .cfi_def_cfa_register 6 
 subq $16, %rsp 
 movl $0, -4(%rbp) 
 movl $-563976972, -4(%rbp) 
 movl -4(%rbp), %eax 
 movl %eax, %esi 
 movl $.LC0, %edi 
 movl $0, %eax 
 call printf 
 movl $0, %eax 
 leave 
 .cfi_def_cfa 7, 8 
 ret 
 .cfi_endproc 
 .LFE0: 
 .size main, .-main 
 .ident "GCC: (Ubuntu 5.4.0-6ubuntu1~16.04.4) 5.4.0 20160609" 
 .section .note.GNU-stack,"",@progbits 
 .file "aritmeticFile22.c" 
 .section .rodata 
 .LC0: 
 .string " a = %d" 
 .text 
 .globl main 
 .type main, @function 
 main: 
 .LFB0: 
 .cfi_startproc 
 pushq %rbp 
 .cfi_def_cfa_offset 16 
 .cfi_offset 6, -16 
 movq %rsp, %rbp 
 .cfi_def_cfa_register 6 
 subq $16, %rsp 
 movl $0, -4(%rbp) 
 movl $-1427346421, -4(%rbp) 
 movl -4(%rbp), %eax 
 movl %eax, %esi 
 movl $.LC0, %edi 
 movl $0, %eax 
 call printf 
 movl $0, %eax 
 leave 
 .cfi_def_cfa 7, 8 
 ret 
 .cfi_endproc 
 .LFE0: 
 .size main, .-main 
 .ident "GCC: (Ubuntu 5.4.0-6ubuntu1~16.04.4) 5.4.0 20160609" 
 .section .note.GNU-stack,"",@progbits 
 .file "aritmeticFile23.c" 
 .section .rodata 
 .LC0: 
 .string " a = %d" 
 .text 
 .globl main 
 .type main, @function 
 main: 
 .LFB0: 
 .cfi_startproc 
 pushq %rbp 
 .cfi_def_cfa_offset 16 
 .cfi_offset 6, -16 
 movq %rsp, %rbp 
 .cfi_def_cfa_register 6 
 subq $16, %rsp 
 movl $0, -4(%rbp) 
 movl $-721, -4(%rbp) 
 movl -4(%rbp), %eax 
 movl %eax, %esi 
 movl $.LC0, %edi 
 movl $0, %eax 
 call printf 
 movl $0, %eax 
 leave 
 .cfi_def_cfa 7, 8 
 ret 
 .cfi_endproc 
 .LFE0: 
 .size main, .-main 
 .ident "GCC: (Ubuntu 5.4.0-6ubuntu1~16.04.4) 5.4.0 20160609" 
 .section .note.GNU-stack,"",@progbits 
 .file "aritmeticFile24.c" 
 .section .rodata 
 .LC0: 
 .string " a = %d" 
 .text 
 .globl main 
 .type main, @function 
 main: 
 .LFB0: 
 .cfi_startproc 
 pushq %rbp 
 .cfi_def_cfa_offset 16 
 .cfi_offset 6, -16 
 movq %rsp, %rbp 
 .cfi_def_cfa_register 6 
 subq $16, %rsp 
 movl $0, -4(%rbp) 
 movl $19630, -4(%rbp) 
 movl -4(%rbp), %eax 
 movl %eax, %esi 
 movl $.LC0, %edi 
 movl $0, %eax 
 call printf 
 movl $0, %eax 
 leave 
 .cfi_def_cfa 7, 8 
 ret 
 .cfi_endproc 
 .LFE0: 
 .size main, .-main 
 .ident "GCC: (Ubuntu 5.4.0-6ubuntu1~16.04.4) 5.4.0 20160609" 
 .section .note.GNU-stack,"",@progbits 
 .file "aritmeticFile25.c" 
 .section .rodata 
 .LC0: 
 .string " a = %d" 
 .text 
 .globl main 
 .type main, @function 
 main: 
 .LFB0: 
 .cfi_startproc 
 pushq %rbp 
 .cfi_def_cfa_offset 16 
 .cfi_offset 6, -16 
 movq %rsp, %rbp 
 .cfi_def_cfa_register 6 
 subq $16, %rsp 
 movl $0, -4(%rbp) 
 movl $643505, -4(%rbp) 
 movl -4(%rbp), %eax 
 movl %eax, %esi 
 movl $.LC0, %edi 
 movl $0, %eax 
 call printf 
 movl $0, %eax 
 leave 
 .cfi_def_cfa 7, 8 
 ret 
 .cfi_endproc 
 .LFE0: 
 .size main, .-main 
 .ident "GCC: (Ubuntu 5.4.0-6ubuntu1~16.04.4) 5.4.0 20160609" 
 .section .note.GNU-stack,"",@progbits 
 .file "aritmeticFile26.c" 
 .section .rodata 
 .LC0: 
 .string " a = %d" 
 .text 
 .globl main 
 .type main, @function 
 main: 
 .LFB0: 
 .cfi_startproc 
 pushq %rbp 
 .cfi_def_cfa_offset 16 
 .cfi_offset 6, -16 
 movq %rsp, %rbp 
 .cfi_def_cfa_register 6 
 subq $16, %rsp 
 movl $0, -4(%rbp) 
 movl $401164, -4(%rbp) 
 movl -4(%rbp), %eax 
 movl %eax, %esi 
 movl $.LC0, %edi 
 movl $0, %eax 
 call printf 
 movl $0, %eax 
 leave 
 .cfi_def_cfa 7, 8 
 ret 
 .cfi_endproc 
 .LFE0: 
 .size main, .-main 
 .ident "GCC: (Ubuntu 5.4.0-6ubuntu1~16.04.4) 5.4.0 20160609" 
 .section .note.GNU-stack,"",@progbits 
 .file "aritmeticFile27.c" 
 .section .rodata 
 .LC0: 
 .string " a = %d" 
 .text 
 .globl main 
 .type main, @function 
 main: 
 .LFB0: 
 .cfi_startproc 
 pushq %rbp 
 .cfi_def_cfa_offset 16 
 .cfi_offset 6, -16 
 movq %rsp, %rbp 
 .cfi_def_cfa_register 6 
 subq $16, %rsp 
 movl $0, -4(%rbp) 
 movl $-1489, -4(%rbp) 
 movl -4(%rbp), %eax 
 movl %eax, %esi 
 movl $.LC0, %edi 
 movl $0, %eax 
 call printf 
 movl $0, %eax 
 leave 
 .cfi_def_cfa 7, 8 
 ret 
 .cfi_endproc 
 .LFE0: 
 .size main, .-main 
 .ident "GCC: (Ubuntu 5.4.0-6ubuntu1~16.04.4) 5.4.0 20160609" 
 .section .note.GNU-stack,"",@progbits 
 .file "aritmeticFile28.c" 
 .section .rodata 
 .LC0: 
 .string " a = %d" 
 .text 
 .globl main 
 .type main, @function 
 main: 
 .LFB0: 
 .cfi_startproc 
 pushq %rbp 
 .cfi_def_cfa_offset 16 
 .cfi_offset 6, -16 
 movq %rsp, %rbp 
 .cfi_def_cfa_register 6 
 subq $16, %rsp 
 movl $0, -4(%rbp) 
 movl $-2497231, -4(%rbp) 
 movl -4(%rbp), %eax 
 movl %eax, %esi 
 movl $.LC0, %edi 
 movl $0, %eax 
 call printf 
 movl $0, %eax 
 leave 
 .cfi_def_cfa 7, 8 
 ret 
 .cfi_endproc 
 .LFE0: 
 .size main, .-main 
 .ident "GCC: (Ubuntu 5.4.0-6ubuntu1~16.04.4) 5.4.0 20160609" 
 .section .note.GNU-stack,"",@progbits 
 .file "aritmeticFile29.c" 
 .section .rodata 
 .LC0: 
 .string " a = %d" 
 .text 
 .globl main 
 .type main, @function 
 main: 
 .LFB0: 
 .cfi_startproc 
 pushq %rbp 
 .cfi_def_cfa_offset 16 
 .cfi_offset 6, -16 
 movq %rsp, %rbp 
 .cfi_def_cfa_register 6 
 subq $16, %rsp 
 movl $0, -4(%rbp) 
 movl $-261, -4(%rbp) 
 movl -4(%rbp), %eax 
 movl %eax, %esi 
 movl $.LC0, %edi 
 movl $0, %eax 
 call printf 
 movl $0, %eax 
 leave 
 .cfi_def_cfa 7, 8 
 ret 
 .cfi_endproc 
 .LFE0: 
 .size main, .-main 
 .ident "GCC: (Ubuntu 5.4.0-6ubuntu1~16.04.4) 5.4.0 20160609" 
 .section .note.GNU-stack,"",@progbits 
 .file "aritmeticFile30.c" 
 .section .rodata 
 .LC0: 
 .string " a = %d" 
 .text 
 .globl main 
 .type main, @function 
 main: 
 .LFB0: 
 .cfi_startproc 
 pushq %rbp 
 .cfi_def_cfa_offset 16 
 .cfi_offset 6, -16 
 movq %rsp, %rbp 
 .cfi_def_cfa_register 6 
 subq $16, %rsp 
 movl $0, -4(%rbp) 
 movl $-811531690, -4(%rbp) 
 movl -4(%rbp), %eax 
 movl %eax, %esi 
 movl $.LC0, %edi 
 movl $0, %eax 
 call printf 
 movl $0, %eax 
 leave 
 .cfi_def_cfa 7, 8 
 ret 
 .cfi_endproc 
 .LFE0: 
 .size main, .-main 
 .ident "GCC: (Ubuntu 5.4.0-6ubuntu1~16.04.4) 5.4.0 20160609" 
 .section .note.GNU-stack,"",@progbits 
 .file "aritmeticFile31.c" 
 .section .rodata 
 .LC0: 
 .string " a = %d" 
 .text 
 .globl main 
 .type main, @function 
 main: 
 .LFB0: 
 .cfi_startproc 
 pushq %rbp 
 .cfi_def_cfa_offset 16 
 .cfi_offset 6, -16 
 movq %rsp, %rbp 
 .cfi_def_cfa_register 6 
 subq $16, %rsp 
 movl $0, -4(%rbp) 
 movl $190, -4(%rbp) 
 movl -4(%rbp), %eax 
 movl %eax, %esi 
 movl $.LC0, %edi 
 movl $0, %eax 
 call printf 
 movl $0, %eax 
 leave 
 .cfi_def_cfa 7, 8 
 ret 
 .cfi_endproc 
 .LFE0: 
 .size main, .-main 
 .ident "GCC: (Ubuntu 5.4.0-6ubuntu1~16.04.4) 5.4.0 20160609" 
 .section .note.GNU-stack,"",@progbits 
 .file "aritmeticFile32.c" 
 .section .rodata 
 .LC0: 
 .string " a = %d" 
 .text 
 .globl main 
 .type main, @function 
 main: 
 .LFB0: 
 .cfi_startproc 
 pushq %rbp 
 .cfi_def_cfa_offset 16 
 .cfi_offset 6, -16 
 movq %rsp, %rbp 
 .cfi_def_cfa_register 6 
 subq $16, %rsp 
 movl $0, -4(%rbp) 
 movl $183046133, -4(%rbp) 
 movl -4(%rbp), %eax 
 movl %eax, %esi 
 movl $.LC0, %edi 
 movl $0, %eax 
 call printf 
 movl $0, %eax 
 leave 
 .cfi_def_cfa 7, 8 
 ret 
 .cfi_endproc 
 .LFE0: 
 .size main, .-main 
 .ident "GCC: (Ubuntu 5.4.0-6ubuntu1~16.04.4) 5.4.0 20160609" 
 .section .note.GNU-stack,"",@progbits 
 .file "aritmeticFile33.c" 
 .section .rodata 
 .LC0: 
 .string " a = %d" 
 .text 
 .globl main 
 .type main, @function 
 main: 
 .LFB0: 
 .cfi_startproc 
 pushq %rbp 
 .cfi_def_cfa_offset 16 
 .cfi_offset 6, -16 
 movq %rsp, %rbp 
 .cfi_def_cfa_register 6 
 subq $16, %rsp 
 movl $0, -4(%rbp) 
 movl $226199005, -4(%rbp) 
 movl -4(%rbp), %eax 
 movl %eax, %esi 
 movl $.LC0, %edi 
 movl $0, %eax 
 call printf 
 movl $0, %eax 
 leave 
 .cfi_def_cfa 7, 8 
 ret 
 .cfi_endproc 
 .LFE0: 
 .size main, .-main 
 .ident "GCC: (Ubuntu 5.4.0-6ubuntu1~16.04.4) 5.4.0 20160609" 
 .section .note.GNU-stack,"",@progbits 
 .file "aritmeticFile34.c" 
 .section .rodata 
 .LC0: 
 .string " a = %d" 
 .text 
 .globl main 
 .type main, @function 
 main: 
 .LFB0: 
 .cfi_startproc 
 pushq %rbp 
 .cfi_def_cfa_offset 16 
 .cfi_offset 6, -16 
 movq %rsp, %rbp 
 .cfi_def_cfa_register 6 
 subq $16, %rsp 
 movl $0, -4(%rbp) 
 movl $602190, -4(%rbp) 
 movl -4(%rbp), %eax 
 movl %eax, %esi 
 movl $.LC0, %edi 
 movl $0, %eax 
 call printf 
 movl $0, %eax 
 leave 
 .cfi_def_cfa 7, 8 
 ret 
 .cfi_endproc 
 .LFE0: 
 .size main, .-main 
 .ident "GCC: (Ubuntu 5.4.0-6ubuntu1~16.04.4) 5.4.0 20160609" 
 .section .note.GNU-stack,"",@progbits 
 .file "aritmeticFile35.c" 
 .section .rodata 
 .LC0: 
 .string " a = %d" 
 .text 
 .globl main 
 .type main, @function 
 main: 
 .LFB0: 
 .cfi_startproc 
 pushq %rbp 
 .cfi_def_cfa_offset 16 
 .cfi_offset 6, -16 
 movq %rsp, %rbp 
 .cfi_def_cfa_register 6 
 subq $16, %rsp 
 movl $0, -4(%rbp) 
 movl $259450, -4(%rbp) 
 movl -4(%rbp), %eax 
 movl %eax, %esi 
 movl $.LC0, %edi 
 movl $0, %eax 
 call printf 
 movl $0, %eax 
 leave 
 .cfi_def_cfa 7, 8 
 ret 
 .cfi_endproc 
 .LFE0: 
 .size main, .-main 
 .ident "GCC: (Ubuntu 5.4.0-6ubuntu1~16.04.4) 5.4.0 20160609" 
 .section .note.GNU-stack,"",@progbits 
 .file "aritmeticFile36.c" 
 .section .rodata 
 .LC0: 
 .string " a = %d" 
 .text 
 .globl main 
 .type main, @function 
 main: 
 .LFB0: 
 .cfi_startproc 
 pushq %rbp 
 .cfi_def_cfa_offset 16 
 .cfi_offset 6, -16 
 movq %rsp, %rbp 
 .cfi_def_cfa_register 6 
 subq $16, %rsp 
 movl $0, -4(%rbp) 
 movl $571, -4(%rbp) 
 movl -4(%rbp), %eax 
 movl %eax, %esi 
 movl $.LC0, %edi 
 movl $0, %eax 
 call printf 
 movl $0, %eax 
 leave 
 .cfi_def_cfa 7, 8 
 ret 
 .cfi_endproc 
 .LFE0: 
 .size main, .-main 
 .ident "GCC: (Ubuntu 5.4.0-6ubuntu1~16.04.4) 5.4.0 20160609" 
 .section .note.GNU-stack,"",@progbits 
 .file "aritmeticFile37.c" 
 .section .rodata 
 .LC0: 
 .string " a = %d" 
 .text 
 .globl main 
 .type main, @function 
 main: 
 .LFB0: 
 .cfi_startproc 
 pushq %rbp 
 .cfi_def_cfa_offset 16 
 .cfi_offset 6, -16 
 movq %rsp, %rbp 
 .cfi_def_cfa_register 6 
 subq $16, %rsp 
 movl $0, -4(%rbp) 
 movl $-777225, -4(%rbp) 
 movl -4(%rbp), %eax 
 movl %eax, %esi 
 movl $.LC0, %edi 
 movl $0, %eax 
 call printf 
 movl $0, %eax 
 leave 
 .cfi_def_cfa 7, 8 
 ret 
 .cfi_endproc 
 .LFE0: 
 .size main, .-main 
 .ident "GCC: (Ubuntu 5.4.0-6ubuntu1~16.04.4) 5.4.0 20160609" 
 .section .note.GNU-stack,"",@progbits 
 .file "aritmeticFile38.c" 
 .section .rodata 
 .LC0: 
 .string " a = %d" 
 .text 
 .globl main 
 .type main, @function 
 main: 
 .LFB0: 
 .cfi_startproc 
 pushq %rbp 
 .cfi_def_cfa_offset 16 
 .cfi_offset 6, -16 
 movq %rsp, %rbp 
 .cfi_def_cfa_register 6 
 subq $16, %rsp 
 movl $0, -4(%rbp) 
 movl $233736, -4(%rbp) 
 movl -4(%rbp), %eax 
 movl %eax, %esi 
 movl $.LC0, %edi 
 movl $0, %eax 
 call printf 
 movl $0, %eax 
 leave 
 .cfi_def_cfa 7, 8 
 ret 
 .cfi_endproc 
 .LFE0: 
 .size main, .-main 
 .ident "GCC: (Ubuntu 5.4.0-6ubuntu1~16.04.4) 5.4.0 20160609" 
 .section .note.GNU-stack,"",@progbits 
 .file "aritmeticFile39.c" 
 .section .rodata 
 .LC0: 
 .string " a = %d" 
 .text 
 .globl main 
 .type main, @function 
 main: 
 .LFB0: 
 .cfi_startproc 
 pushq %rbp 
 .cfi_def_cfa_offset 16 
 .cfi_offset 6, -16 
 movq %rsp, %rbp 
 .cfi_def_cfa_register 6 
 subq $16, %rsp 
 movl $0, -4(%rbp) 
 movl $352, -4(%rbp) 
 movl -4(%rbp), %eax 
 movl %eax, %esi 
 movl $.LC0, %edi 
 movl $0, %eax 
 call printf 
 movl $0, %eax 
 leave 
 .cfi_def_cfa 7, 8 
 ret 
 .cfi_endproc 
 .LFE0: 
 .size main, .-main 
 .ident "GCC: (Ubuntu 5.4.0-6ubuntu1~16.04.4) 5.4.0 20160609" 
 .section .note.GNU-stack,"",@progbits 
 .file "aritmeticFile40.c" 
 .section .rodata 
 .LC0: 
 .string " a = %d" 
 .text 
 .globl main 
 .type main, @function 
 main: 
 .LFB0: 
 .cfi_startproc 
 pushq %rbp 
 .cfi_def_cfa_offset 16 
 .cfi_offset 6, -16 
 movq %rsp, %rbp 
 .cfi_def_cfa_register 6 
 subq $16, %rsp 
 movl $0, -4(%rbp) 
 movl $22510, -4(%rbp) 
 movl -4(%rbp), %eax 
 movl %eax, %esi 
 movl $.LC0, %edi 
 movl $0, %eax 
 call printf 
 movl $0, %eax 
 leave 
 .cfi_def_cfa 7, 8 
 ret 
 .cfi_endproc 
 .LFE0: 
 .size main, .-main 
 .ident "GCC: (Ubuntu 5.4.0-6ubuntu1~16.04.4) 5.4.0 20160609" 
 .section .note.GNU-stack,"",@progbits 
 .file "aritmeticFile41.c" 
 .section .rodata 
 .LC0: 
 .string " a = %d" 
 .text 
 .globl main 
 .type main, @function 
 main: 
 .LFB0: 
 .cfi_startproc 
 pushq %rbp 
 .cfi_def_cfa_offset 16 
 .cfi_offset 6, -16 
 movq %rsp, %rbp 
 .cfi_def_cfa_register 6 
 subq $16, %rsp 
 movl $0, -4(%rbp) 
 movl $18506, -4(%rbp) 
 movl -4(%rbp), %eax 
 movl %eax, %esi 
 movl $.LC0, %edi 
 movl $0, %eax 
 call printf 
 movl $0, %eax 
 leave 
 .cfi_def_cfa 7, 8 
 ret 
 .cfi_endproc 
 .LFE0: 
 .size main, .-main 
 .ident "GCC: (Ubuntu 5.4.0-6ubuntu1~16.04.4) 5.4.0 20160609" 
 .section .note.GNU-stack,"",@progbits 
 .file "aritmeticFile42.c" 
 .section .rodata 
 .LC0: 
 .string " a = %d" 
 .text 
 .globl main 
 .type main, @function 
 main: 
 .LFB0: 
 .cfi_startproc 
 pushq %rbp 
 .cfi_def_cfa_offset 16 
 .cfi_offset 6, -16 
 movq %rsp, %rbp 
 .cfi_def_cfa_register 6 
 subq $16, %rsp 
 movl $0, -4(%rbp) 
 movl $-1877, -4(%rbp) 
 movl -4(%rbp), %eax 
 movl %eax, %esi 
 movl $.LC0, %edi 
 movl $0, %eax 
 call printf 
 movl $0, %eax 
 leave 
 .cfi_def_cfa 7, 8 
 ret 
 .cfi_endproc 
 .LFE0: 
 .size main, .-main 
 .ident "GCC: (Ubuntu 5.4.0-6ubuntu1~16.04.4) 5.4.0 20160609" 
 .section .note.GNU-stack,"",@progbits 
 .file "aritmeticFile43.c" 
 .section .rodata 
 .LC0: 
 .string " a = %d" 
 .text 
 .globl main 
 .type main, @function 
 main: 
 .LFB0: 
 .cfi_startproc 
 pushq %rbp 
 .cfi_def_cfa_offset 16 
 .cfi_offset 6, -16 
 movq %rsp, %rbp 
 .cfi_def_cfa_register 6 
 subq $16, %rsp 
 movl $0, -4(%rbp) 
 movl $-85529165, -4(%rbp) 
 movl -4(%rbp), %eax 
 movl %eax, %esi 
 movl $.LC0, %edi 
 movl $0, %eax 
 call printf 
 movl $0, %eax 
 leave 
 .cfi_def_cfa 7, 8 
 ret 
 .cfi_endproc 
 .LFE0: 
 .size main, .-main 
 .ident "GCC: (Ubuntu 5.4.0-6ubuntu1~16.04.4) 5.4.0 20160609" 
 .section .note.GNU-stack,"",@progbits 
 .file "aritmeticFile44.c" 
 .section .rodata 
 .LC0: 
 .string " a = %d" 
 .text 
 .globl main 
 .type main, @function 
 main: 
 .LFB0: 
 .cfi_startproc 
 pushq %rbp 
 .cfi_def_cfa_offset 16 
 .cfi_offset 6, -16 
 movq %rsp, %rbp 
 .cfi_def_cfa_register 6 
 subq $16, %rsp 
 movl $0, -4(%rbp) 
 movl $-448398475, -4(%rbp) 
 movl -4(%rbp), %eax 
 movl %eax, %esi 
 movl $.LC0, %edi 
 movl $0, %eax 
 call printf 
 movl $0, %eax 
 leave 
 .cfi_def_cfa 7, 8 
 ret 
 .cfi_endproc 
 .LFE0: 
 .size main, .-main 
 .ident "GCC: (Ubuntu 5.4.0-6ubuntu1~16.04.4) 5.4.0 20160609" 
 .section .note.GNU-stack,"",@progbits 
 .file "aritmeticFile45.c" 
 .section .rodata 
 .LC0: 
 .string " a = %d" 
 .text 
 .globl main 
 .type main, @function 
 main: 
 .LFB0: 
 .cfi_startproc 
 pushq %rbp 
 .cfi_def_cfa_offset 16 
 .cfi_offset 6, -16 
 movq %rsp, %rbp 
 .cfi_def_cfa_register 6 
 subq $16, %rsp 
 movl $0, -4(%rbp) 
 movl $1217761, -4(%rbp) 
 movl -4(%rbp), %eax 
 movl %eax, %esi 
 movl $.LC0, %edi 
 movl $0, %eax 
 call printf 
 movl $0, %eax 
 leave 
 .cfi_def_cfa 7, 8 
 ret 
 .cfi_endproc 
 .LFE0: 
 .size main, .-main 
 .ident "GCC: (Ubuntu 5.4.0-6ubuntu1~16.04.4) 5.4.0 20160609" 
 .section .note.GNU-stack,"",@progbits 
 .file "aritmeticFile46.c" 
 .section .rodata 
 .LC0: 
 .string " a = %d" 
 .text 
 .globl main 
 .type main, @function 
 main: 
 .LFB0: 
 .cfi_startproc 
 pushq %rbp 
 .cfi_def_cfa_offset 16 
 .cfi_offset 6, -16 
 movq %rsp, %rbp 
 .cfi_def_cfa_register 6 
 subq $16, %rsp 
 movl $0, -4(%rbp) 
 movl $4334, -4(%rbp) 
 movl -4(%rbp), %eax 
 movl %eax, %esi 
 movl $.LC0, %edi 
 movl $0, %eax 
 call printf 
 movl $0, %eax 
 leave 
 .cfi_def_cfa 7, 8 
 ret 
 .cfi_endproc 
 .LFE0: 
 .size main, .-main 
 .ident "GCC: (Ubuntu 5.4.0-6ubuntu1~16.04.4) 5.4.0 20160609" 
 .section .note.GNU-stack,"",@progbits 
 .file "aritmeticFile47.c" 
 .section .rodata 
 .LC0: 
 .string " a = %d" 
 .text 
 .globl main 
 .type main, @function 
 main: 
 .LFB0: 
 .cfi_startproc 
 pushq %rbp 
 .cfi_def_cfa_offset 16 
 .cfi_offset 6, -16 
 movq %rsp, %rbp 
 .cfi_def_cfa_register 6 
 subq $16, %rsp 
 movl $0, -4(%rbp) 
 movl $-209212445, -4(%rbp) 
 movl -4(%rbp), %eax 
 movl %eax, %esi 
 movl $.LC0, %edi 
 movl $0, %eax 
 call printf 
 movl $0, %eax 
 leave 
 .cfi_def_cfa 7, 8 
 ret 
 .cfi_endproc 
 .LFE0: 
 .size main, .-main 
 .ident "GCC: (Ubuntu 5.4.0-6ubuntu1~16.04.4) 5.4.0 20160609" 
 .section .note.GNU-stack,"",@progbits 
 .file "aritmeticFile48.c" 
 .section .rodata 
 .LC0: 
 .string " a = %d" 
 .text 
 .globl main 
 .type main, @function 
 main: 
 .LFB0: 
 .cfi_startproc 
 pushq %rbp 
 .cfi_def_cfa_offset 16 
 .cfi_offset 6, -16 
 movq %rsp, %rbp 
 .cfi_def_cfa_register 6 
 subq $16, %rsp 
 movl $0, -4(%rbp) 
 movl $-372891, -4(%rbp) 
 movl -4(%rbp), %eax 
 movl %eax, %esi 
 movl $.LC0, %edi 
 movl $0, %eax 
 call printf 
 movl $0, %eax 
 leave 
 .cfi_def_cfa 7, 8 
 ret 
 .cfi_endproc 
 .LFE0: 
 .size main, .-main 
 .ident "GCC: (Ubuntu 5.4.0-6ubuntu1~16.04.4) 5.4.0 20160609" 
 .section .note.GNU-stack,"",@progbits 
 .file "aritmeticFile49.c" 
 .section .rodata 
 .LC0: 
 .string " a = %d" 
 .text 
 .globl main 
 .type main, @function 
 main: 
 .LFB0: 
 .cfi_startproc 
 pushq %rbp 
 .cfi_def_cfa_offset 16 
 .cfi_offset 6, -16 
 movq %rsp, %rbp 
 .cfi_def_cfa_register 6 
 subq $16, %rsp 
 movl $0, -4(%rbp) 
 movl $279485, -4(%rbp) 
 movl -4(%rbp), %eax 
 movl %eax, %esi 
 movl $.LC0, %edi 
 movl $0, %eax 
 call printf 
 movl $0, %eax 
 leave 
 .cfi_def_cfa 7, 8 
 ret 
 .cfi_endproc 
 .LFE0: 
 .size main, .-main 
 .ident "GCC: (Ubuntu 5.4.0-6ubuntu1~16.04.4) 5.4.0 20160609" 
 .section .note.GNU-stack,"",@progbits 
 .file "aritmeticFile50.c" 
 .section .rodata 
 .LC0: 
 .string " a = %d" 
 .text 
 .globl main 
 .type main, @function 
 main: 
 .LFB0: 
 .cfi_startproc 
 pushq %rbp 
 .cfi_def_cfa_offset 16 
 .cfi_offset 6, -16 
 movq %rsp, %rbp 
 .cfi_def_cfa_register 6 
 subq $16, %rsp 
 movl $0, -4(%rbp) 
 movl $399097, -4(%rbp) 
 movl -4(%rbp), %eax 
 movl %eax, %esi 
 movl $.LC0, %edi 
 movl $0, %eax 
 call printf 
 movl $0, %eax 
 leave 
 .cfi_def_cfa 7, 8 
 ret 
 .cfi_endproc 
 .LFE0: 
 .size main, .-main 
 .ident "GCC: (Ubuntu 5.4.0-6ubuntu1~16.04.4) 5.4.0 20160609" 
 .section .note.GNU-stack,"",@progbits 
 .file "aritmeticFile51.c" 
 .section .rodata 
 .LC0: 
 .string " a = %d" 
 .text 
 .globl main 
 .type main, @function 
 main: 
 .LFB0: 
 .cfi_startproc 
 pushq %rbp 
 .cfi_def_cfa_offset 16 
 .cfi_offset 6, -16 
 movq %rsp, %rbp 
 .cfi_def_cfa_register 6 
 subq $16, %rsp 
 movl $0, -4(%rbp) 
 movl $-45207, -4(%rbp) 
 movl -4(%rbp), %eax 
 movl %eax, %esi 
 movl $.LC0, %edi 
 movl $0, %eax 
 call printf 
 movl $0, %eax 
 leave 
 .cfi_def_cfa 7, 8 
 ret 
 .cfi_endproc 
 .LFE0: 
 .size main, .-main 
 .ident "GCC: (Ubuntu 5.4.0-6ubuntu1~16.04.4) 5.4.0 20160609" 
 .section .note.GNU-stack,"",@progbits 
 .file "aritmeticFile52.c" 
 .section .rodata 
 .LC0: 
 .string " a = %d" 
 .text 
 .globl main 
 .type main, @function 
 main: 
 .LFB0: 
 .cfi_startproc 
 pushq %rbp 
 .cfi_def_cfa_offset 16 
 .cfi_offset 6, -16 
 movq %rsp, %rbp 
 .cfi_def_cfa_register 6 
 subq $16, %rsp 
 movl $0, -4(%rbp) 
 movl $628290, -4(%rbp) 
 movl -4(%rbp), %eax 
 movl %eax, %esi 
 movl $.LC0, %edi 
 movl $0, %eax 
 call printf 
 movl $0, %eax 
 leave 
 .cfi_def_cfa 7, 8 
 ret 
 .cfi_endproc 
 .LFE0: 
 .size main, .-main 
 .ident "GCC: (Ubuntu 5.4.0-6ubuntu1~16.04.4) 5.4.0 20160609" 
 .section .note.GNU-stack,"",@progbits 
 .file "aritmeticFile53.c" 
 .section .rodata 
 .LC0: 
 .string " a = %d" 
 .text 
 .globl main 
 .type main, @function 
 main: 
 .LFB0: 
 .cfi_startproc 
 pushq %rbp 
 .cfi_def_cfa_offset 16 
 .cfi_offset 6, -16 
 movq %rsp, %rbp 
 .cfi_def_cfa_register 6 
 subq $16, %rsp 
 movl $0, -4(%rbp) 
 movl $-42995, -4(%rbp) 
 movl -4(%rbp), %eax 
 movl %eax, %esi 
 movl $.LC0, %edi 
 movl $0, %eax 
 call printf 
 movl $0, %eax 
 leave 
 .cfi_def_cfa 7, 8 
 ret 
 .cfi_endproc 
 .LFE0: 
 .size main, .-main 
 .ident "GCC: (Ubuntu 5.4.0-6ubuntu1~16.04.4) 5.4.0 20160609" 
 .section .note.GNU-stack,"",@progbits 
 .file "aritmeticFile54.c" 
 .section .rodata 
 .LC0: 
 .string " a = %d" 
 .text 
 .globl main 
 .type main, @function 
 main: 
 .LFB0: 
 .cfi_startproc 
 pushq %rbp 
 .cfi_def_cfa_offset 16 
 .cfi_offset 6, -16 
 movq %rsp, %rbp 
 .cfi_def_cfa_register 6 
 subq $16, %rsp 
 movl $0, -4(%rbp) 
 movl $612795, -4(%rbp) 
 movl -4(%rbp), %eax 
 movl %eax, %esi 
 movl $.LC0, %edi 
 movl $0, %eax 
 call printf 
 movl $0, %eax 
 leave 
 .cfi_def_cfa 7, 8 
 ret 
 .cfi_endproc 
 .LFE0: 
 .size main, .-main 
 .ident "GCC: (Ubuntu 5.4.0-6ubuntu1~16.04.4) 5.4.0 20160609" 
 .section .note.GNU-stack,"",@progbits 
 .file "aritmeticFile55.c" 
 .section .rodata 
 .LC0: 
 .string " a = %d" 
 .text 
 .globl main 
 .type main, @function 
 main: 
 .LFB0: 
 .cfi_startproc 
 pushq %rbp 
 .cfi_def_cfa_offset 16 
 .cfi_offset 6, -16 
 movq %rsp, %rbp 
 .cfi_def_cfa_register 6 
 subq $16, %rsp 
 movl $0, -4(%rbp) 
 movl $1380430280, -4(%rbp) 
 movl -4(%rbp), %eax 
 movl %eax, %esi 
 movl $.LC0, %edi 
 movl $0, %eax 
 call printf 
 movl $0, %eax 
 leave 
 .cfi_def_cfa 7, 8 
 ret 
 .cfi_endproc 
 .LFE0: 
 .size main, .-main 
 .ident "GCC: (Ubuntu 5.4.0-6ubuntu1~16.04.4) 5.4.0 20160609" 
 .section .note.GNU-stack,"",@progbits 
 .file "aritmeticFile56.c" 
 .section .rodata 
 .LC0: 
 .string " a = %d" 
 .text 
 .globl main 
 .type main, @function 
 main: 
 .LFB0: 
 .cfi_startproc 
 pushq %rbp 
 .cfi_def_cfa_offset 16 
 .cfi_offset 6, -16 
 movq %rsp, %rbp 
 .cfi_def_cfa_register 6 
 subq $16, %rsp 
 movl $0, -4(%rbp) 
 movl $-120354818, -4(%rbp) 
 movl -4(%rbp), %eax 
 movl %eax, %esi 
 movl $.LC0, %edi 
 movl $0, %eax 
 call printf 
 movl $0, %eax 
 leave 
 .cfi_def_cfa 7, 8 
 ret 
 .cfi_endproc 
 .LFE0: 
 .size main, .-main 
 .ident "GCC: (Ubuntu 5.4.0-6ubuntu1~16.04.4) 5.4.0 20160609" 
 .section .note.GNU-stack,"",@progbits 
 .file "aritmeticFile57.c" 
 .section .rodata 
 .LC0: 
 .string " a = %d" 
 .text 
 .globl main 
 .type main, @function 
 main: 
 .LFB0: 
 .cfi_startproc 
 pushq %rbp 
 .cfi_def_cfa_offset 16 
 .cfi_offset 6, -16 
 movq %rsp, %rbp 
 .cfi_def_cfa_register 6 
 subq $16, %rsp 
 movl $0, -4(%rbp) 
 movl $344885437, -4(%rbp) 
 movl -4(%rbp), %eax 
 movl %eax, %esi 
 movl $.LC0, %edi 
 movl $0, %eax 
 call printf 
 movl $0, %eax 
 leave 
 .cfi_def_cfa 7, 8 
 ret 
 .cfi_endproc 
 .LFE0: 
 .size main, .-main 
 .ident "GCC: (Ubuntu 5.4.0-6ubuntu1~16.04.4) 5.4.0 20160609" 
 .section .note.GNU-stack,"",@progbits 
 .file "aritmeticFile58.c" 
 .section .rodata 
 .LC0: 
 .string " a = %d" 
 .text 
 .globl main 
 .type main, @function 
 main: 
 .LFB0: 
 .cfi_startproc 
 pushq %rbp 
 .cfi_def_cfa_offset 16 
 .cfi_offset 6, -16 
 movq %rsp, %rbp 
 .cfi_def_cfa_register 6 
 subq $16, %rsp 
 movl $0, -4(%rbp) 
 movl $231483730, -4(%rbp) 
 movl -4(%rbp), %eax 
 movl %eax, %esi 
 movl $.LC0, %edi 
 movl $0, %eax 
 call printf 
 movl $0, %eax 
 leave 
 .cfi_def_cfa 7, 8 
 ret 
 .cfi_endproc 
 .LFE0: 
 .size main, .-main 
 .ident "GCC: (Ubuntu 5.4.0-6ubuntu1~16.04.4) 5.4.0 20160609" 
 .section .note.GNU-stack,"",@progbits 
 .file "aritmeticFile59.c" 
 .section .rodata 
 .LC0: 
 .string " a = %d" 
 .text 
 .globl main 
 .type main, @function 
 main: 
 .LFB0: 
 .cfi_startproc 
 pushq %rbp 
 .cfi_def_cfa_offset 16 
 .cfi_offset 6, -16 
 movq %rsp, %rbp 
 .cfi_def_cfa_register 6 
 subq $16, %rsp 
 movl $0, -4(%rbp) 
 movl $51517, -4(%rbp) 
 movl -4(%rbp), %eax 
 movl %eax, %esi 
 movl $.LC0, %edi 
 movl $0, %eax 
 call printf 
 movl $0, %eax 
 leave 
 .cfi_def_cfa 7, 8 
 ret 
 .cfi_endproc 
 .LFE0: 
 .size main, .-main 
 .ident "GCC: (Ubuntu 5.4.0-6ubuntu1~16.04.4) 5.4.0 20160609" 
 .section .note.GNU-stack,"",@progbits 
 .file "aritmeticFile60.c" 
 .section .rodata 
 .LC0: 
 .string " a = %d" 
 .text 
 .globl main 
 .type main, @function 
 main: 
 .LFB0: 
 .cfi_startproc 
 pushq %rbp 
 .cfi_def_cfa_offset 16 
 .cfi_offset 6, -16 
 movq %rsp, %rbp 
 .cfi_def_cfa_register 6 
 subq $16, %rsp 
 movl $0, -4(%rbp) 
 movl $6320, -4(%rbp) 
 movl -4(%rbp), %eax 
 movl %eax, %esi 
 movl $.LC0, %edi 
 movl $0, %eax 
 call printf 
 movl $0, %eax 
 leave 
 .cfi_def_cfa 7, 8 
 ret 
 .cfi_endproc 
 .LFE0: 
 .size main, .-main 
 .ident "GCC: (Ubuntu 5.4.0-6ubuntu1~16.04.4) 5.4.0 20160609" 
 .section .note.GNU-stack,"",@progbits 
 .file "aritmeticFile61.c" 
 .section .rodata 
 .LC0: 
 .string " a = %d" 
 .text 
 .globl main 
 .type main, @function 
 main: 
 .LFB0: 
 .cfi_startproc 
 pushq %rbp 
 .cfi_def_cfa_offset 16 
 .cfi_offset 6, -16 
 movq %rsp, %rbp 
 .cfi_def_cfa_register 6 
 subq $16, %rsp 
 movl $0, -4(%rbp) 
 movl $1250, -4(%rbp) 
 movl -4(%rbp), %eax 
 movl %eax, %esi 
 movl $.LC0, %edi 
 movl $0, %eax 
 call printf 
 movl $0, %eax 
 leave 
 .cfi_def_cfa 7, 8 
 ret 
 .cfi_endproc 
 .LFE0: 
 .size main, .-main 
 .ident "GCC: (Ubuntu 5.4.0-6ubuntu1~16.04.4) 5.4.0 20160609" 
 .section .note.GNU-stack,"",@progbits 
 .file "aritmeticFile62.c" 
 .section .rodata 
 .LC0: 
 .string " a = %d" 
 .text 
 .globl main 
 .type main, @function 
 main: 
 .LFB0: 
 .cfi_startproc 
 pushq %rbp 
 .cfi_def_cfa_offset 16 
 .cfi_offset 6, -16 
 movq %rsp, %rbp 
 .cfi_def_cfa_register 6 
 subq $16, %rsp 
 movl $0, -4(%rbp) 
 movl $-27496779, -4(%rbp) 
 movl -4(%rbp), %eax 
 movl %eax, %esi 
 movl $.LC0, %edi 
 movl $0, %eax 
 call printf 
 movl $0, %eax 
 leave 
 .cfi_def_cfa 7, 8 
 ret 
 .cfi_endproc 
 .LFE0: 
 .size main, .-main 
 .ident "GCC: (Ubuntu 5.4.0-6ubuntu1~16.04.4) 5.4.0 20160609" 
 .section .note.GNU-stack,"",@progbits 
 .file "aritmeticFile63.c" 
 .section .rodata 
 .LC0: 
 .string " a = %d" 
 .text 
 .globl main 
 .type main, @function 
 main: 
 .LFB0: 
 .cfi_startproc 
 pushq %rbp 
 .cfi_def_cfa_offset 16 
 .cfi_offset 6, -16 
 movq %rsp, %rbp 
 .cfi_def_cfa_register 6 
 subq $16, %rsp 
 movl $0, -4(%rbp) 
 movl $261, -4(%rbp) 
 movl -4(%rbp), %eax 
 movl %eax, %esi 
 movl $.LC0, %edi 
 movl $0, %eax 
 call printf 
 movl $0, %eax 
 leave 
 .cfi_def_cfa 7, 8 
 ret 
 .cfi_endproc 
 .LFE0: 
 .size main, .-main 
 .ident "GCC: (Ubuntu 5.4.0-6ubuntu1~16.04.4) 5.4.0 20160609" 
 .section .note.GNU-stack,"",@progbits 
 .file "aritmeticFile64.c" 
 .section .rodata 
 .LC0: 
 .string " a = %d" 
 .text 
 .globl main 
 .type main, @function 
 main: 
 .LFB0: 
 .cfi_startproc 
 pushq %rbp 
 .cfi_def_cfa_offset 16 
 .cfi_offset 6, -16 
 movq %rsp, %rbp 
 .cfi_def_cfa_register 6 
 subq $16, %rsp 
 movl $0, -4(%rbp) 
 movl $-643, -4(%rbp) 
 movl -4(%rbp), %eax 
 movl %eax, %esi 
 movl $.LC0, %edi 
 movl $0, %eax 
 call printf 
 movl $0, %eax 
 leave 
 .cfi_def_cfa 7, 8 
 ret 
 .cfi_endproc 
 .LFE0: 
 .size main, .-main 
 .ident "GCC: (Ubuntu 5.4.0-6ubuntu1~16.04.4) 5.4.0 20160609" 
 .section .note.GNU-stack,"",@progbits 
 .file "aritmeticFile65.c" 
 .section .rodata 
 .LC0: 
 .string " a = %d" 
 .text 
 .globl main 
 .type main, @function 
 main: 
 .LFB0: 
 .cfi_startproc 
 pushq %rbp 
 .cfi_def_cfa_offset 16 
 .cfi_offset 6, -16 
 movq %rsp, %rbp 
 .cfi_def_cfa_register 6 
 subq $16, %rsp 
 movl $0, -4(%rbp) 
 movl $1873770, -4(%rbp) 
 movl -4(%rbp), %eax 
 movl %eax, %esi 
 movl $.LC0, %edi 
 movl $0, %eax 
 call printf 
 movl $0, %eax 
 leave 
 .cfi_def_cfa 7, 8 
 ret 
 .cfi_endproc 
 .LFE0: 
 .size main, .-main 
 .ident "GCC: (Ubuntu 5.4.0-6ubuntu1~16.04.4) 5.4.0 20160609" 
 .section .note.GNU-stack,"",@progbits 
 .file "aritmeticFile66.c" 
 .section .rodata 
 .LC0: 
 .string " a = %d" 
 .text 
 .globl main 
 .type main, @function 
 main: 
 .LFB0: 
 .cfi_startproc 
 pushq %rbp 
 .cfi_def_cfa_offset 16 
 .cfi_offset 6, -16 
 movq %rsp, %rbp 
 .cfi_def_cfa_register 6 
 subq $16, %rsp 
 movl $0, -4(%rbp) 
 movl $-1377668, -4(%rbp) 
 movl -4(%rbp), %eax 
 movl %eax, %esi 
 movl $.LC0, %edi 
 movl $0, %eax 
 call printf 
 movl $0, %eax 
 leave 
 .cfi_def_cfa 7, 8 
 ret 
 .cfi_endproc 
 .LFE0: 
 .size main, .-main 
 .ident "GCC: (Ubuntu 5.4.0-6ubuntu1~16.04.4) 5.4.0 20160609" 
 .section .note.GNU-stack,"",@progbits 
 .file "aritmeticFile67.c" 
 .section .rodata 
 .LC0: 
 .string " a = %d" 
 .text 
 .globl main 
 .type main, @function 
 main: 
 .LFB0: 
 .cfi_startproc 
 pushq %rbp 
 .cfi_def_cfa_offset 16 
 .cfi_offset 6, -16 
 movq %rsp, %rbp 
 .cfi_def_cfa_register 6 
 subq $16, %rsp 
 movl $0, -4(%rbp) 
 movl $150942, -4(%rbp) 
 movl -4(%rbp), %eax 
 movl %eax, %esi 
 movl $.LC0, %edi 
 movl $0, %eax 
 call printf 
 movl $0, %eax 
 leave 
 .cfi_def_cfa 7, 8 
 ret 
 .cfi_endproc 
 .LFE0: 
 .size main, .-main 
 .ident "GCC: (Ubuntu 5.4.0-6ubuntu1~16.04.4) 5.4.0 20160609" 
 .section .note.GNU-stack,"",@progbits 
 .file "aritmeticFile68.c" 
 .section .rodata 
 .LC0: 
 .string " a = %d" 
 .text 
 .globl main 
 .type main, @function 
 main: 
 .LFB0: 
 .cfi_startproc 
 pushq %rbp 
 .cfi_def_cfa_offset 16 
 .cfi_offset 6, -16 
 movq %rsp, %rbp 
 .cfi_def_cfa_register 6 
 subq $16, %rsp 
 movl $0, -4(%rbp) 
 movl $-544806, -4(%rbp) 
 movl -4(%rbp), %eax 
 movl %eax, %esi 
 movl $.LC0, %edi 
 movl $0, %eax 
 call printf 
 movl $0, %eax 
 leave 
 .cfi_def_cfa 7, 8 
 ret 
 .cfi_endproc 
 .LFE0: 
 .size main, .-main 
 .ident "GCC: (Ubuntu 5.4.0-6ubuntu1~16.04.4) 5.4.0 20160609" 
 .section .note.GNU-stack,"",@progbits 
 .file "aritmeticFile69.c" 
 .section .rodata 
 .LC0: 
 .string " a = %d" 
 .text 
 .globl main 
 .type main, @function 
 main: 
 .LFB0: 
 .cfi_startproc 
 pushq %rbp 
 .cfi_def_cfa_offset 16 
 .cfi_offset 6, -16 
 movq %rsp, %rbp 
 .cfi_def_cfa_register 6 
 subq $16, %rsp 
 movl $0, -4(%rbp) 
 movl $4634, -4(%rbp) 
 movl -4(%rbp), %eax 
 movl %eax, %esi 
 movl $.LC0, %edi 
 movl $0, %eax 
 call printf 
 movl $0, %eax 
 leave 
 .cfi_def_cfa 7, 8 
 ret 
 .cfi_endproc 
 .LFE0: 
 .size main, .-main 
 .ident "GCC: (Ubuntu 5.4.0-6ubuntu1~16.04.4) 5.4.0 20160609" 
 .section .note.GNU-stack,"",@progbits 
 .file "aritmeticFile70.c" 
 .section .rodata 
 .LC0: 
 .string " a = %d" 
 .text 
 .globl main 
 .type main, @function 
 main: 
 .LFB0: 
 .cfi_startproc 
 pushq %rbp 
 .cfi_def_cfa_offset 16 
 .cfi_offset 6, -16 
 movq %rsp, %rbp 
 .cfi_def_cfa_register 6 
 subq $16, %rsp 
 movl $0, -4(%rbp) 
 movl $1909072784, -4(%rbp) 
 movl -4(%rbp), %eax 
 movl %eax, %esi 
 movl $.LC0, %edi 
 movl $0, %eax 
 call printf 
 movl $0, %eax 
 leave 
 .cfi_def_cfa 7, 8 
 ret 
 .cfi_endproc 
 .LFE0: 
 .size main, .-main 
 .ident "GCC: (Ubuntu 5.4.0-6ubuntu1~16.04.4) 5.4.0 20160609" 
 .section .note.GNU-stack,"",@progbits 
 .file "aritmeticFile71.c" 
 .section .rodata 
 .LC0: 
 .string " a = %d" 
 .text 
 .globl main 
 .type main, @function 
 main: 
 .LFB0: 
 .cfi_startproc 
 pushq %rbp 
 .cfi_def_cfa_offset 16 
 .cfi_offset 6, -16 
 movq %rsp, %rbp 
 .cfi_def_cfa_register 6 
 subq $16, %rsp 
 movl $0, -4(%rbp) 
 movl $-83336, -4(%rbp) 
 movl -4(%rbp), %eax 
 movl %eax, %esi 
 movl $.LC0, %edi 
 movl $0, %eax 
 call printf 
 movl $0, %eax 
 leave 
 .cfi_def_cfa 7, 8 
 ret 
 .cfi_endproc 
 .LFE0: 
 .size main, .-main 
 .ident "GCC: (Ubuntu 5.4.0-6ubuntu1~16.04.4) 5.4.0 20160609" 
 .section .note.GNU-stack,"",@progbits 
 .file "aritmeticFile72.c" 
 .section .rodata 
 .LC0: 
 .string " a = %d" 
 .text 
 .globl main 
 .type main, @function 
 main: 
 .LFB0: 
 .cfi_startproc 
 pushq %rbp 
 .cfi_def_cfa_offset 16 
 .cfi_offset 6, -16 
 movq %rsp, %rbp 
 .cfi_def_cfa_register 6 
 subq $16, %rsp 
 movl $0, -4(%rbp) 
 movl $1492173234, -4(%rbp) 
 movl -4(%rbp), %eax 
 movl %eax, %esi 
 movl $.LC0, %edi 
 movl $0, %eax 
 call printf 
 movl $0, %eax 
 leave 
 .cfi_def_cfa 7, 8 
 ret 
 .cfi_endproc 
 .LFE0: 
 .size main, .-main 
 .ident "GCC: (Ubuntu 5.4.0-6ubuntu1~16.04.4) 5.4.0 20160609" 
 .section .note.GNU-stack,"",@progbits 
 .file "aritmeticFile73.c" 
 .section .rodata 
 .LC0: 
 .string " a = %d" 
 .text 
 .globl main 
 .type main, @function 
 main: 
 .LFB0: 
 .cfi_startproc 
 pushq %rbp 
 .cfi_def_cfa_offset 16 
 .cfi_offset 6, -16 
 movq %rsp, %rbp 
 .cfi_def_cfa_register 6 
 subq $16, %rsp 
 movl $0, -4(%rbp) 
 movl $82857263, -4(%rbp) 
 movl -4(%rbp), %eax 
 movl %eax, %esi 
 movl $.LC0, %edi 
 movl $0, %eax 
 call printf 
 movl $0, %eax 
 leave 
 .cfi_def_cfa 7, 8 
 ret 
 .cfi_endproc 
 .LFE0: 
 .size main, .-main 
 .ident "GCC: (Ubuntu 5.4.0-6ubuntu1~16.04.4) 5.4.0 20160609" 
 .section .note.GNU-stack,"",@progbits 
 .file "aritmeticFile74.c" 
 .section .rodata 
 .LC0: 
 .string " a = %d" 
 .text 
 .globl main 
 .type main, @function 
 main: 
 .LFB0: 
 .cfi_startproc 
 pushq %rbp 
 .cfi_def_cfa_offset 16 
 .cfi_offset 6, -16 
 movq %rsp, %rbp 
 .cfi_def_cfa_register 6 
 subq $16, %rsp 
 movl $0, -4(%rbp) 
 movl $-189430, -4(%rbp) 
 movl -4(%rbp), %eax 
 movl %eax, %esi 
 movl $.LC0, %edi 
 movl $0, %eax 
 call printf 
 movl $0, %eax 
 leave 
 .cfi_def_cfa 7, 8 
 ret 
 .cfi_endproc 
 .LFE0: 
 .size main, .-main 
 .ident "GCC: (Ubuntu 5.4.0-6ubuntu1~16.04.4) 5.4.0 20160609" 
 .section .note.GNU-stack,"",@progbits 
 .file "aritmeticFile75.c" 
 .section .rodata 
 .LC0: 
 .string " a = %d" 
 .text 
 .globl main 
 .type main, @function 
 main: 
 .LFB0: 
 .cfi_startproc 
 pushq %rbp 
 .cfi_def_cfa_offset 16 
 .cfi_offset 6, -16 
 movq %rsp, %rbp 
 .cfi_def_cfa_register 6 
 subq $16, %rsp 
 movl $0, -4(%rbp) 
 movl $582723, -4(%rbp) 
 movl -4(%rbp), %eax 
 movl %eax, %esi 
 movl $.LC0, %edi 
 movl $0, %eax 
 call printf 
 movl $0, %eax 
 leave 
 .cfi_def_cfa 7, 8 
 ret 
 .cfi_endproc 
 .LFE0: 
 .size main, .-main 
 .ident "GCC: (Ubuntu 5.4.0-6ubuntu1~16.04.4) 5.4.0 20160609" 
 .section .note.GNU-stack,"",@progbits 
 .file "aritmeticFile76.c" 
 .section .rodata 
 .LC0: 
 .string " a = %d" 
 .text 
 .globl main 
 .type main, @function 
 main: 
 .LFB0: 
 .cfi_startproc 
 pushq %rbp 
 .cfi_def_cfa_offset 16 
 .cfi_offset 6, -16 
 movq %rsp, %rbp 
 .cfi_def_cfa_register 6 
 subq $16, %rsp 
 movl $0, -4(%rbp) 
 movl $-262639, -4(%rbp) 
 movl -4(%rbp), %eax 
 movl %eax, %esi 
 movl $.LC0, %edi 
 movl $0, %eax 
 call printf 
 movl $0, %eax 
 leave 
 .cfi_def_cfa 7, 8 
 ret 
 .cfi_endproc 
 .LFE0: 
 .size main, .-main 
 .ident "GCC: (Ubuntu 5.4.0-6ubuntu1~16.04.4) 5.4.0 20160609" 
 .section .note.GNU-stack,"",@progbits 
 .file "aritmeticFile77.c" 
 .section .rodata 
 .LC0: 
 .string " a = %d" 
 .text 
 .globl main 
 .type main, @function 
 main: 
 .LFB0: 
 .cfi_startproc 
 pushq %rbp 
 .cfi_def_cfa_offset 16 
 .cfi_offset 6, -16 
 movq %rsp, %rbp 
 .cfi_def_cfa_register 6 
 subq $16, %rsp 
 movl $0, -4(%rbp) 
 movl $462275, -4(%rbp) 
 movl -4(%rbp), %eax 
 movl %eax, %esi 
 movl $.LC0, %edi 
 movl $0, %eax 
 call printf 
 movl $0, %eax 
 leave 
 .cfi_def_cfa 7, 8 
 ret 
 .cfi_endproc 
 .LFE0: 
 .size main, .-main 
 .ident "GCC: (Ubuntu 5.4.0-6ubuntu1~16.04.4) 5.4.0 20160609" 
 .section .note.GNU-stack,"",@progbits 
 .file "aritmeticFile78.c" 
 .section .rodata 
 .LC0: 
 .string " a = %d" 
 .text 
 .globl main 
 .type main, @function 
 main: 
 .LFB0: 
 .cfi_startproc 
 pushq %rbp 
 .cfi_def_cfa_offset 16 
 .cfi_offset 6, -16 
 movq %rsp, %rbp 
 .cfi_def_cfa_register 6 
 subq $16, %rsp 
 movl $0, -4(%rbp) 
 movl $1150157, -4(%rbp) 
 movl -4(%rbp), %eax 
 movl %eax, %esi 
 movl $.LC0, %edi 
 movl $0, %eax 
 call printf 
 movl $0, %eax 
 leave 
 .cfi_def_cfa 7, 8 
 ret 
 .cfi_endproc 
 .LFE0: 
 .size main, .-main 
 .ident "GCC: (Ubuntu 5.4.0-6ubuntu1~16.04.4) 5.4.0 20160609" 
 .section .note.GNU-stack,"",@progbits 
 .file "aritmeticFile79.c" 
 .section .rodata 
 .LC0: 
 .string " a = %d" 
 .text 
 .globl main 
 .type main, @function 
 main: 
 .LFB0: 
 .cfi_startproc 
 pushq %rbp 
 .cfi_def_cfa_offset 16 
 .cfi_offset 6, -16 
 movq %rsp, %rbp 
 .cfi_def_cfa_register 6 
 subq $16, %rsp 
 movl $0, -4(%rbp) 
 movl $430570, -4(%rbp) 
 movl -4(%rbp), %eax 
 movl %eax, %esi 
 movl $.LC0, %edi 
 movl $0, %eax 
 call printf 
 movl $0, %eax 
 leave 
 .cfi_def_cfa 7, 8 
 ret 
 .cfi_endproc 
 .LFE0: 
 .size main, .-main 
 .ident "GCC: (Ubuntu 5.4.0-6ubuntu1~16.04.4) 5.4.0 20160609" 
 .section .note.GNU-stack,"",@progbits 
 .file "aritmeticFile80.c" 
 .section .rodata 
 .LC0: 
 .string " a = %d" 
 .text 
 .globl main 
 .type main, @function 
 main: 
 .LFB0: 
 .cfi_startproc 
 pushq %rbp 
 .cfi_def_cfa_offset 16 
 .cfi_offset 6, -16 
 movq %rsp, %rbp 
 .cfi_def_cfa_register 6 
 subq $16, %rsp 
 movl $0, -4(%rbp) 
 movl $344, -4(%rbp) 
 movl -4(%rbp), %eax 
 movl %eax, %esi 
 movl $.LC0, %edi 
 movl $0, %eax 
 call printf 
 movl $0, %eax 
 leave 
 .cfi_def_cfa 7, 8 
 ret 
 .cfi_endproc 
 .LFE0: 
 .size main, .-main 
 .ident "GCC: (Ubuntu 5.4.0-6ubuntu1~16.04.4) 5.4.0 20160609" 
 .section .note.GNU-stack,"",@progbits 
 .file "aritmeticFile81.c" 
 .section .rodata 
 .LC0: 
 .string " a = %d" 
 .text 
 .globl main 
 .type main, @function 
 main: 
 .LFB0: 
 .cfi_startproc 
 pushq %rbp 
 .cfi_def_cfa_offset 16 
 .cfi_offset 6, -16 
 movq %rsp, %rbp 
 .cfi_def_cfa_register 6 
 subq $16, %rsp 
 movl $0, -4(%rbp) 
 movl $248557282, -4(%rbp) 
 movl -4(%rbp), %eax 
 movl %eax, %esi 
 movl $.LC0, %edi 
 movl $0, %eax 
 call printf 
 movl $0, %eax 
 leave 
 .cfi_def_cfa 7, 8 
 ret 
 .cfi_endproc 
 .LFE0: 
 .size main, .-main 
 .ident "GCC: (Ubuntu 5.4.0-6ubuntu1~16.04.4) 5.4.0 20160609" 
 .section .note.GNU-stack,"",@progbits 
 .file "aritmeticFile82.c" 
 .section .rodata 
 .LC0: 
 .string " a = %d" 
 .text 
 .globl main 
 .type main, @function 
 main: 
 .LFB0: 
 .cfi_startproc 
 pushq %rbp 
 .cfi_def_cfa_offset 16 
 .cfi_offset 6, -16 
 movq %rsp, %rbp 
 .cfi_def_cfa_register 6 
 subq $16, %rsp 
 movl $0, -4(%rbp) 
 movl $78791, -4(%rbp) 
 movl -4(%rbp), %eax 
 movl %eax, %esi 
 movl $.LC0, %edi 
 movl $0, %eax 
 call printf 
 movl $0, %eax 
 leave 
 .cfi_def_cfa 7, 8 
 ret 
 .cfi_endproc 
 .LFE0: 
 .size main, .-main 
 .ident "GCC: (Ubuntu 5.4.0-6ubuntu1~16.04.4) 5.4.0 20160609" 
 .section .note.GNU-stack,"",@progbits 
 .file "aritmeticFile83.c" 
 .section .rodata 
 .LC0: 
 .string " a = %d" 
 .text 
 .globl main 
 .type main, @function 
 main: 
 .LFB0: 
 .cfi_startproc 
 pushq %rbp 
 .cfi_def_cfa_offset 16 
 .cfi_offset 6, -16 
 movq %rsp, %rbp 
 .cfi_def_cfa_register 6 
 subq $16, %rsp 
 movl $0, -4(%rbp) 
 movl $-521057278, -4(%rbp) 
 movl -4(%rbp), %eax 
 movl %eax, %esi 
 movl $.LC0, %edi 
 movl $0, %eax 
 call printf 
 movl $0, %eax 
 leave 
 .cfi_def_cfa 7, 8 
 ret 
 .cfi_endproc 
 .LFE0: 
 .size main, .-main 
 .ident "GCC: (Ubuntu 5.4.0-6ubuntu1~16.04.4) 5.4.0 20160609" 
 .section .note.GNU-stack,"",@progbits 
 .file "aritmeticFile84.c" 
 .section .rodata 
 .LC0: 
 .string " a = %d" 
 .text 
 .globl main 
 .type main, @function 
 main: 
 .LFB0: 
 .cfi_startproc 
 pushq %rbp 
 .cfi_def_cfa_offset 16 
 .cfi_offset 6, -16 
 movq %rsp, %rbp 
 .cfi_def_cfa_register 6 
 subq $16, %rsp 
 movl $0, -4(%rbp) 
 movl $-192578640, -4(%rbp) 
 movl -4(%rbp), %eax 
 movl %eax, %esi 
 movl $.LC0, %edi 
 movl $0, %eax 
 call printf 
 movl $0, %eax 
 leave 
 .cfi_def_cfa 7, 8 
 ret 
 .cfi_endproc 
 .LFE0: 
 .size main, .-main 
 .ident "GCC: (Ubuntu 5.4.0-6ubuntu1~16.04.4) 5.4.0 20160609" 
 .section .note.GNU-stack,"",@progbits 
 .file "aritmeticFile85.c" 
 .section .rodata 
 .LC0: 
 .string " a = %d" 
 .text 
 .globl main 
 .type main, @function 
 main: 
 .LFB0: 
 .cfi_startproc 
 pushq %rbp 
 .cfi_def_cfa_offset 16 
 .cfi_offset 6, -16 
 movq %rsp, %rbp 
 .cfi_def_cfa_register 6 
 subq $16, %rsp 
 movl $0, -4(%rbp) 
 movl $-1571647, -4(%rbp) 
 movl -4(%rbp), %eax 
 movl %eax, %esi 
 movl $.LC0, %edi 
 movl $0, %eax 
 call printf 
 movl $0, %eax 
 leave 
 .cfi_def_cfa 7, 8 
 ret 
 .cfi_endproc 
 .LFE0: 
 .size main, .-main 
 .ident "GCC: (Ubuntu 5.4.0-6ubuntu1~16.04.4) 5.4.0 20160609" 
 .section .note.GNU-stack,"",@progbits 
 .file "aritmeticFile86.c" 
 .section .rodata 
 .LC0: 
 .string " a = %d" 
 .text 
 .globl main 
 .type main, @function 
 main: 
 .LFB0: 
 .cfi_startproc 
 pushq %rbp 
 .cfi_def_cfa_offset 16 
 .cfi_offset 6, -16 
 movq %rsp, %rbp 
 .cfi_def_cfa_register 6 
 subq $16, %rsp 
 movl $0, -4(%rbp) 
 movl $499, -4(%rbp) 
 movl -4(%rbp), %eax 
 movl %eax, %esi 
 movl $.LC0, %edi 
 movl $0, %eax 
 call printf 
 movl $0, %eax 
 leave 
 .cfi_def_cfa 7, 8 
 ret 
 .cfi_endproc 
 .LFE0: 
 .size main, .-main 
 .ident "GCC: (Ubuntu 5.4.0-6ubuntu1~16.04.4) 5.4.0 20160609" 
 .section .note.GNU-stack,"",@progbits 
 .file "aritmeticFile87.c" 
 .section .rodata 
 .LC0: 
 .string " a = %d" 
 .text 
 .globl main 
 .type main, @function 
 main: 
 .LFB0: 
 .cfi_startproc 
 pushq %rbp 
 .cfi_def_cfa_offset 16 
 .cfi_offset 6, -16 
 movq %rsp, %rbp 
 .cfi_def_cfa_register 6 
 subq $16, %rsp 
 movl $0, -4(%rbp) 
 movl $-107300543, -4(%rbp) 
 movl -4(%rbp), %eax 
 movl %eax, %esi 
 movl $.LC0, %edi 
 movl $0, %eax 
 call printf 
 movl $0, %eax 
 leave 
 .cfi_def_cfa 7, 8 
 ret 
 .cfi_endproc 
 .LFE0: 
 .size main, .-main 
 .ident "GCC: (Ubuntu 5.4.0-6ubuntu1~16.04.4) 5.4.0 20160609" 
 .section .note.GNU-stack,"",@progbits 
 .file "aritmeticFile88.c" 
 .section .rodata 
 .LC0: 
 .string " a = %d" 
 .text 
 .globl main 
 .type main, @function 
 main: 
 .LFB0: 
 .cfi_startproc 
 pushq %rbp 
 .cfi_def_cfa_offset 16 
 .cfi_offset 6, -16 
 movq %rsp, %rbp 
 .cfi_def_cfa_register 6 
 subq $16, %rsp 
 movl $0, -4(%rbp) 
 movl $-4547322, -4(%rbp) 
 movl -4(%rbp), %eax 
 movl %eax, %esi 
 movl $.LC0, %edi 
 movl $0, %eax 
 call printf 
 movl $0, %eax 
 leave 
 .cfi_def_cfa 7, 8 
 ret 
 .cfi_endproc 
 .LFE0: 
 .size main, .-main 
 .ident "GCC: (Ubuntu 5.4.0-6ubuntu1~16.04.4) 5.4.0 20160609" 
 .section .note.GNU-stack,"",@progbits 
 .file "aritmeticFile89.c" 
 .section .rodata 
 .LC0: 
 .string " a = %d" 
 .text 
 .globl main 
 .type main, @function 
 main: 
 .LFB0: 
 .cfi_startproc 
 pushq %rbp 
 .cfi_def_cfa_offset 16 
 .cfi_offset 6, -16 
 movq %rsp, %rbp 
 .cfi_def_cfa_register 6 
 subq $16, %rsp 
 movl $0, -4(%rbp) 
 movl $193085, -4(%rbp) 
 movl -4(%rbp), %eax 
 movl %eax, %esi 
 movl $.LC0, %edi 
 movl $0, %eax 
 call printf 
 movl $0, %eax 
 leave 
 .cfi_def_cfa 7, 8 
 ret 
 .cfi_endproc 
 .LFE0: 
 .size main, .-main 
 .ident "GCC: (Ubuntu 5.4.0-6ubuntu1~16.04.4) 5.4.0 20160609" 
 .section .note.GNU-stack,"",@progbits 
 .file "aritmeticFile90.c" 
 .section .rodata 
 .LC0: 
 .string " a = %d" 
 .text 
 .globl main 
 .type main, @function 
 main: 
 .LFB0: 
 .cfi_startproc 
 pushq %rbp 
 .cfi_def_cfa_offset 16 
 .cfi_offset 6, -16 
 movq %rsp, %rbp 
 .cfi_def_cfa_register 6 
 subq $16, %rsp 
 movl $0, -4(%rbp) 
 movl $737966, -4(%rbp) 
 movl -4(%rbp), %eax 
 movl %eax, %esi 
 movl $.LC0, %edi 
 movl $0, %eax 
 call printf 
 movl $0, %eax 
 leave 
 .cfi_def_cfa 7, 8 
 ret 
 .cfi_endproc 
 .LFE0: 
 .size main, .-main 
 .ident "GCC: (Ubuntu 5.4.0-6ubuntu1~16.04.4) 5.4.0 20160609" 
 .section .note.GNU-stack,"",@progbits 
 .file "aritmeticFile91.c" 
 .section .rodata 
 .LC0: 
 .string " a = %d" 
 .text 
 .globl main 
 .type main, @function 
 main: 
 .LFB0: 
 .cfi_startproc 
 pushq %rbp 
 .cfi_def_cfa_offset 16 
 .cfi_offset 6, -16 
 movq %rsp, %rbp 
 .cfi_def_cfa_register 6 
 subq $16, %rsp 
 movl $0, -4(%rbp) 
 movl $-5281237, -4(%rbp) 
 movl -4(%rbp), %eax 
 movl %eax, %esi 
 movl $.LC0, %edi 
 movl $0, %eax 
 call printf 
 movl $0, %eax 
 leave 
 .cfi_def_cfa 7, 8 
 ret 
 .cfi_endproc 
 .LFE0: 
 .size main, .-main 
 .ident "GCC: (Ubuntu 5.4.0-6ubuntu1~16.04.4) 5.4.0 20160609" 
 .section .note.GNU-stack,"",@progbits 
 .file "aritmeticFile92.c" 
 .section .rodata 
 .LC0: 
 .string " a = %d" 
 .text 
 .globl main 
 .type main, @function 
 main: 
 .LFB0: 
 .cfi_startproc 
 pushq %rbp 
 .cfi_def_cfa_offset 16 
 .cfi_offset 6, -16 
 movq %rsp, %rbp 
 .cfi_def_cfa_register 6 
 subq $16, %rsp 
 movl $0, -4(%rbp) 
 movl $1794737, -4(%rbp) 
 movl -4(%rbp), %eax 
 movl %eax, %esi 
 movl $.LC0, %edi 
 movl $0, %eax 
 call printf 
 movl $0, %eax 
 leave 
 .cfi_def_cfa 7, 8 
 ret 
 .cfi_endproc 
 .LFE0: 
 .size main, .-main 
 .ident "GCC: (Ubuntu 5.4.0-6ubuntu1~16.04.4) 5.4.0 20160609" 
 .section .note.GNU-stack,"",@progbits 
 .file "aritmeticFile93.c" 
 .section .rodata 
 .LC0: 
 .string " a = %d" 
 .text 
 .globl main 
 .type main, @function 
 main: 
 .LFB0: 
 .cfi_startproc 
 pushq %rbp 
 .cfi_def_cfa_offset 16 
 .cfi_offset 6, -16 
 movq %rsp, %rbp 
 .cfi_def_cfa_register 6 
 subq $16, %rsp 
 movl $0, -4(%rbp) 
 movl $-557271961, -4(%rbp) 
 movl -4(%rbp), %eax 
 movl %eax, %esi 
 movl $.LC0, %edi 
 movl $0, %eax 
 call printf 
 movl $0, %eax 
 leave 
 .cfi_def_cfa 7, 8 
 ret 
 .cfi_endproc 
 .LFE0: 
 .size main, .-main 
 .ident "GCC: (Ubuntu 5.4.0-6ubuntu1~16.04.4) 5.4.0 20160609" 
 .section .note.GNU-stack,"",@progbits 
 .file "aritmeticFile94.c" 
 .section .rodata 
 .LC0: 
 .string " a = %d" 
 .text 
 .globl main 
 .type main, @function 
 main: 
 .LFB0: 
 .cfi_startproc 
 pushq %rbp 
 .cfi_def_cfa_offset 16 
 .cfi_offset 6, -16 
 movq %rsp, %rbp 
 .cfi_def_cfa_register 6 
 subq $16, %rsp 
 movl $0, -4(%rbp) 
 movl $3391, -4(%rbp) 
 movl -4(%rbp), %eax 
 movl %eax, %esi 
 movl $.LC0, %edi 
 movl $0, %eax 
 call printf 
 movl $0, %eax 
 leave 
 .cfi_def_cfa 7, 8 
 ret 
 .cfi_endproc 
 .LFE0: 
 .size main, .-main 
 .ident "GCC: (Ubuntu 5.4.0-6ubuntu1~16.04.4) 5.4.0 20160609" 
 .section .note.GNU-stack,"",@progbits 
 .file "aritmeticFile95.c" 
 .section .rodata 
 .LC0: 
 .string " a = %d" 
 .text 
 .globl main 
 .type main, @function 
 main: 
 .LFB0: 
 .cfi_startproc 
 pushq %rbp 
 .cfi_def_cfa_offset 16 
 .cfi_offset 6, -16 
 movq %rsp, %rbp 
 .cfi_def_cfa_register 6 
 subq $16, %rsp 
 movl $0, -4(%rbp) 
 movl $785, -4(%rbp) 
 movl -4(%rbp), %eax 
 movl %eax, %esi 
 movl $.LC0, %edi 
 movl $0, %eax 
 call printf 
 movl $0, %eax 
 leave 
 .cfi_def_cfa 7, 8 
 ret 
 .cfi_endproc 
 .LFE0: 
 .size main, .-main 
 .ident "GCC: (Ubuntu 5.4.0-6ubuntu1~16.04.4) 5.4.0 20160609" 
 .section .note.GNU-stack,"",@progbits 
 .file "aritmeticFile96.c" 
 .section .rodata 
 .LC0: 
 .string " a = %d" 
 .text 
 .globl main 
 .type main, @function 
 main: 
 .LFB0: 
 .cfi_startproc 
 pushq %rbp 
 .cfi_def_cfa_offset 16 
 .cfi_offset 6, -16 
 movq %rsp, %rbp 
 .cfi_def_cfa_register 6 
 subq $16, %rsp 
 movl $0, -4(%rbp) 
 movl $-162706155, -4(%rbp) 
 movl -4(%rbp), %eax 
 movl %eax, %esi 
 movl $.LC0, %edi 
 movl $0, %eax 
 call printf 
 movl $0, %eax 
 leave 
 .cfi_def_cfa 7, 8 
 ret 
 .cfi_endproc 
 .LFE0: 
 .size main, .-main 
 .ident "GCC: (Ubuntu 5.4.0-6ubuntu1~16.04.4) 5.4.0 20160609" 
 .section .note.GNU-stack,"",@progbits 
 .file "aritmeticFile97.c" 
 .section .rodata 
 .LC0: 
 .string " a = %d" 
 .text 
 .globl main 
 .type main, @function 
 main: 
 .LFB0: 
 .cfi_startproc 
 pushq %rbp 
 .cfi_def_cfa_offset 16 
 .cfi_offset 6, -16 
 movq %rsp, %rbp 
 .cfi_def_cfa_register 6 
 subq $16, %rsp 
 movl $0, -4(%rbp) 
 movl $119479, -4(%rbp) 
 movl -4(%rbp), %eax 
 movl %eax, %esi 
 movl $.LC0, %edi 
 movl $0, %eax 
 call printf 
 movl $0, %eax 
 leave 
 .cfi_def_cfa 7, 8 
 ret 
 .cfi_endproc 
 .LFE0: 
 .size main, .-main 
 .ident "GCC: (Ubuntu 5.4.0-6ubuntu1~16.04.4) 5.4.0 20160609" 
 .section .note.GNU-stack,"",@progbits 
 .file "aritmeticFile98.c" 
 .section .rodata 
 .LC0: 
 .string " a = %d" 
 .text 
 .globl main 
 .type main, @function 
 main: 
 .LFB0: 
 .cfi_startproc 
 pushq %rbp 
 .cfi_def_cfa_offset 16 
 .cfi_offset 6, -16 
 movq %rsp, %rbp 
 .cfi_def_cfa_register 6 
 subq $16, %rsp 
 movl $0, -4(%rbp) 
 movl $-472346, -4(%rbp) 
 movl -4(%rbp), %eax 
 movl %eax, %esi 
 movl $.LC0, %edi 
 movl $0, %eax 
 call printf 
 movl $0, %eax 
 leave 
 .cfi_def_cfa 7, 8 
 ret 
 .cfi_endproc 
 .LFE0: 
 .size main, .-main 
 .ident "GCC: (Ubuntu 5.4.0-6ubuntu1~16.04.4) 5.4.0 20160609" 
 .section .note.GNU-stack,"",@progbits 
 .file "aritmeticFile99.c" 
 .section .rodata 
 .LC0: 
 .string " a = %d" 
 .text 
 .globl main 
 .type main, @function 
 main: 
 .LFB0: 
 .cfi_startproc 
 pushq %rbp 
 .cfi_def_cfa_offset 16 
 .cfi_offset 6, -16 
 movq %rsp, %rbp 
 .cfi_def_cfa_register 6 
 subq $16, %rsp 
 movl $0, -4(%rbp) 
 movl $-15507, -4(%rbp) 
 movl -4(%rbp), %eax 
 movl %eax, %esi 
 movl $.LC0, %edi 
 movl $0, %eax 
 call printf 
 movl $0, %eax 
 leave 
 .cfi_def_cfa 7, 8 
 ret 
 .cfi_endproc 
 .LFE0: 
 .size main, .-main 
 .ident "GCC: (Ubuntu 5.4.0-6ubuntu1~16.04.4) 5.4.0 20160609" 
 .section .note.GNU-stack,"",@progbits 
 .file "aritmeticFile100.c" 
 .section .rodata 
 .LC0: 
 .string " a = %d" 
 .text 
 .globl main 
 .type main, @function 
 main: 
 .LFB0: 
 .cfi_startproc 
 pushq %rbp 
 .cfi_def_cfa_offset 16 
 .cfi_offset 6, -16 
 movq %rsp, %rbp 
 .cfi_def_cfa_register 6 
 subq $16, %rsp 
 movl $0, -4(%rbp) 
 movl $299, -4(%rbp) 
 movl -4(%rbp), %eax 
 movl %eax, %esi 
 movl $.LC0, %edi 
 movl $0, %eax 
 call printf 
 movl $0, %eax 
 leave 
 .cfi_def_cfa 7, 8 
 ret 
 .cfi_endproc 
 .LFE0: 
 .size main, .-main 
 .ident "GCC: (Ubuntu 5.4.0-6ubuntu1~16.04.4) 5.4.0 20160609" 
 .section .note.GNU-stack,"",@progbits 
 .file "aritmeticFile101.c" 
 .section .rodata 
 .LC0: 
 .string " a = %d" 
 .text 
 .globl main 
 .type main, @function 
 main: 
 .LFB0: 
 .cfi_startproc 
 pushq %rbp 
 .cfi_def_cfa_offset 16 
 .cfi_offset 6, -16 
 movq %rsp, %rbp 
 .cfi_def_cfa_register 6 
 subq $16, %rsp 
 movl $0, -4(%rbp) 
 movl $-1301867597, -4(%rbp) 
 movl -4(%rbp), %eax 
 movl %eax, %esi 
 movl $.LC0, %edi 
 movl $0, %eax 
 call printf 
 movl $0, %eax 
 leave 
 .cfi_def_cfa 7, 8 
 ret 
 .cfi_endproc 
 .LFE0: 
 .size main, .-main 
 .ident "GCC: (Ubuntu 5.4.0-6ubuntu1~16.04.4) 5.4.0 20160609" 
 .section .note.GNU-stack,"",@progbits 
 .file "aritmeticFile102.c" 
 .section .rodata 
 .LC0: 
 .string " a = %d" 
 .text 
 .globl main 
 .type main, @function 
 main: 
 .LFB0: 
 .cfi_startproc 
 pushq %rbp 
 .cfi_def_cfa_offset 16 
 .cfi_offset 6, -16 
 movq %rsp, %rbp 
 .cfi_def_cfa_register 6 
 subq $16, %rsp 
 movl $0, -4(%rbp) 
 movl $389312, -4(%rbp) 
 movl -4(%rbp), %eax 
 movl %eax, %esi 
 movl $.LC0, %edi 
 movl $0, %eax 
 call printf 
 movl $0, %eax 
 leave 
 .cfi_def_cfa 7, 8 
 ret 
 .cfi_endproc 
 .LFE0: 
 .size main, .-main 
 .ident "GCC: (Ubuntu 5.4.0-6ubuntu1~16.04.4) 5.4.0 20160609" 
 .section .note.GNU-stack,"",@progbits 
 .file "aritmeticFile103.c" 
 .section .rodata 
 .LC0: 
 .string " a = %d" 
 .text 
 .globl main 
 .type main, @function 
 main: 
 .LFB0: 
 .cfi_startproc 
 pushq %rbp 
 .cfi_def_cfa_offset 16 
 .cfi_offset 6, -16 
 movq %rsp, %rbp 
 .cfi_def_cfa_register 6 
 subq $16, %rsp 
 movl $0, -4(%rbp) 
 movl $21738, -4(%rbp) 
 movl -4(%rbp), %eax 
 movl %eax, %esi 
 movl $.LC0, %edi 
 movl $0, %eax 
 call printf 
 movl $0, %eax 
 leave 
 .cfi_def_cfa 7, 8 
 ret 
 .cfi_endproc 
 .LFE0: 
 .size main, .-main 
 .ident "GCC: (Ubuntu 5.4.0-6ubuntu1~16.04.4) 5.4.0 20160609" 
 .section .note.GNU-stack,"",@progbits 
 .file "aritmeticFile104.c" 
 .section .rodata 
 .LC0: 
 .string " a = %d" 
 .text 
 .globl main 
 .type main, @function 
 main: 
 .LFB0: 
 .cfi_startproc 
 pushq %rbp 
 .cfi_def_cfa_offset 16 
 .cfi_offset 6, -16 
 movq %rsp, %rbp 
 .cfi_def_cfa_register 6 
 subq $16, %rsp 
 movl $0, -4(%rbp) 
 movl $-246, -4(%rbp) 
 movl -4(%rbp), %eax 
 movl %eax, %esi 
 movl $.LC0, %edi 
 movl $0, %eax 
 call printf 
 movl $0, %eax 
 leave 
 .cfi_def_cfa 7, 8 
 ret 
 .cfi_endproc 
 .LFE0: 
 .size main, .-main 
 .ident "GCC: (Ubuntu 5.4.0-6ubuntu1~16.04.4) 5.4.0 20160609" 
 .section .note.GNU-stack,"",@progbits 
 .file "aritmeticFile105.c" 
 .section .rodata 
 .LC0: 
 .string " a = %d" 
 .text 
 .globl main 
 .type main, @function 
 main: 
 .LFB0: 
 .cfi_startproc 
 pushq %rbp 
 .cfi_def_cfa_offset 16 
 .cfi_offset 6, -16 
 movq %rsp, %rbp 
 .cfi_def_cfa_register 6 
 subq $16, %rsp 
 movl $0, -4(%rbp) 
 movl $2102025513, -4(%rbp) 
 movl -4(%rbp), %eax 
 movl %eax, %esi 
 movl $.LC0, %edi 
 movl $0, %eax 
 call printf 
 movl $0, %eax 
 leave 
 .cfi_def_cfa 7, 8 
 ret 
 .cfi_endproc 
 .LFE0: 
 .size main, .-main 
 .ident "GCC: (Ubuntu 5.4.0-6ubuntu1~16.04.4) 5.4.0 20160609" 
 .section .note.GNU-stack,"",@progbits 
 .file "aritmeticFile106.c" 
 .section .rodata 
 .LC0: 
 .string " a = %d" 
 .text 
 .globl main 
 .type main, @function 
 main: 
 .LFB0: 
 .cfi_startproc 
 pushq %rbp 
 .cfi_def_cfa_offset 16 
 .cfi_offset 6, -16 
 movq %rsp, %rbp 
 .cfi_def_cfa_register 6 
 subq $16, %rsp 
 movl $0, -4(%rbp) 
 movl $447118, -4(%rbp) 
 movl -4(%rbp), %eax 
 movl %eax, %esi 
 movl $.LC0, %edi 
 movl $0, %eax 
 call printf 
 movl $0, %eax 
 leave 
 .cfi_def_cfa 7, 8 
 ret 
 .cfi_endproc 
 .LFE0: 
 .size main, .-main 
 .ident "GCC: (Ubuntu 5.4.0-6ubuntu1~16.04.4) 5.4.0 20160609" 
 .section .note.GNU-stack,"",@progbits 
 .file "aritmeticFile107.c" 
 .section .rodata 
 .LC0: 
 .string " a = %d" 
 .text 
 .globl main 
 .type main, @function 
 main: 
 .LFB0: 
 .cfi_startproc 
 pushq %rbp 
 .cfi_def_cfa_offset 16 
 .cfi_offset 6, -16 
 movq %rsp, %rbp 
 .cfi_def_cfa_register 6 
 subq $16, %rsp 
 movl $0, -4(%rbp) 
 movl $328939, -4(%rbp) 
 movl -4(%rbp), %eax 
 movl %eax, %esi 
 movl $.LC0, %edi 
 movl $0, %eax 
 call printf 
 movl $0, %eax 
 leave 
 .cfi_def_cfa 7, 8 
 ret 
 .cfi_endproc 
 .LFE0: 
 .size main, .-main 
 .ident "GCC: (Ubuntu 5.4.0-6ubuntu1~16.04.4) 5.4.0 20160609" 
 .section .note.GNU-stack,"",@progbits 
 .file "aritmeticFile108.c" 
 .section .rodata 
 .LC0: 
 .string " a = %d" 
 .text 
 .globl main 
 .type main, @function 
 main: 
 .LFB0: 
 .cfi_startproc 
 pushq %rbp 
 .cfi_def_cfa_offset 16 
 .cfi_offset 6, -16 
 movq %rsp, %rbp 
 .cfi_def_cfa_register 6 
 subq $16, %rsp 
 movl $0, -4(%rbp) 
 movl $-471060, -4(%rbp) 
 movl -4(%rbp), %eax 
 movl %eax, %esi 
 movl $.LC0, %edi 
 movl $0, %eax 
 call printf 
 movl $0, %eax 
 leave 
 .cfi_def_cfa 7, 8 
 ret 
 .cfi_endproc 
 .LFE0: 
 .size main, .-main 
 .ident "GCC: (Ubuntu 5.4.0-6ubuntu1~16.04.4) 5.4.0 20160609" 
 .section .note.GNU-stack,"",@progbits 
 .file "aritmeticFile109.c" 
 .section .rodata 
 .LC0: 
 .string " a = %d" 
 .text 
 .globl main 
 .type main, @function 
 main: 
 .LFB0: 
 .cfi_startproc 
 pushq %rbp 
 .cfi_def_cfa_offset 16 
 .cfi_offset 6, -16 
 movq %rsp, %rbp 
 .cfi_def_cfa_register 6 
 subq $16, %rsp 
 movl $0, -4(%rbp) 
 movl $0, -4(%rbp) 
 movl -4(%rbp), %eax 
 movl %eax, %esi 
 movl $.LC0, %edi 
 movl $0, %eax 
 call printf 
 movl $0, %eax 
 leave 
 .cfi_def_cfa 7, 8 
 ret 
 .cfi_endproc 
 .LFE0: 
 .size main, .-main 
 .ident "GCC: (Ubuntu 5.4.0-6ubuntu1~16.04.4) 5.4.0 20160609" 
 .section .note.GNU-stack,"",@progbits 
 .file "aritmeticFile110.c" 
 .section .rodata 
 .LC0: 
 .string " a = %d" 
 .text 
 .globl main 
 .type main, @function 
 main: 
 .LFB0: 
 .cfi_startproc 
 pushq %rbp 
 .cfi_def_cfa_offset 16 
 .cfi_offset 6, -16 
 movq %rsp, %rbp 
 .cfi_def_cfa_register 6 
 subq $16, %rsp 
 movl $0, -4(%rbp) 
 movl $513, -4(%rbp) 
 movl -4(%rbp), %eax 
 movl %eax, %esi 
 movl $.LC0, %edi 
 movl $0, %eax 
 call printf 
 movl $0, %eax 
 leave 
 .cfi_def_cfa 7, 8 
 ret 
 .cfi_endproc 
 .LFE0: 
 .size main, .-main 
 .ident "GCC: (Ubuntu 5.4.0-6ubuntu1~16.04.4) 5.4.0 20160609" 
 .section .note.GNU-stack,"",@progbits 
 .file "aritmeticFile111.c" 
 .section .rodata 
 .LC0: 
 .string " a = %d" 
 .text 
 .globl main 
 .type main, @function 
 main: 
 .LFB0: 
 .cfi_startproc 
 pushq %rbp 
 .cfi_def_cfa_offset 16 
 .cfi_offset 6, -16 
 movq %rsp, %rbp 
 .cfi_def_cfa_register 6 
 subq $16, %rsp 
 movl $0, -4(%rbp) 
 movl $87454, -4(%rbp) 
 movl -4(%rbp), %eax 
 movl %eax, %esi 
 movl $.LC0, %edi 
 movl $0, %eax 
 call printf 
 movl $0, %eax 
 leave 
 .cfi_def_cfa 7, 8 
 ret 
 .cfi_endproc 
 .LFE0: 
 .size main, .-main 
 .ident "GCC: (Ubuntu 5.4.0-6ubuntu1~16.04.4) 5.4.0 20160609" 
 .section .note.GNU-stack,"",@progbits 
 .file "aritmeticFile112.c" 
 .section .rodata 
 .LC0: 
 .string " a = %d" 
 .text 
 .globl main 
 .type main, @function 
 main: 
 .LFB0: 
 .cfi_startproc 
 pushq %rbp 
 .cfi_def_cfa_offset 16 
 .cfi_offset 6, -16 
 movq %rsp, %rbp 
 .cfi_def_cfa_register 6 
 subq $16, %rsp 
 movl $0, -4(%rbp) 
 movl $2123046540, -4(%rbp) 
 movl -4(%rbp), %eax 
 movl %eax, %esi 
 movl $.LC0, %edi 
 movl $0, %eax 
 call printf 
 movl $0, %eax 
 leave 
 .cfi_def_cfa 7, 8 
 ret 
 .cfi_endproc 
 .LFE0: 
 .size main, .-main 
 .ident "GCC: (Ubuntu 5.4.0-6ubuntu1~16.04.4) 5.4.0 20160609" 
 .section .note.GNU-stack,"",@progbits 
 .file "aritmeticFile113.c" 
 .section .rodata 
 .LC0: 
 .string " a = %d" 
 .text 
 .globl main 
 .type main, @function 
 main: 
 .LFB0: 
 .cfi_startproc 
 pushq %rbp 
 .cfi_def_cfa_offset 16 
 .cfi_offset 6, -16 
 movq %rsp, %rbp 
 .cfi_def_cfa_register 6 
 subq $16, %rsp 
 movl $0, -4(%rbp) 
 movl $-9240, -4(%rbp) 
 movl -4(%rbp), %eax 
 movl %eax, %esi 
 movl $.LC0, %edi 
 movl $0, %eax 
 call printf 
 movl $0, %eax 
 leave 
 .cfi_def_cfa 7, 8 
 ret 
 .cfi_endproc 
 .LFE0: 
 .size main, .-main 
 .ident "GCC: (Ubuntu 5.4.0-6ubuntu1~16.04.4) 5.4.0 20160609" 
 .section .note.GNU-stack,"",@progbits 
 .file "aritmeticFile114.c" 
 .section .rodata 
 .LC0: 
 .string " a = %d" 
 .text 
 .globl main 
 .type main, @function 
 main: 
 .LFB0: 
 .cfi_startproc 
 pushq %rbp 
 .cfi_def_cfa_offset 16 
 .cfi_offset 6, -16 
 movq %rsp, %rbp 
 .cfi_def_cfa_register 6 
 subq $16, %rsp 
 movl $0, -4(%rbp) 
 movl $122839757, -4(%rbp) 
 movl -4(%rbp), %eax 
 movl %eax, %esi 
 movl $.LC0, %edi 
 movl $0, %eax 
 call printf 
 movl $0, %eax 
 leave 
 .cfi_def_cfa 7, 8 
 ret 
 .cfi_endproc 
 .LFE0: 
 .size main, .-main 
 .ident "GCC: (Ubuntu 5.4.0-6ubuntu1~16.04.4) 5.4.0 20160609" 
 .section .note.GNU-stack,"",@progbits 
 .file "aritmeticFile115.c" 
 .section .rodata 
 .LC0: 
 .string " a = %d" 
 .text 
 .globl main 
 .type main, @function 
 main: 
 .LFB0: 
 .cfi_startproc 
 pushq %rbp 
 .cfi_def_cfa_offset 16 
 .cfi_offset 6, -16 
 movq %rsp, %rbp 
 .cfi_def_cfa_register 6 
 subq $16, %rsp 
 movl $0, -4(%rbp) 
 movl $46709, -4(%rbp) 
 movl -4(%rbp), %eax 
 movl %eax, %esi 
 movl $.LC0, %edi 
 movl $0, %eax 
 call printf 
 movl $0, %eax 
 leave 
 .cfi_def_cfa 7, 8 
 ret 
 .cfi_endproc 
 .LFE0: 
 .size main, .-main 
 .ident "GCC: (Ubuntu 5.4.0-6ubuntu1~16.04.4) 5.4.0 20160609" 
 .section .note.GNU-stack,"",@progbits 
 .file "aritmeticFile116.c" 
 .section .rodata 
 .LC0: 
 .string " a = %d" 
 .text 
 .globl main 
 .type main, @function 
 main: 
 .LFB0: 
 .cfi_startproc 
 pushq %rbp 
 .cfi_def_cfa_offset 16 
 .cfi_offset 6, -16 
 movq %rsp, %rbp 
 .cfi_def_cfa_register 6 
 subq $16, %rsp 
 movl $0, -4(%rbp) 
 movl $-707, -4(%rbp) 
 movl -4(%rbp), %eax 
 movl %eax, %esi 
 movl $.LC0, %edi 
 movl $0, %eax 
 call printf 
 movl $0, %eax 
 leave 
 .cfi_def_cfa 7, 8 
 ret 
 .cfi_endproc 
 .LFE0: 
 .size main, .-main 
 .ident "GCC: (Ubuntu 5.4.0-6ubuntu1~16.04.4) 5.4.0 20160609" 
 .section .note.GNU-stack,"",@progbits 
 .file "aritmeticFile117.c" 
 .section .rodata 
 .LC0: 
 .string " a = %d" 
 .text 
 .globl main 
 .type main, @function 
 main: 
 .LFB0: 
 .cfi_startproc 
 pushq %rbp 
 .cfi_def_cfa_offset 16 
 .cfi_offset 6, -16 
 movq %rsp, %rbp 
 .cfi_def_cfa_register 6 
 subq $16, %rsp 
 movl $0, -4(%rbp) 
 movl $-2660164, -4(%rbp) 
 movl -4(%rbp), %eax 
 movl %eax, %esi 
 movl $.LC0, %edi 
 movl $0, %eax 
 call printf 
 movl $0, %eax 
 leave 
 .cfi_def_cfa 7, 8 
 ret 
 .cfi_endproc 
 .LFE0: 
 .size main, .-main 
 .ident "GCC: (Ubuntu 5.4.0-6ubuntu1~16.04.4) 5.4.0 20160609" 
 .section .note.GNU-stack,"",@progbits 
 .file "aritmeticFile118.c" 
 .section .rodata 
 .LC0: 
 .string " a = %d" 
 .text 
 .globl main 
 .type main, @function 
 main: 
 .LFB0: 
 .cfi_startproc 
 pushq %rbp 
 .cfi_def_cfa_offset 16 
 .cfi_offset 6, -16 
 movq %rsp, %rbp 
 .cfi_def_cfa_register 6 
 subq $16, %rsp 
 movl $0, -4(%rbp) 
 movl $1953046255, -4(%rbp) 
 movl -4(%rbp), %eax 
 movl %eax, %esi 
 movl $.LC0, %edi 
 movl $0, %eax 
 call printf 
 movl $0, %eax 
 leave 
 .cfi_def_cfa 7, 8 
 ret 
 .cfi_endproc 
 .LFE0: 
 .size main, .-main 
 .ident "GCC: (Ubuntu 5.4.0-6ubuntu1~16.04.4) 5.4.0 20160609" 
 .section .note.GNU-stack,"",@progbits 
 .file "aritmeticFile119.c" 
 .section .rodata 
 .LC0: 
 .string " a = %d" 
 .text 
 .globl main 
 .type main, @function 
 main: 
 .LFB0: 
 .cfi_startproc 
 pushq %rbp 
 .cfi_def_cfa_offset 16 
 .cfi_offset 6, -16 
 movq %rsp, %rbp 
 .cfi_def_cfa_register 6 
 subq $16, %rsp 
 movl $0, -4(%rbp) 
 movl $-531649, -4(%rbp) 
 movl -4(%rbp), %eax 
 movl %eax, %esi 
 movl $.LC0, %edi 
 movl $0, %eax 
 call printf 
 movl $0, %eax 
 leave 
 .cfi_def_cfa 7, 8 
 ret 
 .cfi_endproc 
 .LFE0: 
 .size main, .-main 
 .ident "GCC: (Ubuntu 5.4.0-6ubuntu1~16.04.4) 5.4.0 20160609" 
 .section .note.GNU-stack,"",@progbits 
 .file "aritmeticFile120.c" 
 .section .rodata 
 .LC0: 
 .string " a = %d" 
 .text 
 .globl main 
 .type main, @function 
 main: 
 .LFB0: 
 .cfi_startproc 
 pushq %rbp 
 .cfi_def_cfa_offset 16 
 .cfi_offset 6, -16 
 movq %rsp, %rbp 
 .cfi_def_cfa_register 6 
 subq $16, %rsp 
 movl $0, -4(%rbp) 
 movl $-73589, -4(%rbp) 
 movl -4(%rbp), %eax 
 movl %eax, %esi 
 movl $.LC0, %edi 
 movl $0, %eax 
 call printf 
 movl $0, %eax 
 leave 
 .cfi_def_cfa 7, 8 
 ret 
 .cfi_endproc 
 .LFE0: 
 .size main, .-main 
 .ident "GCC: (Ubuntu 5.4.0-6ubuntu1~16.04.4) 5.4.0 20160609" 
 .section .note.GNU-stack,"",@progbits 
 .file "aritmeticFile121.c" 
 .section .rodata 
 .LC0: 
 .string " a = %d" 
 .text 
 .globl main 
 .type main, @function 
 main: 
 .LFB0: 
 .cfi_startproc 
 pushq %rbp 
 .cfi_def_cfa_offset 16 
 .cfi_offset 6, -16 
 movq %rsp, %rbp 
 .cfi_def_cfa_register 6 
 subq $16, %rsp 
 movl $0, -4(%rbp) 
 movl $109003, -4(%rbp) 
 movl -4(%rbp), %eax 
 movl %eax, %esi 
 movl $.LC0, %edi 
 movl $0, %eax 
 call printf 
 movl $0, %eax 
 leave 
 .cfi_def_cfa 7, 8 
 ret 
 .cfi_endproc 
 .LFE0: 
 .size main, .-main 
 .ident "GCC: (Ubuntu 5.4.0-6ubuntu1~16.04.4) 5.4.0 20160609" 
 .section .note.GNU-stack,"",@progbits 
 .file "aritmeticFile122.c" 
 .section .rodata 
 .LC0: 
 .string " a = %d" 
 .text 
 .globl main 
 .type main, @function 
 main: 
 .LFB0: 
 .cfi_startproc 
 pushq %rbp 
 .cfi_def_cfa_offset 16 
 .cfi_offset 6, -16 
 movq %rsp, %rbp 
 .cfi_def_cfa_register 6 
 subq $16, %rsp 
 movl $0, -4(%rbp) 
 movl $1973, -4(%rbp) 
 movl -4(%rbp), %eax 
 movl %eax, %esi 
 movl $.LC0, %edi 
 movl $0, %eax 
 call printf 
 movl $0, %eax 
 leave 
 .cfi_def_cfa 7, 8 
 ret 
 .cfi_endproc 
 .LFE0: 
 .size main, .-main 
 .ident "GCC: (Ubuntu 5.4.0-6ubuntu1~16.04.4) 5.4.0 20160609" 
 .section .note.GNU-stack,"",@progbits 
 .file "aritmeticFile123.c" 
 .section .rodata 
 .LC0: 
 .string " a = %d" 
 .text 
 .globl main 
 .type main, @function 
 main: 
 .LFB0: 
 .cfi_startproc 
 pushq %rbp 
 .cfi_def_cfa_offset 16 
 .cfi_offset 6, -16 
 movq %rsp, %rbp 
 .cfi_def_cfa_register 6 
 subq $16, %rsp 
 movl $0, -4(%rbp) 
 movl $-59374, -4(%rbp) 
 movl -4(%rbp), %eax 
 movl %eax, %esi 
 movl $.LC0, %edi 
 movl $0, %eax 
 call printf 
 movl $0, %eax 
 leave 
 .cfi_def_cfa 7, 8 
 ret 
 .cfi_endproc 
 .LFE0: 
 .size main, .-main 
 .ident "GCC: (Ubuntu 5.4.0-6ubuntu1~16.04.4) 5.4.0 20160609" 
 .section .note.GNU-stack,"",@progbits 
 .file "aritmeticFile124.c" 
 .section .rodata 
 .LC0: 
 .string " a = %d" 
 .text 
 .globl main 
 .type main, @function 
 main: 
 .LFB0: 
 .cfi_startproc 
 pushq %rbp 
 .cfi_def_cfa_offset 16 
 .cfi_offset 6, -16 
 movq %rsp, %rbp 
 .cfi_def_cfa_register 6 
 subq $16, %rsp 
 movl $0, -4(%rbp) 
 movl $-1622, -4(%rbp) 
 movl -4(%rbp), %eax 
 movl %eax, %esi 
 movl $.LC0, %edi 
 movl $0, %eax 
 call printf 
 movl $0, %eax 
 leave 
 .cfi_def_cfa 7, 8 
 ret 
 .cfi_endproc 
 .LFE0: 
 .size main, .-main 
 .ident "GCC: (Ubuntu 5.4.0-6ubuntu1~16.04.4) 5.4.0 20160609" 
 .section .note.GNU-stack,"",@progbits 
 .file "aritmeticFile125.c" 
 .section .rodata 
 .LC0: 
 .string " a = %d" 
 .text 
 .globl main 
 .type main, @function 
 main: 
 .LFB0: 
 .cfi_startproc 
 pushq %rbp 
 .cfi_def_cfa_offset 16 
 .cfi_offset 6, -16 
 movq %rsp, %rbp 
 .cfi_def_cfa_register 6 
 subq $16, %rsp 
 movl $0, -4(%rbp) 
 movl $-1298, -4(%rbp) 
 movl -4(%rbp), %eax 
 movl %eax, %esi 
 movl $.LC0, %edi 
 movl $0, %eax 
 call printf 
 movl $0, %eax 
 leave 
 .cfi_def_cfa 7, 8 
 ret 
 .cfi_endproc 
 .LFE0: 
 .size main, .-main 
 .ident "GCC: (Ubuntu 5.4.0-6ubuntu1~16.04.4) 5.4.0 20160609" 
 .section .note.GNU-stack,"",@progbits 
 .file "aritmeticFile126.c" 
 .section .rodata 
 .LC0: 
 .string " a = %d" 
 .text 
 .globl main 
 .type main, @function 
 main: 
 .LFB0: 
 .cfi_startproc 
 pushq %rbp 
 .cfi_def_cfa_offset 16 
 .cfi_offset 6, -16 
 movq %rsp, %rbp 
 .cfi_def_cfa_register 6 
 subq $16, %rsp 
 movl $0, -4(%rbp) 
 movl $1476712873, -4(%rbp) 
 movl -4(%rbp), %eax 
 movl %eax, %esi 
 movl $.LC0, %edi 
 movl $0, %eax 
 call printf 
 movl $0, %eax 
 leave 
 .cfi_def_cfa 7, 8 
 ret 
 .cfi_endproc 
 .LFE0: 
 .size main, .-main 
 .ident "GCC: (Ubuntu 5.4.0-6ubuntu1~16.04.4) 5.4.0 20160609" 
 .section .note.GNU-stack,"",@progbits 
 .file "aritmeticFile127.c" 
 .section .rodata 
 .LC0: 
 .string " a = %d" 
 .text 
 .globl main 
 .type main, @function 
 main: 
 .LFB0: 
 .cfi_startproc 
 pushq %rbp 
 .cfi_def_cfa_offset 16 
 .cfi_offset 6, -16 
 movq %rsp, %rbp 
 .cfi_def_cfa_register 6 
 subq $16, %rsp 
 movl $0, -4(%rbp) 
 movl $1085, -4(%rbp) 
 movl -4(%rbp), %eax 
 movl %eax, %esi 
 movl $.LC0, %edi 
 movl $0, %eax 
 call printf 
 movl $0, %eax 
 leave 
 .cfi_def_cfa 7, 8 
 ret 
 .cfi_endproc 
 .LFE0: 
 .size main, .-main 
 .ident "GCC: (Ubuntu 5.4.0-6ubuntu1~16.04.4) 5.4.0 20160609" 
 .section .note.GNU-stack,"",@progbits 
 .file "aritmeticFile128.c" 
 .section .rodata 
 .LC0: 
 .string " a = %d" 
 .text 
 .globl main 
 .type main, @function 
 main: 
 .LFB0: 
 .cfi_startproc 
 pushq %rbp 
 .cfi_def_cfa_offset 16 
 .cfi_offset 6, -16 
 movq %rsp, %rbp 
 .cfi_def_cfa_register 6 
 subq $16, %rsp 
 movl $0, -4(%rbp) 
 movl $28237, -4(%rbp) 
 movl -4(%rbp), %eax 
 movl %eax, %esi 
 movl $.LC0, %edi 
 movl $0, %eax 
 call printf 
 movl $0, %eax 
 leave 
 .cfi_def_cfa 7, 8 
 ret 
 .cfi_endproc 
 .LFE0: 
 .size main, .-main 
 .ident "GCC: (Ubuntu 5.4.0-6ubuntu1~16.04.4) 5.4.0 20160609" 
 .section .note.GNU-stack,"",@progbits 
 .file "aritmeticFile129.c" 
 .section .rodata 
 .LC0: 
 .string " a = %d" 
 .text 
 .globl main 
 .type main, @function 
 main: 
 .LFB0: 
 .cfi_startproc 
 pushq %rbp 
 .cfi_def_cfa_offset 16 
 .cfi_offset 6, -16 
 movq %rsp, %rbp 
 .cfi_def_cfa_register 6 
 subq $16, %rsp 
 movl $0, -4(%rbp) 
 movl $121250, -4(%rbp) 
 movl -4(%rbp), %eax 
 movl %eax, %esi 
 movl $.LC0, %edi 
 movl $0, %eax 
 call printf 
 movl $0, %eax 
 leave 
 .cfi_def_cfa 7, 8 
 ret 
 .cfi_endproc 
 .LFE0: 
 .size main, .-main 
 .ident "GCC: (Ubuntu 5.4.0-6ubuntu1~16.04.4) 5.4.0 20160609" 
 .section .note.GNU-stack,"",@progbits 
 .file "aritmeticFile130.c" 
 .section .rodata 
 .LC0: 
 .string " a = %d" 
 .text 
 .globl main 
 .type main, @function 
 main: 
 .LFB0: 
 .cfi_startproc 
 pushq %rbp 
 .cfi_def_cfa_offset 16 
 .cfi_offset 6, -16 
 movq %rsp, %rbp 
 .cfi_def_cfa_register 6 
 subq $16, %rsp 
 movl $0, -4(%rbp) 
 movl $-82, -4(%rbp) 
 movl -4(%rbp), %eax 
 movl %eax, %esi 
 movl $.LC0, %edi 
 movl $0, %eax 
 call printf 
 movl $0, %eax 
 leave 
 .cfi_def_cfa 7, 8 
 ret 
 .cfi_endproc 
 .LFE0: 
 .size main, .-main 
 .ident "GCC: (Ubuntu 5.4.0-6ubuntu1~16.04.4) 5.4.0 20160609" 
 .section .note.GNU-stack,"",@progbits 
 .file "aritmeticFile131.c" 
 .section .rodata 
 .LC0: 
 .string " a = %d" 
 .text 
 .globl main 
 .type main, @function 
 main: 
 .LFB0: 
 .cfi_startproc 
 pushq %rbp 
 .cfi_def_cfa_offset 16 
 .cfi_offset 6, -16 
 movq %rsp, %rbp 
 .cfi_def_cfa_register 6 
 subq $16, %rsp 
 movl $0, -4(%rbp) 
 movl $-365200237, -4(%rbp) 
 movl -4(%rbp), %eax 
 movl %eax, %esi 
 movl $.LC0, %edi 
 movl $0, %eax 
 call printf 
 movl $0, %eax 
 leave 
 .cfi_def_cfa 7, 8 
 ret 
 .cfi_endproc 
 .LFE0: 
 .size main, .-main 
 .ident "GCC: (Ubuntu 5.4.0-6ubuntu1~16.04.4) 5.4.0 20160609" 
 .section .note.GNU-stack,"",@progbits 
 .file "aritmeticFile132.c" 
 .section .rodata 
 .LC0: 
 .string " a = %d" 
 .text 
 .globl main 
 .type main, @function 
 main: 
 .LFB0: 
 .cfi_startproc 
 pushq %rbp 
 .cfi_def_cfa_offset 16 
 .cfi_offset 6, -16 
 movq %rsp, %rbp 
 .cfi_def_cfa_register 6 
 subq $16, %rsp 
 movl $0, -4(%rbp) 
 movl $-185213, -4(%rbp) 
 movl -4(%rbp), %eax 
 movl %eax, %esi 
 movl $.LC0, %edi 
 movl $0, %eax 
 call printf 
 movl $0, %eax 
 leave 
 .cfi_def_cfa 7, 8 
 ret 
 .cfi_endproc 
 .LFE0: 
 .size main, .-main 
 .ident "GCC: (Ubuntu 5.4.0-6ubuntu1~16.04.4) 5.4.0 20160609" 
 .section .note.GNU-stack,"",@progbits 
 .file "aritmeticFile133.c" 
 .section .rodata 
 .LC0: 
 .string " a = %d" 
 .text 
 .globl main 
 .type main, @function 
 main: 
 .LFB0: 
 .cfi_startproc 
 pushq %rbp 
 .cfi_def_cfa_offset 16 
 .cfi_offset 6, -16 
 movq %rsp, %rbp 
 .cfi_def_cfa_register 6 
 subq $16, %rsp 
 movl $0, -4(%rbp) 
 movl $-1030397011, -4(%rbp) 
 movl -4(%rbp), %eax 
 movl %eax, %esi 
 movl $.LC0, %edi 
 movl $0, %eax 
 call printf 
 movl $0, %eax 
 leave 
 .cfi_def_cfa 7, 8 
 ret 
 .cfi_endproc 
 .LFE0: 
 .size main, .-main 
 .ident "GCC: (Ubuntu 5.4.0-6ubuntu1~16.04.4) 5.4.0 20160609" 
 .section .note.GNU-stack,"",@progbits 
 .file "aritmeticFile134.c" 
 .section .rodata 
 .LC0: 
 .string " a = %d" 
 .text 
 .globl main 
 .type main, @function 
 main: 
 .LFB0: 
 .cfi_startproc 
 pushq %rbp 
 .cfi_def_cfa_offset 16 
 .cfi_offset 6, -16 
 movq %rsp, %rbp 
 .cfi_def_cfa_register 6 
 subq $16, %rsp 
 movl $0, -4(%rbp) 
 movl $56494170, -4(%rbp) 
 movl -4(%rbp), %eax 
 movl %eax, %esi 
 movl $.LC0, %edi 
 movl $0, %eax 
 call printf 
 movl $0, %eax 
 leave 
 .cfi_def_cfa 7, 8 
 ret 
 .cfi_endproc 
 .LFE0: 
 .size main, .-main 
 .ident "GCC: (Ubuntu 5.4.0-6ubuntu1~16.04.4) 5.4.0 20160609" 
 .section .note.GNU-stack,"",@progbits 
 .file "aritmeticFile135.c" 
 .section .rodata 
 .LC0: 
 .string " a = %d" 
 .text 
 .globl main 
 .type main, @function 
 main: 
 .LFB0: 
 .cfi_startproc 
 pushq %rbp 
 .cfi_def_cfa_offset 16 
 .cfi_offset 6, -16 
 movq %rsp, %rbp 
 .cfi_def_cfa_register 6 
 subq $16, %rsp 
 movl $0, -4(%rbp) 
 movl $-235409687, -4(%rbp) 
 movl -4(%rbp), %eax 
 movl %eax, %esi 
 movl $.LC0, %edi 
 movl $0, %eax 
 call printf 
 movl $0, %eax 
 leave 
 .cfi_def_cfa 7, 8 
 ret 
 .cfi_endproc 
 .LFE0: 
 .size main, .-main 
 .ident "GCC: (Ubuntu 5.4.0-6ubuntu1~16.04.4) 5.4.0 20160609" 
 .section .note.GNU-stack,"",@progbits 
 .file "aritmeticFile136.c" 
 .section .rodata 
 .LC0: 
 .string " a = %d" 
 .text 
 .globl main 
 .type main, @function 
 main: 
 .LFB0: 
 .cfi_startproc 
 pushq %rbp 
 .cfi_def_cfa_offset 16 
 .cfi_offset 6, -16 
 movq %rsp, %rbp 
 .cfi_def_cfa_register 6 
 subq $16, %rsp 
 movl $0, -4(%rbp) 
 movl $398114, -4(%rbp) 
 movl -4(%rbp), %eax 
 movl %eax, %esi 
 movl $.LC0, %edi 
 movl $0, %eax 
 call printf 
 movl $0, %eax 
 leave 
 .cfi_def_cfa 7, 8 
 ret 
 .cfi_endproc 
 .LFE0: 
 .size main, .-main 
 .ident "GCC: (Ubuntu 5.4.0-6ubuntu1~16.04.4) 5.4.0 20160609" 
 .section .note.GNU-stack,"",@progbits 
 .file "aritmeticFile137.c" 
 .section .rodata 
 .LC0: 
 .string " a = %d" 
 .text 
 .globl main 
 .type main, @function 
 main: 
 .LFB0: 
 .cfi_startproc 
 pushq %rbp 
 .cfi_def_cfa_offset 16 
 .cfi_offset 6, -16 
 movq %rsp, %rbp 
 .cfi_def_cfa_register 6 
 subq $16, %rsp 
 movl $0, -4(%rbp) 
 movl $-442048, -4(%rbp) 
 movl -4(%rbp), %eax 
 movl %eax, %esi 
 movl $.LC0, %edi 
 movl $0, %eax 
 call printf 
 movl $0, %eax 
 leave 
 .cfi_def_cfa 7, 8 
 ret 
 .cfi_endproc 
 .LFE0: 
 .size main, .-main 
 .ident "GCC: (Ubuntu 5.4.0-6ubuntu1~16.04.4) 5.4.0 20160609" 
 .section .note.GNU-stack,"",@progbits 
 .file "aritmeticFile138.c" 
 .section .rodata 
 .LC0: 
 .string " a = %d" 
 .text 
 .globl main 
 .type main, @function 
 main: 
 .LFB0: 
 .cfi_startproc 
 pushq %rbp 
 .cfi_def_cfa_offset 16 
 .cfi_offset 6, -16 
 movq %rsp, %rbp 
 .cfi_def_cfa_register 6 
 subq $16, %rsp 
 movl $0, -4(%rbp) 
 movl $33941417, -4(%rbp) 
 movl -4(%rbp), %eax 
 movl %eax, %esi 
 movl $.LC0, %edi 
 movl $0, %eax 
 call printf 
 movl $0, %eax 
 leave 
 .cfi_def_cfa 7, 8 
 ret 
 .cfi_endproc 
 .LFE0: 
 .size main, .-main 
 .ident "GCC: (Ubuntu 5.4.0-6ubuntu1~16.04.4) 5.4.0 20160609" 
 .section .note.GNU-stack,"",@progbits 
 .file "aritmeticFile139.c" 
 .section .rodata 
 .LC0: 
 .string " a = %d" 
 .text 
 .globl main 
 .type main, @function 
 main: 
 .LFB0: 
 .cfi_startproc 
 pushq %rbp 
 .cfi_def_cfa_offset 16 
 .cfi_offset 6, -16 
 movq %rsp, %rbp 
 .cfi_def_cfa_register 6 
 subq $16, %rsp 
 movl $0, -4(%rbp) 
 movl $-503, -4(%rbp) 
 movl -4(%rbp), %eax 
 movl %eax, %esi 
 movl $.LC0, %edi 
 movl $0, %eax 
 call printf 
 movl $0, %eax 
 leave 
 .cfi_def_cfa 7, 8 
 ret 
 .cfi_endproc 
 .LFE0: 
 .size main, .-main 
 .ident "GCC: (Ubuntu 5.4.0-6ubuntu1~16.04.4) 5.4.0 20160609" 
 .section .note.GNU-stack,"",@progbits 
 .file "aritmeticFile140.c" 
 .section .rodata 
 .LC0: 
 .string " a = %d" 
 .text 
 .globl main 
 .type main, @function 
 main: 
 .LFB0: 
 .cfi_startproc 
 pushq %rbp 
 .cfi_def_cfa_offset 16 
 .cfi_offset 6, -16 
 movq %rsp, %rbp 
 .cfi_def_cfa_register 6 
 subq $16, %rsp 
 movl $0, -4(%rbp) 
 movl $-31525, -4(%rbp) 
 movl -4(%rbp), %eax 
 movl %eax, %esi 
 movl $.LC0, %edi 
 movl $0, %eax 
 call printf 
 movl $0, %eax 
 leave 
 .cfi_def_cfa 7, 8 
 ret 
 .cfi_endproc 
 .LFE0: 
 .size main, .-main 
 .ident "GCC: (Ubuntu 5.4.0-6ubuntu1~16.04.4) 5.4.0 20160609" 
 .section .note.GNU-stack,"",@progbits 
 .file "aritmeticFile141.c" 
 .section .rodata 
 .LC0: 
 .string " a = %d" 
 .text 
 .globl main 
 .type main, @function 
 main: 
 .LFB0: 
 .cfi_startproc 
 pushq %rbp 
 .cfi_def_cfa_offset 16 
 .cfi_offset 6, -16 
 movq %rsp, %rbp 
 .cfi_def_cfa_register 6 
 subq $16, %rsp 
 movl $0, -4(%rbp) 
 movl $7081, -4(%rbp) 
 movl -4(%rbp), %eax 
 movl %eax, %esi 
 movl $.LC0, %edi 
 movl $0, %eax 
 call printf 
 movl $0, %eax 
 leave 
 .cfi_def_cfa 7, 8 
 ret 
 .cfi_endproc 
 .LFE0: 
 .size main, .-main 
 .ident "GCC: (Ubuntu 5.4.0-6ubuntu1~16.04.4) 5.4.0 20160609" 
 .section .note.GNU-stack,"",@progbits 
 .file "aritmeticFile142.c" 
 .section .rodata 
 .LC0: 
 .string " a = %d" 
 .text 
 .globl main 
 .type main, @function 
 main: 
 .LFB0: 
 .cfi_startproc 
 pushq %rbp 
 .cfi_def_cfa_offset 16 
 .cfi_offset 6, -16 
 movq %rsp, %rbp 
 .cfi_def_cfa_register 6 
 subq $16, %rsp 
 movl $0, -4(%rbp) 
 movl $23928, -4(%rbp) 
 movl -4(%rbp), %eax 
 movl %eax, %esi 
 movl $.LC0, %edi 
 movl $0, %eax 
 call printf 
 movl $0, %eax 
 leave 
 .cfi_def_cfa 7, 8 
 ret 
 .cfi_endproc 
 .LFE0: 
 .size main, .-main 
 .ident "GCC: (Ubuntu 5.4.0-6ubuntu1~16.04.4) 5.4.0 20160609" 
 .section .note.GNU-stack,"",@progbits 
 .file "aritmeticFile143.c" 
 .section .rodata 
 .LC0: 
 .string " a = %d" 
 .text 
 .globl main 
 .type main, @function 
 main: 
 .LFB0: 
 .cfi_startproc 
 pushq %rbp 
 .cfi_def_cfa_offset 16 
 .cfi_offset 6, -16 
 movq %rsp, %rbp 
 .cfi_def_cfa_register 6 
 subq $16, %rsp 
 movl $0, -4(%rbp) 
 movl $-237959, -4(%rbp) 
 movl -4(%rbp), %eax 
 movl %eax, %esi 
 movl $.LC0, %edi 
 movl $0, %eax 
 call printf 
 movl $0, %eax 
 leave 
 .cfi_def_cfa 7, 8 
 ret 
 .cfi_endproc 
 .LFE0: 
 .size main, .-main 
 .ident "GCC: (Ubuntu 5.4.0-6ubuntu1~16.04.4) 5.4.0 20160609" 
 .section .note.GNU-stack,"",@progbits 
 .file "aritmeticFile144.c" 
 .section .rodata 
 .LC0: 
 .string " a = %d" 
 .text 
 .globl main 
 .type main, @function 
 main: 
 .LFB0: 
 .cfi_startproc 
 pushq %rbp 
 .cfi_def_cfa_offset 16 
 .cfi_offset 6, -16 
 movq %rsp, %rbp 
 .cfi_def_cfa_register 6 
 subq $16, %rsp 
 movl $0, -4(%rbp) 
 movl $-634636, -4(%rbp) 
 movl -4(%rbp), %eax 
 movl %eax, %esi 
 movl $.LC0, %edi 
 movl $0, %eax 
 call printf 
 movl $0, %eax 
 leave 
 .cfi_def_cfa 7, 8 
 ret 
 .cfi_endproc 
 .LFE0: 
 .size main, .-main 
 .ident "GCC: (Ubuntu 5.4.0-6ubuntu1~16.04.4) 5.4.0 20160609" 
 .section .note.GNU-stack,"",@progbits 
 .file "aritmeticFile145.c" 
 .section .rodata 
 .LC0: 
 .string " a = %d" 
 .text 
 .globl main 
 .type main, @function 
 main: 
 .LFB0: 
 .cfi_startproc 
 pushq %rbp 
 .cfi_def_cfa_offset 16 
 .cfi_offset 6, -16 
 movq %rsp, %rbp 
 .cfi_def_cfa_register 6 
 subq $16, %rsp 
 movl $0, -4(%rbp) 
 movl $-23447466, -4(%rbp) 
 movl -4(%rbp), %eax 
 movl %eax, %esi 
 movl $.LC0, %edi 
 movl $0, %eax 
 call printf 
 movl $0, %eax 
 leave 
 .cfi_def_cfa 7, 8 
 ret 
 .cfi_endproc 
 .LFE0: 
 .size main, .-main 
 .ident "GCC: (Ubuntu 5.4.0-6ubuntu1~16.04.4) 5.4.0 20160609" 
 .section .note.GNU-stack,"",@progbits 
 .file "aritmeticFile146.c" 
 .section .rodata 
 .LC0: 
 .string " a = %d" 
 .text 
 .globl main 
 .type main, @function 
 main: 
 .LFB0: 
 .cfi_startproc 
 pushq %rbp 
 .cfi_def_cfa_offset 16 
 .cfi_offset 6, -16 
 movq %rsp, %rbp 
 .cfi_def_cfa_register 6 
 subq $16, %rsp 
 movl $0, -4(%rbp) 
 movl $-18159723, -4(%rbp) 
 movl -4(%rbp), %eax 
 movl %eax, %esi 
 movl $.LC0, %edi 
 movl $0, %eax 
 call printf 
 movl $0, %eax 
 leave 
 .cfi_def_cfa 7, 8 
 ret 
 .cfi_endproc 
 .LFE0: 
 .size main, .-main 
 .ident "GCC: (Ubuntu 5.4.0-6ubuntu1~16.04.4) 5.4.0 20160609" 
 .section .note.GNU-stack,"",@progbits 
 .file "aritmeticFile147.c" 
 .section .rodata 
 .LC0: 
 .string " a = %d" 
 .text 
 .globl main 
 .type main, @function 
 main: 
 .LFB0: 
 .cfi_startproc 
 pushq %rbp 
 .cfi_def_cfa_offset 16 
 .cfi_offset 6, -16 
 movq %rsp, %rbp 
 .cfi_def_cfa_register 6 
 subq $16, %rsp 
 movl $0, -4(%rbp) 
 movl $-495665434, -4(%rbp) 
 movl -4(%rbp), %eax 
 movl %eax, %esi 
 movl $.LC0, %edi 
 movl $0, %eax 
 call printf 
 movl $0, %eax 
 leave 
 .cfi_def_cfa 7, 8 
 ret 
 .cfi_endproc 
 .LFE0: 
 .size main, .-main 
 .ident "GCC: (Ubuntu 5.4.0-6ubuntu1~16.04.4) 5.4.0 20160609" 
 .section .note.GNU-stack,"",@progbits 
 .file "aritmeticFile148.c" 
 .section .rodata 
 .LC0: 
 .string " a = %d" 
 .text 
 .globl main 
 .type main, @function 
 main: 
 .LFB0: 
 .cfi_startproc 
 pushq %rbp 
 .cfi_def_cfa_offset 16 
 .cfi_offset 6, -16 
 movq %rsp, %rbp 
 .cfi_def_cfa_register 6 
 subq $16, %rsp 
 movl $0, -4(%rbp) 
 movl $2585, -4(%rbp) 
 movl -4(%rbp), %eax 
 movl %eax, %esi 
 movl $.LC0, %edi 
 movl $0, %eax 
 call printf 
 movl $0, %eax 
 leave 
 .cfi_def_cfa 7, 8 
 ret 
 .cfi_endproc 
 .LFE0: 
 .size main, .-main 
 .ident "GCC: (Ubuntu 5.4.0-6ubuntu1~16.04.4) 5.4.0 20160609" 
 .section .note.GNU-stack,"",@progbits 
 .file "aritmeticFile149.c" 
 .section .rodata 
 .LC0: 
 .string " a = %d" 
 .text 
 .globl main 
 .type main, @function 
 main: 
 .LFB0: 
 .cfi_startproc 
 pushq %rbp 
 .cfi_def_cfa_offset 16 
 .cfi_offset 6, -16 
 movq %rsp, %rbp 
 .cfi_def_cfa_register 6 
 subq $16, %rsp 
 movl $0, -4(%rbp) 
 movl $5670, -4(%rbp) 
 movl -4(%rbp), %eax 
 movl %eax, %esi 
 movl $.LC0, %edi 
 movl $0, %eax 
 call printf 
 movl $0, %eax 
 leave 
 .cfi_def_cfa 7, 8 
 ret 
 .cfi_endproc 
 .LFE0: 
 .size main, .-main 
 .ident "GCC: (Ubuntu 5.4.0-6ubuntu1~16.04.4) 5.4.0 20160609" 
 .section .note.GNU-stack,"",@progbits 
 .file "aritmeticFile150.c" 
 .section .rodata 
 .LC0: 
 .string " a = %d" 
 .text 
 .globl main 
 .type main, @function 
 main: 
 .LFB0: 
 .cfi_startproc 
 pushq %rbp 
 .cfi_def_cfa_offset 16 
 .cfi_offset 6, -16 
 movq %rsp, %rbp 
 .cfi_def_cfa_register 6 
 subq $16, %rsp 
 movl $0, -4(%rbp) 
 movl $-1401, -4(%rbp) 
 movl -4(%rbp), %eax 
 movl %eax, %esi 
 movl $.LC0, %edi 
 movl $0, %eax 
 call printf 
 movl $0, %eax 
 leave 
 .cfi_def_cfa 7, 8 
 ret 
 .cfi_endproc 
 .LFE0: 
 .size main, .-main 
 .ident "GCC: (Ubuntu 5.4.0-6ubuntu1~16.04.4) 5.4.0 20160609" 
 .section .note.GNU-stack,"",@progbits 
 .file "aritmeticFile151.c" 
 .section .rodata 
 .LC0: 
 .string " a = %d" 
 .text 
 .globl main 
 .type main, @function 
 main: 
 .LFB0: 
 .cfi_startproc 
 pushq %rbp 
 .cfi_def_cfa_offset 16 
 .cfi_offset 6, -16 
 movq %rsp, %rbp 
 .cfi_def_cfa_register 6 
 subq $16, %rsp 
 movl $0, -4(%rbp) 
 movl $-648, -4(%rbp) 
 movl -4(%rbp), %eax 
 movl %eax, %esi 
 movl $.LC0, %edi 
 movl $0, %eax 
 call printf 
 movl $0, %eax 
 leave 
 .cfi_def_cfa 7, 8 
 ret 
 .cfi_endproc 
 .LFE0: 
 .size main, .-main 
 .ident "GCC: (Ubuntu 5.4.0-6ubuntu1~16.04.4) 5.4.0 20160609" 
 .section .note.GNU-stack,"",@progbits 
 .file "aritmeticFile152.c" 
 .section .rodata 
 .LC0: 
 .string " a = %d" 
 .text 
 .globl main 
 .type main, @function 
 main: 
 .LFB0: 
 .cfi_startproc 
 pushq %rbp 
 .cfi_def_cfa_offset 16 
 .cfi_offset 6, -16 
 movq %rsp, %rbp 
 .cfi_def_cfa_register 6 
 subq $16, %rsp 
 movl $0, -4(%rbp) 
 movl $614459, -4(%rbp) 
 movl -4(%rbp), %eax 
 movl %eax, %esi 
 movl $.LC0, %edi 
 movl $0, %eax 
 call printf 
 movl $0, %eax 
 leave 
 .cfi_def_cfa 7, 8 
 ret 
 .cfi_endproc 
 .LFE0: 
 .size main, .-main 
 .ident "GCC: (Ubuntu 5.4.0-6ubuntu1~16.04.4) 5.4.0 20160609" 
 .section .note.GNU-stack,"",@progbits 
 .file "aritmeticFile153.c" 
 .section .rodata 
 .LC0: 
 .string " a = %d" 
 .text 
 .globl main 
 .type main, @function 
 main: 
 .LFB0: 
 .cfi_startproc 
 pushq %rbp 
 .cfi_def_cfa_offset 16 
 .cfi_offset 6, -16 
 movq %rsp, %rbp 
 .cfi_def_cfa_register 6 
 subq $16, %rsp 
 movl $0, -4(%rbp) 
 movl $341419, -4(%rbp) 
 movl -4(%rbp), %eax 
 movl %eax, %esi 
 movl $.LC0, %edi 
 movl $0, %eax 
 call printf 
 movl $0, %eax 
 leave 
 .cfi_def_cfa 7, 8 
 ret 
 .cfi_endproc 
 .LFE0: 
 .size main, .-main 
 .ident "GCC: (Ubuntu 5.4.0-6ubuntu1~16.04.4) 5.4.0 20160609" 
 .section .note.GNU-stack,"",@progbits 
 .file "aritmeticFile154.c" 
 .section .rodata 
 .LC0: 
 .string " a = %d" 
 .text 
 .globl main 
 .type main, @function 
 main: 
 .LFB0: 
 .cfi_startproc 
 pushq %rbp 
 .cfi_def_cfa_offset 16 
 .cfi_offset 6, -16 
 movq %rsp, %rbp 
 .cfi_def_cfa_register 6 
 subq $16, %rsp 
 movl $0, -4(%rbp) 
 movl $201914, -4(%rbp) 
 movl -4(%rbp), %eax 
 movl %eax, %esi 
 movl $.LC0, %edi 
 movl $0, %eax 
 call printf 
 movl $0, %eax 
 leave 
 .cfi_def_cfa 7, 8 
 ret 
 .cfi_endproc 
 .LFE0: 
 .size main, .-main 
 .ident "GCC: (Ubuntu 5.4.0-6ubuntu1~16.04.4) 5.4.0 20160609" 
 .section .note.GNU-stack,"",@progbits 
 .file "aritmeticFile155.c" 
 .section .rodata 
 .LC0: 
 .string " a = %d" 
 .text 
 .globl main 
 .type main, @function 
 main: 
 .LFB0: 
 .cfi_startproc 
 pushq %rbp 
 .cfi_def_cfa_offset 16 
 .cfi_offset 6, -16 
 movq %rsp, %rbp 
 .cfi_def_cfa_register 6 
 subq $16, %rsp 
 movl $0, -4(%rbp) 
 movl $15513, -4(%rbp) 
 movl -4(%rbp), %eax 
 movl %eax, %esi 
 movl $.LC0, %edi 
 movl $0, %eax 
 call printf 
 movl $0, %eax 
 leave 
 .cfi_def_cfa 7, 8 
 ret 
 .cfi_endproc 
 .LFE0: 
 .size main, .-main 
 .ident "GCC: (Ubuntu 5.4.0-6ubuntu1~16.04.4) 5.4.0 20160609" 
 .section .note.GNU-stack,"",@progbits 
 .file "aritmeticFile156.c" 
 .section .rodata 
 .LC0: 
 .string " a = %d" 
 .text 
 .globl main 
 .type main, @function 
 main: 
 .LFB0: 
 .cfi_startproc 
 pushq %rbp 
 .cfi_def_cfa_offset 16 
 .cfi_offset 6, -16 
 movq %rsp, %rbp 
 .cfi_def_cfa_register 6 
 subq $16, %rsp 
 movl $0, -4(%rbp) 
 movl $-9476, -4(%rbp) 
 movl -4(%rbp), %eax 
 movl %eax, %esi 
 movl $.LC0, %edi 
 movl $0, %eax 
 call printf 
 movl $0, %eax 
 leave 
 .cfi_def_cfa 7, 8 
 ret 
 .cfi_endproc 
 .LFE0: 
 .size main, .-main 
 .ident "GCC: (Ubuntu 5.4.0-6ubuntu1~16.04.4) 5.4.0 20160609" 
 .section .note.GNU-stack,"",@progbits 
 .file "aritmeticFile157.c" 
 .section .rodata 
 .LC0: 
 .string " a = %d" 
 .text 
 .globl main 
 .type main, @function 
 main: 
 .LFB0: 
 .cfi_startproc 
 pushq %rbp 
 .cfi_def_cfa_offset 16 
 .cfi_offset 6, -16 
 movq %rsp, %rbp 
 .cfi_def_cfa_register 6 
 subq $16, %rsp 
 movl $0, -4(%rbp) 
 movl $-237030, -4(%rbp) 
 movl -4(%rbp), %eax 
 movl %eax, %esi 
 movl $.LC0, %edi 
 movl $0, %eax 
 call printf 
 movl $0, %eax 
 leave 
 .cfi_def_cfa 7, 8 
 ret 
 .cfi_endproc 
 .LFE0: 
 .size main, .-main 
 .ident "GCC: (Ubuntu 5.4.0-6ubuntu1~16.04.4) 5.4.0 20160609" 
 .section .note.GNU-stack,"",@progbits 
 .file "aritmeticFile158.c" 
 .section .rodata 
 .LC0: 
 .string " a = %d" 
 .text 
 .globl main 
 .type main, @function 
 main: 
 .LFB0: 
 .cfi_startproc 
 pushq %rbp 
 .cfi_def_cfa_offset 16 
 .cfi_offset 6, -16 
 movq %rsp, %rbp 
 .cfi_def_cfa_register 6 
 subq $16, %rsp 
 movl $0, -4(%rbp) 
 movl $3173051, -4(%rbp) 
 movl -4(%rbp), %eax 
 movl %eax, %esi 
 movl $.LC0, %edi 
 movl $0, %eax 
 call printf 
 movl $0, %eax 
 leave 
 .cfi_def_cfa 7, 8 
 ret 
 .cfi_endproc 
 .LFE0: 
 .size main, .-main 
 .ident "GCC: (Ubuntu 5.4.0-6ubuntu1~16.04.4) 5.4.0 20160609" 
 .section .note.GNU-stack,"",@progbits 
 .file "aritmeticFile159.c" 
 .section .rodata 
 .LC0: 
 .string " a = %d" 
 .text 
 .globl main 
 .type main, @function 
 main: 
 .LFB0: 
 .cfi_startproc 
 pushq %rbp 
 .cfi_def_cfa_offset 16 
 .cfi_offset 6, -16 
 movq %rsp, %rbp 
 .cfi_def_cfa_register 6 
 subq $16, %rsp 
 movl $0, -4(%rbp) 
 movl $460669, -4(%rbp) 
 movl -4(%rbp), %eax 
 movl %eax, %esi 
 movl $.LC0, %edi 
 movl $0, %eax 
 call printf 
 movl $0, %eax 
 leave 
 .cfi_def_cfa 7, 8 
 ret 
 .cfi_endproc 
 .LFE0: 
 .size main, .-main 
 .ident "GCC: (Ubuntu 5.4.0-6ubuntu1~16.04.4) 5.4.0 20160609" 
 .section .note.GNU-stack,"",@progbits 
 .file "aritmeticFile160.c" 
 .section .rodata 
 .LC0: 
 .string " a = %d" 
 .text 
 .globl main 
 .type main, @function 
 main: 
 .LFB0: 
 .cfi_startproc 
 pushq %rbp 
 .cfi_def_cfa_offset 16 
 .cfi_offset 6, -16 
 movq %rsp, %rbp 
 .cfi_def_cfa_register 6 
 subq $16, %rsp 
 movl $0, -4(%rbp) 
 movl $123977, -4(%rbp) 
 movl -4(%rbp), %eax 
 movl %eax, %esi 
 movl $.LC0, %edi 
 movl $0, %eax 
 call printf 
 movl $0, %eax 
 leave 
 .cfi_def_cfa 7, 8 
 ret 
 .cfi_endproc 
 .LFE0: 
 .size main, .-main 
 .ident "GCC: (Ubuntu 5.4.0-6ubuntu1~16.04.4) 5.4.0 20160609" 
 .section .note.GNU-stack,"",@progbits 
 .file "aritmeticFile161.c" 
 .section .rodata 
 .LC0: 
 .string " a = %d" 
 .text 
 .globl main 
 .type main, @function 
 main: 
 .LFB0: 
 .cfi_startproc 
 pushq %rbp 
 .cfi_def_cfa_offset 16 
 .cfi_offset 6, -16 
 movq %rsp, %rbp 
 .cfi_def_cfa_register 6 
 subq $16, %rsp 
 movl $0, -4(%rbp) 
 movl $334217, -4(%rbp) 
 movl -4(%rbp), %eax 
 movl %eax, %esi 
 movl $.LC0, %edi 
 movl $0, %eax 
 call printf 
 movl $0, %eax 
 leave 
 .cfi_def_cfa 7, 8 
 ret 
 .cfi_endproc 
 .LFE0: 
 .size main, .-main 
 .ident "GCC: (Ubuntu 5.4.0-6ubuntu1~16.04.4) 5.4.0 20160609" 
 .section .note.GNU-stack,"",@progbits 
 .file "aritmeticFile162.c" 
 .section .rodata 
 .LC0: 
 .string " a = %d" 
 .text 
 .globl main 
 .type main, @function 
 main: 
 .LFB0: 
 .cfi_startproc 
 pushq %rbp 
 .cfi_def_cfa_offset 16 
 .cfi_offset 6, -16 
 movq %rsp, %rbp 
 .cfi_def_cfa_register 6 
 subq $16, %rsp 
 movl $0, -4(%rbp) 
 movl $5361879, -4(%rbp) 
 movl -4(%rbp), %eax 
 movl %eax, %esi 
 movl $.LC0, %edi 
 movl $0, %eax 
 call printf 
 movl $0, %eax 
 leave 
 .cfi_def_cfa 7, 8 
 ret 
 .cfi_endproc 
 .LFE0: 
 .size main, .-main 
 .ident "GCC: (Ubuntu 5.4.0-6ubuntu1~16.04.4) 5.4.0 20160609" 
 .section .note.GNU-stack,"",@progbits 
 .file "aritmeticFile163.c" 
 .section .rodata 
 .LC0: 
 .string " a = %d" 
 .text 
 .globl main 
 .type main, @function 
 main: 
 .LFB0: 
 .cfi_startproc 
 pushq %rbp 
 .cfi_def_cfa_offset 16 
 .cfi_offset 6, -16 
 movq %rsp, %rbp 
 .cfi_def_cfa_register 6 
 subq $16, %rsp 
 movl $0, -4(%rbp) 
 movl $-4659, -4(%rbp) 
 movl -4(%rbp), %eax 
 movl %eax, %esi 
 movl $.LC0, %edi 
 movl $0, %eax 
 call printf 
 movl $0, %eax 
 leave 
 .cfi_def_cfa 7, 8 
 ret 
 .cfi_endproc 
 .LFE0: 
 .size main, .-main 
 .ident "GCC: (Ubuntu 5.4.0-6ubuntu1~16.04.4) 5.4.0 20160609" 
 .section .note.GNU-stack,"",@progbits 
 .file "aritmeticFile164.c" 
 .section .rodata 
 .LC0: 
 .string " a = %d" 
 .text 
 .globl main 
 .type main, @function 
 main: 
 .LFB0: 
 .cfi_startproc 
 pushq %rbp 
 .cfi_def_cfa_offset 16 
 .cfi_offset 6, -16 
 movq %rsp, %rbp 
 .cfi_def_cfa_register 6 
 subq $16, %rsp 
 movl $0, -4(%rbp) 
 movl $-210852960, -4(%rbp) 
 movl -4(%rbp), %eax 
 movl %eax, %esi 
 movl $.LC0, %edi 
 movl $0, %eax 
 call printf 
 movl $0, %eax 
 leave 
 .cfi_def_cfa 7, 8 
 ret 
 .cfi_endproc 
 .LFE0: 
 .size main, .-main 
 .ident "GCC: (Ubuntu 5.4.0-6ubuntu1~16.04.4) 5.4.0 20160609" 
 .section .note.GNU-stack,"",@progbits 
 .file "aritmeticFile165.c" 
 .section .rodata 
 .LC0: 
 .string " a = %d" 
 .text 
 .globl main 
 .type main, @function 
 main: 
 .LFB0: 
 .cfi_startproc 
 pushq %rbp 
 .cfi_def_cfa_offset 16 
 .cfi_offset 6, -16 
 movq %rsp, %rbp 
 .cfi_def_cfa_register 6 
 subq $16, %rsp 
 movl $0, -4(%rbp) 
 movl $13374, -4(%rbp) 
 movl -4(%rbp), %eax 
 movl %eax, %esi 
 movl $.LC0, %edi 
 movl $0, %eax 
 call printf 
 movl $0, %eax 
 leave 
 .cfi_def_cfa 7, 8 
 ret 
 .cfi_endproc 
 .LFE0: 
 .size main, .-main 
 .ident "GCC: (Ubuntu 5.4.0-6ubuntu1~16.04.4) 5.4.0 20160609" 
 .section .note.GNU-stack,"",@progbits 
 .file "aritmeticFile166.c" 
 .section .rodata 
 .LC0: 
 .string " a = %d" 
 .text 
 .globl main 
 .type main, @function 
 main: 
 .LFB0: 
 .cfi_startproc 
 pushq %rbp 
 .cfi_def_cfa_offset 16 
 .cfi_offset 6, -16 
 movq %rsp, %rbp 
 .cfi_def_cfa_register 6 
 subq $16, %rsp 
 movl $0, -4(%rbp) 
 movl $-125209, -4(%rbp) 
 movl -4(%rbp), %eax 
 movl %eax, %esi 
 movl $.LC0, %edi 
 movl $0, %eax 
 call printf 
 movl $0, %eax 
 leave 
 .cfi_def_cfa 7, 8 
 ret 
 .cfi_endproc 
 .LFE0: 
 .size main, .-main 
 .ident "GCC: (Ubuntu 5.4.0-6ubuntu1~16.04.4) 5.4.0 20160609" 
 .section .note.GNU-stack,"",@progbits 
 .file "aritmeticFile167.c" 
 .section .rodata 
 .LC0: 
 .string " a = %d" 
 .text 
 .globl main 
 .type main, @function 
 main: 
 .LFB0: 
 .cfi_startproc 
 pushq %rbp 
 .cfi_def_cfa_offset 16 
 .cfi_offset 6, -16 
 movq %rsp, %rbp 
 .cfi_def_cfa_register 6 
 subq $16, %rsp 
 movl $0, -4(%rbp) 
 movl $200747, -4(%rbp) 
 movl -4(%rbp), %eax 
 movl %eax, %esi 
 movl $.LC0, %edi 
 movl $0, %eax 
 call printf 
 movl $0, %eax 
 leave 
 .cfi_def_cfa 7, 8 
 ret 
 .cfi_endproc 
 .LFE0: 
 .size main, .-main 
 .ident "GCC: (Ubuntu 5.4.0-6ubuntu1~16.04.4) 5.4.0 20160609" 
 .section .note.GNU-stack,"",@progbits 
 .file "aritmeticFile168.c" 
 .section .rodata 
 .LC0: 
 .string " a = %d" 
 .text 
 .globl main 
 .type main, @function 
 main: 
 .LFB0: 
 .cfi_startproc 
 pushq %rbp 
 .cfi_def_cfa_offset 16 
 .cfi_offset 6, -16 
 movq %rsp, %rbp 
 .cfi_def_cfa_register 6 
 subq $16, %rsp 
 movl $0, -4(%rbp) 
 movl $1352, -4(%rbp) 
 movl -4(%rbp), %eax 
 movl %eax, %esi 
 movl $.LC0, %edi 
 movl $0, %eax 
 call printf 
 movl $0, %eax 
 leave 
 .cfi_def_cfa 7, 8 
 ret 
 .cfi_endproc 
 .LFE0: 
 .size main, .-main 
 .ident "GCC: (Ubuntu 5.4.0-6ubuntu1~16.04.4) 5.4.0 20160609" 
 .section .note.GNU-stack,"",@progbits 
 .file "aritmeticFile169.c" 
 .section .rodata 
 .LC0: 
 .string " a = %d" 
 .text 
 .globl main 
 .type main, @function 
 main: 
 .LFB0: 
 .cfi_startproc 
 pushq %rbp 
 .cfi_def_cfa_offset 16 
 .cfi_offset 6, -16 
 movq %rsp, %rbp 
 .cfi_def_cfa_register 6 
 subq $16, %rsp 
 movl $0, -4(%rbp) 
 movl $8851, -4(%rbp) 
 movl -4(%rbp), %eax 
 movl %eax, %esi 
 movl $.LC0, %edi 
 movl $0, %eax 
 call printf 
 movl $0, %eax 
 leave 
 .cfi_def_cfa 7, 8 
 ret 
 .cfi_endproc 
 .LFE0: 
 .size main, .-main 
 .ident "GCC: (Ubuntu 5.4.0-6ubuntu1~16.04.4) 5.4.0 20160609" 
 .section .note.GNU-stack,"",@progbits 
 .file "aritmeticFile170.c" 
 .section .rodata 
 .LC0: 
 .string " a = %d" 
 .text 
 .globl main 
 .type main, @function 
 main: 
 .LFB0: 
 .cfi_startproc 
 pushq %rbp 
 .cfi_def_cfa_offset 16 
 .cfi_offset 6, -16 
 movq %rsp, %rbp 
 .cfi_def_cfa_register 6 
 subq $16, %rsp 
 movl $0, -4(%rbp) 
 movl $247204869, -4(%rbp) 
 movl -4(%rbp), %eax 
 movl %eax, %esi 
 movl $.LC0, %edi 
 movl $0, %eax 
 call printf 
 movl $0, %eax 
 leave 
 .cfi_def_cfa 7, 8 
 ret 
 .cfi_endproc 
 .LFE0: 
 .size main, .-main 
 .ident "GCC: (Ubuntu 5.4.0-6ubuntu1~16.04.4) 5.4.0 20160609" 
 .section .note.GNU-stack,"",@progbits 
 .file "aritmeticFile171.c" 
 .section .rodata 
 .LC0: 
 .string " a = %d" 
 .text 
 .globl main 
 .type main, @function 
 main: 
 .LFB0: 
 .cfi_startproc 
 pushq %rbp 
 .cfi_def_cfa_offset 16 
 .cfi_offset 6, -16 
 movq %rsp, %rbp 
 .cfi_def_cfa_register 6 
 subq $16, %rsp 
 movl $0, -4(%rbp) 
 movl $2840, -4(%rbp) 
 movl -4(%rbp), %eax 
 movl %eax, %esi 
 movl $.LC0, %edi 
 movl $0, %eax 
 call printf 
 movl $0, %eax 
 leave 
 .cfi_def_cfa 7, 8 
 ret 
 .cfi_endproc 
 .LFE0: 
 .size main, .-main 
 .ident "GCC: (Ubuntu 5.4.0-6ubuntu1~16.04.4) 5.4.0 20160609" 
 .section .note.GNU-stack,"",@progbits 
 .file "aritmeticFile172.c" 
 .section .rodata 
 .LC0: 
 .string " a = %d" 
 .text 
 .globl main 
 .type main, @function 
 main: 
 .LFB0: 
 .cfi_startproc 
 pushq %rbp 
 .cfi_def_cfa_offset 16 
 .cfi_offset 6, -16 
 movq %rsp, %rbp 
 .cfi_def_cfa_register 6 
 subq $16, %rsp 
 movl $0, -4(%rbp) 
 movl $3088, -4(%rbp) 
 movl -4(%rbp), %eax 
 movl %eax, %esi 
 movl $.LC0, %edi 
 movl $0, %eax 
 call printf 
 movl $0, %eax 
 leave 
 .cfi_def_cfa 7, 8 
 ret 
 .cfi_endproc 
 .LFE0: 
 .size main, .-main 
 .ident "GCC: (Ubuntu 5.4.0-6ubuntu1~16.04.4) 5.4.0 20160609" 
 .section .note.GNU-stack,"",@progbits 
 .file "aritmeticFile173.c" 
 .section .rodata 
 .LC0: 
 .string " a = %d" 
 .text 
 .globl main 
 .type main, @function 
 main: 
 .LFB0: 
 .cfi_startproc 
 pushq %rbp 
 .cfi_def_cfa_offset 16 
 .cfi_offset 6, -16 
 movq %rsp, %rbp 
 .cfi_def_cfa_register 6 
 subq $16, %rsp 
 movl $0, -4(%rbp) 
 movl $-510195, -4(%rbp) 
 movl -4(%rbp), %eax 
 movl %eax, %esi 
 movl $.LC0, %edi 
 movl $0, %eax 
 call printf 
 movl $0, %eax 
 leave 
 .cfi_def_cfa 7, 8 
 ret 
 .cfi_endproc 
 .LFE0: 
 .size main, .-main 
 .ident "GCC: (Ubuntu 5.4.0-6ubuntu1~16.04.4) 5.4.0 20160609" 
 .section .note.GNU-stack,"",@progbits 
 .file "aritmeticFile174.c" 
 .section .rodata 
 .LC0: 
 .string " a = %d" 
 .text 
 .globl main 
 .type main, @function 
 main: 
 .LFB0: 
 .cfi_startproc 
 pushq %rbp 
 .cfi_def_cfa_offset 16 
 .cfi_offset 6, -16 
 movq %rsp, %rbp 
 .cfi_def_cfa_register 6 
 subq $16, %rsp 
 movl $0, -4(%rbp) 
 movl $72693, -4(%rbp) 
 movl -4(%rbp), %eax 
 movl %eax, %esi 
 movl $.LC0, %edi 
 movl $0, %eax 
 call printf 
 movl $0, %eax 
 leave 
 .cfi_def_cfa 7, 8 
 ret 
 .cfi_endproc 
 .LFE0: 
 .size main, .-main 
 .ident "GCC: (Ubuntu 5.4.0-6ubuntu1~16.04.4) 5.4.0 20160609" 
 .section .note.GNU-stack,"",@progbits 
 .file "aritmeticFile175.c" 
 .section .rodata 
 .LC0: 
 .string " a = %d" 
 .text 
 .globl main 
 .type main, @function 
 main: 
 .LFB0: 
 .cfi_startproc 
 pushq %rbp 
 .cfi_def_cfa_offset 16 
 .cfi_offset 6, -16 
 movq %rsp, %rbp 
 .cfi_def_cfa_register 6 
 subq $16, %rsp 
 movl $0, -4(%rbp) 
 movl $-63260977, -4(%rbp) 
 movl -4(%rbp), %eax 
 movl %eax, %esi 
 movl $.LC0, %edi 
 movl $0, %eax 
 call printf 
 movl $0, %eax 
 leave 
 .cfi_def_cfa 7, 8 
 ret 
 .cfi_endproc 
 .LFE0: 
 .size main, .-main 
 .ident "GCC: (Ubuntu 5.4.0-6ubuntu1~16.04.4) 5.4.0 20160609" 
 .section .note.GNU-stack,"",@progbits 
 .file "aritmeticFile176.c" 
 .section .rodata 
 .LC0: 
 .string " a = %d" 
 .text 
 .globl main 
 .type main, @function 
 main: 
 .LFB0: 
 .cfi_startproc 
 pushq %rbp 
 .cfi_def_cfa_offset 16 
 .cfi_offset 6, -16 
 movq %rsp, %rbp 
 .cfi_def_cfa_register 6 
 subq $16, %rsp 
 movl $0, -4(%rbp) 
 movl $-92731, -4(%rbp) 
 movl -4(%rbp), %eax 
 movl %eax, %esi 
 movl $.LC0, %edi 
 movl $0, %eax 
 call printf 
 movl $0, %eax 
 leave 
 .cfi_def_cfa 7, 8 
 ret 
 .cfi_endproc 
 .LFE0: 
 .size main, .-main 
 .ident "GCC: (Ubuntu 5.4.0-6ubuntu1~16.04.4) 5.4.0 20160609" 
 .section .note.GNU-stack,"",@progbits 
 .file "aritmeticFile177.c" 
 .section .rodata 
 .LC0: 
 .string " a = %d" 
 .text 
 .globl main 
 .type main, @function 
 main: 
 .LFB0: 
 .cfi_startproc 
 pushq %rbp 
 .cfi_def_cfa_offset 16 
 .cfi_offset 6, -16 
 movq %rsp, %rbp 
 .cfi_def_cfa_register 6 
 subq $16, %rsp 
 movl $0, -4(%rbp) 
 movl $-141, -4(%rbp) 
 movl -4(%rbp), %eax 
 movl %eax, %esi 
 movl $.LC0, %edi 
 movl $0, %eax 
 call printf 
 movl $0, %eax 
 leave 
 .cfi_def_cfa 7, 8 
 ret 
 .cfi_endproc 
 .LFE0: 
 .size main, .-main 
 .ident "GCC: (Ubuntu 5.4.0-6ubuntu1~16.04.4) 5.4.0 20160609" 
 .section .note.GNU-stack,"",@progbits 
 .file "aritmeticFile178.c" 
 .section .rodata 
 .LC0: 
 .string " a = %d" 
 .text 
 .globl main 
 .type main, @function 
 main: 
 .LFB0: 
 .cfi_startproc 
 pushq %rbp 
 .cfi_def_cfa_offset 16 
 .cfi_offset 6, -16 
 movq %rsp, %rbp 
 .cfi_def_cfa_register 6 
 subq $16, %rsp 
 movl $0, -4(%rbp) 
 movl $54, -4(%rbp) 
 movl -4(%rbp), %eax 
 movl %eax, %esi 
 movl $.LC0, %edi 
 movl $0, %eax 
 call printf 
 movl $0, %eax 
 leave 
 .cfi_def_cfa 7, 8 
 ret 
 .cfi_endproc 
 .LFE0: 
 .size main, .-main 
 .ident "GCC: (Ubuntu 5.4.0-6ubuntu1~16.04.4) 5.4.0 20160609" 
 .section .note.GNU-stack,"",@progbits 
 .file "aritmeticFile179.c" 
 .section .rodata 
 .LC0: 
 .string " a = %d" 
 .text 
 .globl main 
 .type main, @function 
 main: 
 .LFB0: 
 .cfi_startproc 
 pushq %rbp 
 .cfi_def_cfa_offset 16 
 .cfi_offset 6, -16 
 movq %rsp, %rbp 
 .cfi_def_cfa_register 6 
 subq $16, %rsp 
 movl $0, -4(%rbp) 
 movl $-958756, -4(%rbp) 
 movl -4(%rbp), %eax 
 movl %eax, %esi 
 movl $.LC0, %edi 
 movl $0, %eax 
 call printf 
 movl $0, %eax 
 leave 
 .cfi_def_cfa 7, 8 
 ret 
 .cfi_endproc 
 .LFE0: 
 .size main, .-main 
 .ident "GCC: (Ubuntu 5.4.0-6ubuntu1~16.04.4) 5.4.0 20160609" 
 .section .note.GNU-stack,"",@progbits 
 .file "aritmeticFile180.c" 
 .section .rodata 
 .LC0: 
 .string " a = %d" 
 .text 
 .globl main 
 .type main, @function 
 main: 
 .LFB0: 
 .cfi_startproc 
 pushq %rbp 
 .cfi_def_cfa_offset 16 
 .cfi_offset 6, -16 
 movq %rsp, %rbp 
 .cfi_def_cfa_register 6 
 subq $16, %rsp 
 movl $0, -4(%rbp) 
 movl $1836728844, -4(%rbp) 
 movl -4(%rbp), %eax 
 movl %eax, %esi 
 movl $.LC0, %edi 
 movl $0, %eax 
 call printf 
 movl $0, %eax 
 leave 
 .cfi_def_cfa 7, 8 
 ret 
 .cfi_endproc 
 .LFE0: 
 .size main, .-main 
 .ident "GCC: (Ubuntu 5.4.0-6ubuntu1~16.04.4) 5.4.0 20160609" 
 .section .note.GNU-stack,"",@progbits 
 .file "aritmeticFile181.c" 
 .section .rodata 
 .LC0: 
 .string " a = %d" 
 .text 
 .globl main 
 .type main, @function 
 main: 
 .LFB0: 
 .cfi_startproc 
 pushq %rbp 
 .cfi_def_cfa_offset 16 
 .cfi_offset 6, -16 
 movq %rsp, %rbp 
 .cfi_def_cfa_register 6 
 subq $16, %rsp 
 movl $0, -4(%rbp) 
 movl $350, -4(%rbp) 
 movl -4(%rbp), %eax 
 movl %eax, %esi 
 movl $.LC0, %edi 
 movl $0, %eax 
 call printf 
 movl $0, %eax 
 leave 
 .cfi_def_cfa 7, 8 
 ret 
 .cfi_endproc 
 .LFE0: 
 .size main, .-main 
 .ident "GCC: (Ubuntu 5.4.0-6ubuntu1~16.04.4) 5.4.0 20160609" 
 .section .note.GNU-stack,"",@progbits 
 .file "aritmeticFile182.c" 
 .section .rodata 
 .LC0: 
 .string " a = %d" 
 .text 
 .globl main 
 .type main, @function 
 main: 
 .LFB0: 
 .cfi_startproc 
 pushq %rbp 
 .cfi_def_cfa_offset 16 
 .cfi_offset 6, -16 
 movq %rsp, %rbp 
 .cfi_def_cfa_register 6 
 subq $16, %rsp 
 movl $0, -4(%rbp) 
 movl $-724419, -4(%rbp) 
 movl -4(%rbp), %eax 
 movl %eax, %esi 
 movl $.LC0, %edi 
 movl $0, %eax 
 call printf 
 movl $0, %eax 
 leave 
 .cfi_def_cfa 7, 8 
 ret 
 .cfi_endproc 
 .LFE0: 
 .size main, .-main 
 .ident "GCC: (Ubuntu 5.4.0-6ubuntu1~16.04.4) 5.4.0 20160609" 
 .section .note.GNU-stack,"",@progbits 
 .file "aritmeticFile183.c" 
 .section .rodata 
 .LC0: 
 .string " a = %d" 
 .text 
 .globl main 
 .type main, @function 
 main: 
 .LFB0: 
 .cfi_startproc 
 pushq %rbp 
 .cfi_def_cfa_offset 16 
 .cfi_offset 6, -16 
 movq %rsp, %rbp 
 .cfi_def_cfa_register 6 
 subq $16, %rsp 
 movl $0, -4(%rbp) 
 movl $-126179, -4(%rbp) 
 movl -4(%rbp), %eax 
 movl %eax, %esi 
 movl $.LC0, %edi 
 movl $0, %eax 
 call printf 
 movl $0, %eax 
 leave 
 .cfi_def_cfa 7, 8 
 ret 
 .cfi_endproc 
 .LFE0: 
 .size main, .-main 
 .ident "GCC: (Ubuntu 5.4.0-6ubuntu1~16.04.4) 5.4.0 20160609" 
 .section .note.GNU-stack,"",@progbits 
 .file "aritmeticFile184.c" 
 .section .rodata 
 .LC0: 
 .string " a = %d" 
 .text 
 .globl main 
 .type main, @function 
 main: 
 .LFB0: 
 .cfi_startproc 
 pushq %rbp 
 .cfi_def_cfa_offset 16 
 .cfi_offset 6, -16 
 movq %rsp, %rbp 
 .cfi_def_cfa_register 6 
 subq $16, %rsp 
 movl $0, -4(%rbp) 
 movl $-1980839425, -4(%rbp) 
 movl -4(%rbp), %eax 
 movl %eax, %esi 
 movl $.LC0, %edi 
 movl $0, %eax 
 call printf 
 movl $0, %eax 
 leave 
 .cfi_def_cfa 7, 8 
 ret 
 .cfi_endproc 
 .LFE0: 
 .size main, .-main 
 .ident "GCC: (Ubuntu 5.4.0-6ubuntu1~16.04.4) 5.4.0 20160609" 
 .section .note.GNU-stack,"",@progbits 
 .file "aritmeticFile185.c" 
 .section .rodata 
 .LC0: 
 .string " a = %d" 
 .text 
 .globl main 
 .type main, @function 
 main: 
 .LFB0: 
 .cfi_startproc 
 pushq %rbp 
 .cfi_def_cfa_offset 16 
 .cfi_offset 6, -16 
 movq %rsp, %rbp 
 .cfi_def_cfa_register 6 
 subq $16, %rsp 
 movl $0, -4(%rbp) 
 movl $-1682985, -4(%rbp) 
 movl -4(%rbp), %eax 
 movl %eax, %esi 
 movl $.LC0, %edi 
 movl $0, %eax 
 call printf 
 movl $0, %eax 
 leave 
 .cfi_def_cfa 7, 8 
 ret 
 .cfi_endproc 
 .LFE0: 
 .size main, .-main 
 .ident "GCC: (Ubuntu 5.4.0-6ubuntu1~16.04.4) 5.4.0 20160609" 
 .section .note.GNU-stack,"",@progbits 
 .file "aritmeticFile186.c" 
 .section .rodata 
 .LC0: 
 .string " a = %d" 
 .text 
 .globl main 
 .type main, @function 
 main: 
 .LFB0: 
 .cfi_startproc 
 pushq %rbp 
 .cfi_def_cfa_offset 16 
 .cfi_offset 6, -16 
 movq %rsp, %rbp 
 .cfi_def_cfa_register 6 
 subq $16, %rsp 
 movl $0, -4(%rbp) 
 movl $343857682, -4(%rbp) 
 movl -4(%rbp), %eax 
 movl %eax, %esi 
 movl $.LC0, %edi 
 movl $0, %eax 
 call printf 
 movl $0, %eax 
 leave 
 .cfi_def_cfa 7, 8 
 ret 
 .cfi_endproc 
 .LFE0: 
 .size main, .-main 
 .ident "GCC: (Ubuntu 5.4.0-6ubuntu1~16.04.4) 5.4.0 20160609" 
 .section .note.GNU-stack,"",@progbits 
 .file "aritmeticFile187.c" 
 .section .rodata 
 .LC0: 
 .string " a = %d" 
 .text 
 .globl main 
 .type main, @function 
 main: 
 .LFB0: 
 .cfi_startproc 
 pushq %rbp 
 .cfi_def_cfa_offset 16 
 .cfi_offset 6, -16 
 movq %rsp, %rbp 
 .cfi_def_cfa_register 6 
 subq $16, %rsp 
 movl $0, -4(%rbp) 
 movl $-693108, -4(%rbp) 
 movl -4(%rbp), %eax 
 movl %eax, %esi 
 movl $.LC0, %edi 
 movl $0, %eax 
 call printf 
 movl $0, %eax 
 leave 
 .cfi_def_cfa 7, 8 
 ret 
 .cfi_endproc 
 .LFE0: 
 .size main, .-main 
 .ident "GCC: (Ubuntu 5.4.0-6ubuntu1~16.04.4) 5.4.0 20160609" 
 .section .note.GNU-stack,"",@progbits 
 .file "aritmeticFile188.c" 
 .section .rodata 
 .LC0: 
 .string " a = %d" 
 .text 
 .globl main 
 .type main, @function 
 main: 
 .LFB0: 
 .cfi_startproc 
 pushq %rbp 
 .cfi_def_cfa_offset 16 
 .cfi_offset 6, -16 
 movq %rsp, %rbp 
 .cfi_def_cfa_register 6 
 subq $16, %rsp 
 movl $0, -4(%rbp) 
 movl $-334463832, -4(%rbp) 
 movl -4(%rbp), %eax 
 movl %eax, %esi 
 movl $.LC0, %edi 
 movl $0, %eax 
 call printf 
 movl $0, %eax 
 leave 
 .cfi_def_cfa 7, 8 
 ret 
 .cfi_endproc 
 .LFE0: 
 .size main, .-main 
 .ident "GCC: (Ubuntu 5.4.0-6ubuntu1~16.04.4) 5.4.0 20160609" 
 .section .note.GNU-stack,"",@progbits 
 .file "aritmeticFile189.c" 
 .section .rodata 
 .LC0: 
 .string " a = %d" 
 .text 
 .globl main 
 .type main, @function 
 main: 
 .LFB0: 
 .cfi_startproc 
 pushq %rbp 
 .cfi_def_cfa_offset 16 
 .cfi_offset 6, -16 
 movq %rsp, %rbp 
 .cfi_def_cfa_register 6 
 subq $16, %rsp 
 movl $0, -4(%rbp) 
 movl $-1418681908, -4(%rbp) 
 movl -4(%rbp), %eax 
 movl %eax, %esi 
 movl $.LC0, %edi 
 movl $0, %eax 
 call printf 
 movl $0, %eax 
 leave 
 .cfi_def_cfa 7, 8 
 ret 
 .cfi_endproc 
 .LFE0: 
 .size main, .-main 
 .ident "GCC: (Ubuntu 5.4.0-6ubuntu1~16.04.4) 5.4.0 20160609" 
 .section .note.GNU-stack,"",@progbits 
 .file "aritmeticFile190.c" 
 .section .rodata 
 .LC0: 
 .string " a = %d" 
 .text 
 .globl main 
 .type main, @function 
 main: 
 .LFB0: 
 .cfi_startproc 
 pushq %rbp 
 .cfi_def_cfa_offset 16 
 .cfi_offset 6, -16 
 movq %rsp, %rbp 
 .cfi_def_cfa_register 6 
 subq $16, %rsp 
 movl $0, -4(%rbp) 
 movl $-295430849, -4(%rbp) 
 movl -4(%rbp), %eax 
 movl %eax, %esi 
 movl $.LC0, %edi 
 movl $0, %eax 
 call printf 
 movl $0, %eax 
 leave 
 .cfi_def_cfa 7, 8 
 ret 
 .cfi_endproc 
 .LFE0: 
 .size main, .-main 
 .ident "GCC: (Ubuntu 5.4.0-6ubuntu1~16.04.4) 5.4.0 20160609" 
 .section .note.GNU-stack,"",@progbits 
 .file "aritmeticFile191.c" 
 .section .rodata 
 .LC0: 
 .string " a = %d" 
 .text 
 .globl main 
 .type main, @function 
 main: 
 .LFB0: 
 .cfi_startproc 
 pushq %rbp 
 .cfi_def_cfa_offset 16 
 .cfi_offset 6, -16 
 movq %rsp, %rbp 
 .cfi_def_cfa_register 6 
 subq $16, %rsp 
 movl $0, -4(%rbp) 
 movl $162773, -4(%rbp) 
 movl -4(%rbp), %eax 
 movl %eax, %esi 
 movl $.LC0, %edi 
 movl $0, %eax 
 call printf 
 movl $0, %eax 
 leave 
 .cfi_def_cfa 7, 8 
 ret 
 .cfi_endproc 
 .LFE0: 
 .size main, .-main 
 .ident "GCC: (Ubuntu 5.4.0-6ubuntu1~16.04.4) 5.4.0 20160609" 
 .section .note.GNU-stack,"",@progbits 
 .file "aritmeticFile192.c" 
 .section .rodata 
 .LC0: 
 .string " a = %d" 
 .text 
 .globl main 
 .type main, @function 
 main: 
 .LFB0: 
 .cfi_startproc 
 pushq %rbp 
 .cfi_def_cfa_offset 16 
 .cfi_offset 6, -16 
 movq %rsp, %rbp 
 .cfi_def_cfa_register 6 
 subq $16, %rsp 
 movl $0, -4(%rbp) 
 movl $-2080, -4(%rbp) 
 movl -4(%rbp), %eax 
 movl %eax, %esi 
 movl $.LC0, %edi 
 movl $0, %eax 
 call printf 
 movl $0, %eax 
 leave 
 .cfi_def_cfa 7, 8 
 ret 
 .cfi_endproc 
 .LFE0: 
 .size main, .-main 
 .ident "GCC: (Ubuntu 5.4.0-6ubuntu1~16.04.4) 5.4.0 20160609" 
 .section .note.GNU-stack,"",@progbits 
 .file "aritmeticFile193.c" 
 .section .rodata 
 .LC0: 
 .string " a = %d" 
 .text 
 .globl main 
 .type main, @function 
 main: 
 .LFB0: 
 .cfi_startproc 
 pushq %rbp 
 .cfi_def_cfa_offset 16 
 .cfi_offset 6, -16 
 movq %rsp, %rbp 
 .cfi_def_cfa_register 6 
 subq $16, %rsp 
 movl $0, -4(%rbp) 
 movl $482629060, -4(%rbp) 
 movl -4(%rbp), %eax 
 movl %eax, %esi 
 movl $.LC0, %edi 
 movl $0, %eax 
 call printf 
 movl $0, %eax 
 leave 
 .cfi_def_cfa 7, 8 
 ret 
 .cfi_endproc 
 .LFE0: 
 .size main, .-main 
 .ident "GCC: (Ubuntu 5.4.0-6ubuntu1~16.04.4) 5.4.0 20160609" 
 .section .note.GNU-stack,"",@progbits 
 .file "aritmeticFile194.c" 
 .section .rodata 
 .LC0: 
 .string " a = %d" 
 .text 
 .globl main 
 .type main, @function 
 main: 
 .LFB0: 
 .cfi_startproc 
 pushq %rbp 
 .cfi_def_cfa_offset 16 
 .cfi_offset 6, -16 
 movq %rsp, %rbp 
 .cfi_def_cfa_register 6 
 subq $16, %rsp 
 movl $0, -4(%rbp) 
 movl $2006973052, -4(%rbp) 
 movl -4(%rbp), %eax 
 movl %eax, %esi 
 movl $.LC0, %edi 
 movl $0, %eax 
 call printf 
 movl $0, %eax 
 leave 
 .cfi_def_cfa 7, 8 
 ret 
 .cfi_endproc 
 .LFE0: 
 .size main, .-main 
 .ident "GCC: (Ubuntu 5.4.0-6ubuntu1~16.04.4) 5.4.0 20160609" 
 .section .note.GNU-stack,"",@progbits 
 .file "aritmeticFile195.c" 
 .section .rodata 
 .LC0: 
 .string " a = %d" 
 .text 
 .globl main 
 .type main, @function 
 main: 
 .LFB0: 
 .cfi_startproc 
 pushq %rbp 
 .cfi_def_cfa_offset 16 
 .cfi_offset 6, -16 
 movq %rsp, %rbp 
 .cfi_def_cfa_register 6 
 subq $16, %rsp 
 movl $0, -4(%rbp) 
 movl $1200411556, -4(%rbp) 
 movl -4(%rbp), %eax 
 movl %eax, %esi 
 movl $.LC0, %edi 
 movl $0, %eax 
 call printf 
 movl $0, %eax 
 leave 
 .cfi_def_cfa 7, 8 
 ret 
 .cfi_endproc 
 .LFE0: 
 .size main, .-main 
 .ident "GCC: (Ubuntu 5.4.0-6ubuntu1~16.04.4) 5.4.0 20160609" 
 .section .note.GNU-stack,"",@progbits 
 .file "aritmeticFile196.c" 
 .section .rodata 
 .LC0: 
 .string " a = %d" 
 .text 
 .globl main 
 .type main, @function 
 main: 
 .LFB0: 
 .cfi_startproc 
 pushq %rbp 
 .cfi_def_cfa_offset 16 
 .cfi_offset 6, -16 
 movq %rsp, %rbp 
 .cfi_def_cfa_register 6 
 subq $16, %rsp 
 movl $0, -4(%rbp) 
 movl $-227640, -4(%rbp) 
 movl -4(%rbp), %eax 
 movl %eax, %esi 
 movl $.LC0, %edi 
 movl $0, %eax 
 call printf 
 movl $0, %eax 
 leave 
 .cfi_def_cfa 7, 8 
 ret 
 .cfi_endproc 
 .LFE0: 
 .size main, .-main 
 .ident "GCC: (Ubuntu 5.4.0-6ubuntu1~16.04.4) 5.4.0 20160609" 
 .section .note.GNU-stack,"",@progbits 
 .file "aritmeticFile197.c" 
 .section .rodata 
 .LC0: 
 .string " a = %d" 
 .text 
 .globl main 
 .type main, @function 
 main: 
 .LFB0: 
 .cfi_startproc 
 pushq %rbp 
 .cfi_def_cfa_offset 16 
 .cfi_offset 6, -16 
 movq %rsp, %rbp 
 .cfi_def_cfa_register 6 
 subq $16, %rsp 
 movl $0, -4(%rbp) 
 movl $29431645, -4(%rbp) 
 movl -4(%rbp), %eax 
 movl %eax, %esi 
 movl $.LC0, %edi 
 movl $0, %eax 
 call printf 
 movl $0, %eax 
 leave 
 .cfi_def_cfa 7, 8 
 ret 
 .cfi_endproc 
 .LFE0: 
 .size main, .-main 
 .ident "GCC: (Ubuntu 5.4.0-6ubuntu1~16.04.4) 5.4.0 20160609" 
 .section .note.GNU-stack,"",@progbits 
 .file "aritmeticFile198.c" 
 .section .rodata 
 .LC0: 
 .string " a = %d" 
 .text 
 .globl main 
 .type main, @function 
 main: 
 .LFB0: 
 .cfi_startproc 
 pushq %rbp 
 .cfi_def_cfa_offset 16 
 .cfi_offset 6, -16 
 movq %rsp, %rbp 
 .cfi_def_cfa_register 6 
 subq $16, %rsp 
 movl $0, -4(%rbp) 
 movl $-72671, -4(%rbp) 
 movl -4(%rbp), %eax 
 movl %eax, %esi 
 movl $.LC0, %edi 
 movl $0, %eax 
 call printf 
 movl $0, %eax 
 leave 
 .cfi_def_cfa 7, 8 
 ret 
 .cfi_endproc 
 .LFE0: 
 .size main, .-main 
 .ident "GCC: (Ubuntu 5.4.0-6ubuntu1~16.04.4) 5.4.0 20160609" 
 .section .note.GNU-stack,"",@progbits 
 .file "aritmeticFile199.c" 
 .section .rodata 
 .LC0: 
 .string " a = %d" 
 .text 
 .globl main 
 .type main, @function 
 main: 
 .LFB0: 
 .cfi_startproc 
 pushq %rbp 
 .cfi_def_cfa_offset 16 
 .cfi_offset 6, -16 
 movq %rsp, %rbp 
 .cfi_def_cfa_register 6 
 subq $16, %rsp 
 movl $0, -4(%rbp) 
 movl $1991297544, -4(%rbp) 
 movl -4(%rbp), %eax 
 movl %eax, %esi 
 movl $.LC0, %edi 
 movl $0, %eax 
 call printf 
 movl $0, %eax 
 leave 
 .cfi_def_cfa 7, 8 
 ret 
 .cfi_endproc 
 .LFE0: 
 .size main, .-main 
 .ident "GCC: (Ubuntu 5.4.0-6ubuntu1~16.04.4) 5.4.0 20160609" 
 .section .note.GNU-stack,"",@progbits 
 .file "aritmeticFile200.c" 
 .section .rodata 
 .LC0: 
 .string " a = %d" 
 .text 
 .globl main 
 .type main, @function 
 main: 
 .LFB0: 
 .cfi_startproc 
 pushq %rbp 
 .cfi_def_cfa_offset 16 
 .cfi_offset 6, -16 
 movq %rsp, %rbp 
 .cfi_def_cfa_register 6 
 subq $16, %rsp 
 movl $0, -4(%rbp) 
 movl $-287853, -4(%rbp) 
 movl -4(%rbp), %eax 
 movl %eax, %esi 
 movl $.LC0, %edi 
 movl $0, %eax 
 call printf 
 movl $0, %eax 
 leave 
 .cfi_def_cfa 7, 8 
 ret 
 .cfi_endproc 
 .LFE0: 
 .size main, .-main 
 .ident "GCC: (Ubuntu 5.4.0-6ubuntu1~16.04.4) 5.4.0 20160609" 
 .section .note.GNU-stack,"",@progbits 
 .file "aritmeticFile201.c" 
 .section .rodata 
 .LC0: 
 .string " a = %d" 
 .text 
 .globl main 
 .type main, @function 
 main: 
 .LFB0: 
 .cfi_startproc 
 pushq %rbp 
 .cfi_def_cfa_offset 16 
 .cfi_offset 6, -16 
 movq %rsp, %rbp 
 .cfi_def_cfa_register 6 
 subq $16, %rsp 
 movl $0, -4(%rbp) 
 movl $6781499, -4(%rbp) 
 movl -4(%rbp), %eax 
 movl %eax, %esi 
 movl $.LC0, %edi 
 movl $0, %eax 
 call printf 
 movl $0, %eax 
 leave 
 .cfi_def_cfa 7, 8 
 ret 
 .cfi_endproc 
 .LFE0: 
 .size main, .-main 
 .ident "GCC: (Ubuntu 5.4.0-6ubuntu1~16.04.4) 5.4.0 20160609" 
 .section .note.GNU-stack,"",@progbits 
 .file "aritmeticFile202.c" 
 .section .rodata 
 .LC0: 
 .string " a = %d" 
 .text 
 .globl main 
 .type main, @function 
 main: 
 .LFB0: 
 .cfi_startproc 
 pushq %rbp 
 .cfi_def_cfa_offset 16 
 .cfi_offset 6, -16 
 movq %rsp, %rbp 
 .cfi_def_cfa_register 6 
 subq $16, %rsp 
 movl $0, -4(%rbp) 
 movl $-863915043, -4(%rbp) 
 movl -4(%rbp), %eax 
 movl %eax, %esi 
 movl $.LC0, %edi 
 movl $0, %eax 
 call printf 
 movl $0, %eax 
 leave 
 .cfi_def_cfa 7, 8 
 ret 
 .cfi_endproc 
 .LFE0: 
 .size main, .-main 
 .ident "GCC: (Ubuntu 5.4.0-6ubuntu1~16.04.4) 5.4.0 20160609" 
 .section .note.GNU-stack,"",@progbits 
 .file "aritmeticFile203.c" 
 .section .rodata 
 .LC0: 
 .string " a = %d" 
 .text 
 .globl main 
 .type main, @function 
 main: 
 .LFB0: 
 .cfi_startproc 
 pushq %rbp 
 .cfi_def_cfa_offset 16 
 .cfi_offset 6, -16 
 movq %rsp, %rbp 
 .cfi_def_cfa_register 6 
 subq $16, %rsp 
 movl $0, -4(%rbp) 
 movl $-20839953, -4(%rbp) 
 movl -4(%rbp), %eax 
 movl %eax, %esi 
 movl $.LC0, %edi 
 movl $0, %eax 
 call printf 
 movl $0, %eax 
 leave 
 .cfi_def_cfa 7, 8 
 ret 
 .cfi_endproc 
 .LFE0: 
 .size main, .-main 
 .ident "GCC: (Ubuntu 5.4.0-6ubuntu1~16.04.4) 5.4.0 20160609" 
 .section .note.GNU-stack,"",@progbits 
 .file "aritmeticFile204.c" 
 .section .rodata 
 .LC0: 
 .string " a = %d" 
 .text 
 .globl main 
 .type main, @function 
 main: 
 .LFB0: 
 .cfi_startproc 
 pushq %rbp 
 .cfi_def_cfa_offset 16 
 .cfi_offset 6, -16 
 movq %rsp, %rbp 
 .cfi_def_cfa_register 6 
 subq $16, %rsp 
 movl $0, -4(%rbp) 
 movl $-181047533, -4(%rbp) 
 movl -4(%rbp), %eax 
 movl %eax, %esi 
 movl $.LC0, %edi 
 movl $0, %eax 
 call printf 
 movl $0, %eax 
 leave 
 .cfi_def_cfa 7, 8 
 ret 
 .cfi_endproc 
 .LFE0: 
 .size main, .-main 
 .ident "GCC: (Ubuntu 5.4.0-6ubuntu1~16.04.4) 5.4.0 20160609" 
 .section .note.GNU-stack,"",@progbits 
 .file "aritmeticFile205.c" 
 .section .rodata 
 .LC0: 
 .string " a = %d" 
 .text 
 .globl main 
 .type main, @function 
 main: 
 .LFB0: 
 .cfi_startproc 
 pushq %rbp 
 .cfi_def_cfa_offset 16 
 .cfi_offset 6, -16 
 movq %rsp, %rbp 
 .cfi_def_cfa_register 6 
 subq $16, %rsp 
 movl $0, -4(%rbp) 
 movl $318929846, -4(%rbp) 
 movl -4(%rbp), %eax 
 movl %eax, %esi 
 movl $.LC0, %edi 
 movl $0, %eax 
 call printf 
 movl $0, %eax 
 leave 
 .cfi_def_cfa 7, 8 
 ret 
 .cfi_endproc 
 .LFE0: 
 .size main, .-main 
 .ident "GCC: (Ubuntu 5.4.0-6ubuntu1~16.04.4) 5.4.0 20160609" 
 .section .note.GNU-stack,"",@progbits 
 .file "aritmeticFile206.c" 
 .section .rodata 
 .LC0: 
 .string " a = %d" 
 .text 
 .globl main 
 .type main, @function 
 main: 
 .LFB0: 
 .cfi_startproc 
 pushq %rbp 
 .cfi_def_cfa_offset 16 
 .cfi_offset 6, -16 
 movq %rsp, %rbp 
 .cfi_def_cfa_register 6 
 subq $16, %rsp 
 movl $0, -4(%rbp) 
 movl $1051804, -4(%rbp) 
 movl -4(%rbp), %eax 
 movl %eax, %esi 
 movl $.LC0, %edi 
 movl $0, %eax 
 call printf 
 movl $0, %eax 
 leave 
 .cfi_def_cfa 7, 8 
 ret 
 .cfi_endproc 
 .LFE0: 
 .size main, .-main 
 .ident "GCC: (Ubuntu 5.4.0-6ubuntu1~16.04.4) 5.4.0 20160609" 
 .section .note.GNU-stack,"",@progbits 
 .file "aritmeticFile207.c" 
 .section .rodata 
 .LC0: 
 .string " a = %d" 
 .text 
 .globl main 
 .type main, @function 
 main: 
 .LFB0: 
 .cfi_startproc 
 pushq %rbp 
 .cfi_def_cfa_offset 16 
 .cfi_offset 6, -16 
 movq %rsp, %rbp 
 .cfi_def_cfa_register 6 
 subq $16, %rsp 
 movl $0, -4(%rbp) 
 movl $77588968, -4(%rbp) 
 movl -4(%rbp), %eax 
 movl %eax, %esi 
 movl $.LC0, %edi 
 movl $0, %eax 
 call printf 
 movl $0, %eax 
 leave 
 .cfi_def_cfa 7, 8 
 ret 
 .cfi_endproc 
 .LFE0: 
 .size main, .-main 
 .ident "GCC: (Ubuntu 5.4.0-6ubuntu1~16.04.4) 5.4.0 20160609" 
 .section .note.GNU-stack,"",@progbits 
 .file "aritmeticFile208.c" 
 .section .rodata 
 .LC0: 
 .string " a = %d" 
 .text 
 .globl main 
 .type main, @function 
 main: 
 .LFB0: 
 .cfi_startproc 
 pushq %rbp 
 .cfi_def_cfa_offset 16 
 .cfi_offset 6, -16 
 movq %rsp, %rbp 
 .cfi_def_cfa_register 6 
 subq $16, %rsp 
 movl $0, -4(%rbp) 
 movl $-534285, -4(%rbp) 
 movl -4(%rbp), %eax 
 movl %eax, %esi 
 movl $.LC0, %edi 
 movl $0, %eax 
 call printf 
 movl $0, %eax 
 leave 
 .cfi_def_cfa 7, 8 
 ret 
 .cfi_endproc 
 .LFE0: 
 .size main, .-main 
 .ident "GCC: (Ubuntu 5.4.0-6ubuntu1~16.04.4) 5.4.0 20160609" 
 .section .note.GNU-stack,"",@progbits 
 .file "aritmeticFile209.c" 
 .section .rodata 
 .LC0: 
 .string " a = %d" 
 .text 
 .globl main 
 .type main, @function 
 main: 
 .LFB0: 
 .cfi_startproc 
 pushq %rbp 
 .cfi_def_cfa_offset 16 
 .cfi_offset 6, -16 
 movq %rsp, %rbp 
 .cfi_def_cfa_register 6 
 subq $16, %rsp 
 movl $0, -4(%rbp) 
 movl $-88264178, -4(%rbp) 
 movl -4(%rbp), %eax 
 movl %eax, %esi 
 movl $.LC0, %edi 
 movl $0, %eax 
 call printf 
 movl $0, %eax 
 leave 
 .cfi_def_cfa 7, 8 
 ret 
 .cfi_endproc 
 .LFE0: 
 .size main, .-main 
 .ident "GCC: (Ubuntu 5.4.0-6ubuntu1~16.04.4) 5.4.0 20160609" 
 .section .note.GNU-stack,"",@progbits 
 .file "aritmeticFile210.c" 
 .section .rodata 
 .LC0: 
 .string " a = %d" 
 .text 
 .globl main 
 .type main, @function 
 main: 
 .LFB0: 
 .cfi_startproc 
 pushq %rbp 
 .cfi_def_cfa_offset 16 
 .cfi_offset 6, -16 
 movq %rsp, %rbp 
 .cfi_def_cfa_register 6 
 subq $16, %rsp 
 movl $0, -4(%rbp) 
 movl $82261305, -4(%rbp) 
 movl -4(%rbp), %eax 
 movl %eax, %esi 
 movl $.LC0, %edi 
 movl $0, %eax 
 call printf 
 movl $0, %eax 
 leave 
 .cfi_def_cfa 7, 8 
 ret 
 .cfi_endproc 
 .LFE0: 
 .size main, .-main 
 .ident "GCC: (Ubuntu 5.4.0-6ubuntu1~16.04.4) 5.4.0 20160609" 
 .section .note.GNU-stack,"",@progbits 
 .file "aritmeticFile211.c" 
 .section .rodata 
 .LC0: 
 .string " a = %d" 
 .text 
 .globl main 
 .type main, @function 
 main: 
 .LFB0: 
 .cfi_startproc 
 pushq %rbp 
 .cfi_def_cfa_offset 16 
 .cfi_offset 6, -16 
 movq %rsp, %rbp 
 .cfi_def_cfa_register 6 
 subq $16, %rsp 
 movl $0, -4(%rbp) 
 movl $-34129, -4(%rbp) 
 movl -4(%rbp), %eax 
 movl %eax, %esi 
 movl $.LC0, %edi 
 movl $0, %eax 
 call printf 
 movl $0, %eax 
 leave 
 .cfi_def_cfa 7, 8 
 ret 
 .cfi_endproc 
 .LFE0: 
 .size main, .-main 
 .ident "GCC: (Ubuntu 5.4.0-6ubuntu1~16.04.4) 5.4.0 20160609" 
 .section .note.GNU-stack,"",@progbits 
 .file "aritmeticFile212.c" 
 .section .rodata 
 .LC0: 
 .string " a = %d" 
 .text 
 .globl main 
 .type main, @function 
 main: 
 .LFB0: 
 .cfi_startproc 
 pushq %rbp 
 .cfi_def_cfa_offset 16 
 .cfi_offset 6, -16 
 movq %rsp, %rbp 
 .cfi_def_cfa_register 6 
 subq $16, %rsp 
 movl $0, -4(%rbp) 
 movl $699790, -4(%rbp) 
 movl -4(%rbp), %eax 
 movl %eax, %esi 
 movl $.LC0, %edi 
 movl $0, %eax 
 call printf 
 movl $0, %eax 
 leave 
 .cfi_def_cfa 7, 8 
 ret 
 .cfi_endproc 
 .LFE0: 
 .size main, .-main 
 .ident "GCC: (Ubuntu 5.4.0-6ubuntu1~16.04.4) 5.4.0 20160609" 
 .section .note.GNU-stack,"",@progbits 
 .file "aritmeticFile213.c" 
 .section .rodata 
 .LC0: 
 .string " a = %d" 
 .text 
 .globl main 
 .type main, @function 
 main: 
 .LFB0: 
 .cfi_startproc 
 pushq %rbp 
 .cfi_def_cfa_offset 16 
 .cfi_offset 6, -16 
 movq %rsp, %rbp 
 .cfi_def_cfa_register 6 
 subq $16, %rsp 
 movl $0, -4(%rbp) 
 movl $65, -4(%rbp) 
 movl -4(%rbp), %eax 
 movl %eax, %esi 
 movl $.LC0, %edi 
 movl $0, %eax 
 call printf 
 movl $0, %eax 
 leave 
 .cfi_def_cfa 7, 8 
 ret 
 .cfi_endproc 
 .LFE0: 
 .size main, .-main 
 .ident "GCC: (Ubuntu 5.4.0-6ubuntu1~16.04.4) 5.4.0 20160609" 
 .section .note.GNU-stack,"",@progbits 
 .file "aritmeticFile214.c" 
 .section .rodata 
 .LC0: 
 .string " a = %d" 
 .text 
 .globl main 
 .type main, @function 
 main: 
 .LFB0: 
 .cfi_startproc 
 pushq %rbp 
 .cfi_def_cfa_offset 16 
 .cfi_offset 6, -16 
 movq %rsp, %rbp 
 .cfi_def_cfa_register 6 
 subq $16, %rsp 
 movl $0, -4(%rbp) 
 movl $5151559, -4(%rbp) 
 movl -4(%rbp), %eax 
 movl %eax, %esi 
 movl $.LC0, %edi 
 movl $0, %eax 
 call printf 
 movl $0, %eax 
 leave 
 .cfi_def_cfa 7, 8 
 ret 
 .cfi_endproc 
 .LFE0: 
 .size main, .-main 
 .ident "GCC: (Ubuntu 5.4.0-6ubuntu1~16.04.4) 5.4.0 20160609" 
 .section .note.GNU-stack,"",@progbits 
 .file "aritmeticFile215.c" 
 .section .rodata 
 .LC0: 
 .string " a = %d" 
 .text 
 .globl main 
 .type main, @function 
 main: 
 .LFB0: 
 .cfi_startproc 
 pushq %rbp 
 .cfi_def_cfa_offset 16 
 .cfi_offset 6, -16 
 movq %rsp, %rbp 
 .cfi_def_cfa_register 6 
 subq $16, %rsp 
 movl $0, -4(%rbp) 
 movl $430989, -4(%rbp) 
 movl -4(%rbp), %eax 
 movl %eax, %esi 
 movl $.LC0, %edi 
 movl $0, %eax 
 call printf 
 movl $0, %eax 
 leave 
 .cfi_def_cfa 7, 8 
 ret 
 .cfi_endproc 
 .LFE0: 
 .size main, .-main 
 .ident "GCC: (Ubuntu 5.4.0-6ubuntu1~16.04.4) 5.4.0 20160609" 
 .section .note.GNU-stack,"",@progbits 
 .file "aritmeticFile216.c" 
 .section .rodata 
 .LC0: 
 .string " a = %d" 
 .text 
 .globl main 
 .type main, @function 
 main: 
 .LFB0: 
 .cfi_startproc 
 pushq %rbp 
 .cfi_def_cfa_offset 16 
 .cfi_offset 6, -16 
 movq %rsp, %rbp 
 .cfi_def_cfa_register 6 
 subq $16, %rsp 
 movl $0, -4(%rbp) 
 movl $-7751, -4(%rbp) 
 movl -4(%rbp), %eax 
 movl %eax, %esi 
 movl $.LC0, %edi 
 movl $0, %eax 
 call printf 
 movl $0, %eax 
 leave 
 .cfi_def_cfa 7, 8 
 ret 
 .cfi_endproc 
 .LFE0: 
 .size main, .-main 
 .ident "GCC: (Ubuntu 5.4.0-6ubuntu1~16.04.4) 5.4.0 20160609" 
 .section .note.GNU-stack,"",@progbits 
 .file "aritmeticFile217.c" 
 .section .rodata 
 .LC0: 
 .string " a = %d" 
 .text 
 .globl main 
 .type main, @function 
 main: 
 .LFB0: 
 .cfi_startproc 
 pushq %rbp 
 .cfi_def_cfa_offset 16 
 .cfi_offset 6, -16 
 movq %rsp, %rbp 
 .cfi_def_cfa_register 6 
 subq $16, %rsp 
 movl $0, -4(%rbp) 
 movl $40800, -4(%rbp) 
 movl -4(%rbp), %eax 
 movl %eax, %esi 
 movl $.LC0, %edi 
 movl $0, %eax 
 call printf 
 movl $0, %eax 
 leave 
 .cfi_def_cfa 7, 8 
 ret 
 .cfi_endproc 
 .LFE0: 
 .size main, .-main 
 .ident "GCC: (Ubuntu 5.4.0-6ubuntu1~16.04.4) 5.4.0 20160609" 
 .section .note.GNU-stack,"",@progbits 
 .file "aritmeticFile218.c" 
 .section .rodata 
 .LC0: 
 .string " a = %d" 
 .text 
 .globl main 
 .type main, @function 
 main: 
 .LFB0: 
 .cfi_startproc 
 pushq %rbp 
 .cfi_def_cfa_offset 16 
 .cfi_offset 6, -16 
 movq %rsp, %rbp 
 .cfi_def_cfa_register 6 
 subq $16, %rsp 
 movl $0, -4(%rbp) 
 movl $980, -4(%rbp) 
 movl -4(%rbp), %eax 
 movl %eax, %esi 
 movl $.LC0, %edi 
 movl $0, %eax 
 call printf 
 movl $0, %eax 
 leave 
 .cfi_def_cfa 7, 8 
 ret 
 .cfi_endproc 
 .LFE0: 
 .size main, .-main 
 .ident "GCC: (Ubuntu 5.4.0-6ubuntu1~16.04.4) 5.4.0 20160609" 
 .section .note.GNU-stack,"",@progbits 
 .file "aritmeticFile219.c" 
 .section .rodata 
 .LC0: 
 .string " a = %d" 
 .text 
 .globl main 
 .type main, @function 
 main: 
 .LFB0: 
 .cfi_startproc 
 pushq %rbp 
 .cfi_def_cfa_offset 16 
 .cfi_offset 6, -16 
 movq %rsp, %rbp 
 .cfi_def_cfa_register 6 
 subq $16, %rsp 
 movl $0, -4(%rbp) 
 movl $-4651, -4(%rbp) 
 movl -4(%rbp), %eax 
 movl %eax, %esi 
 movl $.LC0, %edi 
 movl $0, %eax 
 call printf 
 movl $0, %eax 
 leave 
 .cfi_def_cfa 7, 8 
 ret 
 .cfi_endproc 
 .LFE0: 
 .size main, .-main 
 .ident "GCC: (Ubuntu 5.4.0-6ubuntu1~16.04.4) 5.4.0 20160609" 
 .section .note.GNU-stack,"",@progbits 
 .file "aritmeticFile220.c" 
 .section .rodata 
 .LC0: 
 .string " a = %d" 
 .text 
 .globl main 
 .type main, @function 
 main: 
 .LFB0: 
 .cfi_startproc 
 pushq %rbp 
 .cfi_def_cfa_offset 16 
 .cfi_offset 6, -16 
 movq %rsp, %rbp 
 .cfi_def_cfa_register 6 
 subq $16, %rsp 
 movl $0, -4(%rbp) 
 movl $57264417, -4(%rbp) 
 movl -4(%rbp), %eax 
 movl %eax, %esi 
 movl $.LC0, %edi 
 movl $0, %eax 
 call printf 
 movl $0, %eax 
 leave 
 .cfi_def_cfa 7, 8 
 ret 
 .cfi_endproc 
 .LFE0: 
 .size main, .-main 
 .ident "GCC: (Ubuntu 5.4.0-6ubuntu1~16.04.4) 5.4.0 20160609" 
 .section .note.GNU-stack,"",@progbits 
 .file "aritmeticFile221.c" 
 .section .rodata 
 .LC0: 
 .string " a = %d" 
 .text 
 .globl main 
 .type main, @function 
 main: 
 .LFB0: 
 .cfi_startproc 
 pushq %rbp 
 .cfi_def_cfa_offset 16 
 .cfi_offset 6, -16 
 movq %rsp, %rbp 
 .cfi_def_cfa_register 6 
 subq $16, %rsp 
 movl $0, -4(%rbp) 
 movl $708008358, -4(%rbp) 
 movl -4(%rbp), %eax 
 movl %eax, %esi 
 movl $.LC0, %edi 
 movl $0, %eax 
 call printf 
 movl $0, %eax 
 leave 
 .cfi_def_cfa 7, 8 
 ret 
 .cfi_endproc 
 .LFE0: 
 .size main, .-main 
 .ident "GCC: (Ubuntu 5.4.0-6ubuntu1~16.04.4) 5.4.0 20160609" 
 .section .note.GNU-stack,"",@progbits 
 .file "aritmeticFile222.c" 
 .section .rodata 
 .LC0: 
 .string " a = %d" 
 .text 
 .globl main 
 .type main, @function 
 main: 
 .LFB0: 
 .cfi_startproc 
 pushq %rbp 
 .cfi_def_cfa_offset 16 
 .cfi_offset 6, -16 
 movq %rsp, %rbp 
 .cfi_def_cfa_register 6 
 subq $16, %rsp 
 movl $0, -4(%rbp) 
 movl $-780038294, -4(%rbp) 
 movl -4(%rbp), %eax 
 movl %eax, %esi 
 movl $.LC0, %edi 
 movl $0, %eax 
 call printf 
 movl $0, %eax 
 leave 
 .cfi_def_cfa 7, 8 
 ret 
 .cfi_endproc 
 .LFE0: 
 .size main, .-main 
 .ident "GCC: (Ubuntu 5.4.0-6ubuntu1~16.04.4) 5.4.0 20160609" 
 .section .note.GNU-stack,"",@progbits 
 .file "aritmeticFile223.c" 
 .section .rodata 
 .LC0: 
 .string " a = %d" 
 .text 
 .globl main 
 .type main, @function 
 main: 
 .LFB0: 
 .cfi_startproc 
 pushq %rbp 
 .cfi_def_cfa_offset 16 
 .cfi_offset 6, -16 
 movq %rsp, %rbp 
 .cfi_def_cfa_register 6 
 subq $16, %rsp 
 movl $0, -4(%rbp) 
 movl $10662353, -4(%rbp) 
 movl -4(%rbp), %eax 
 movl %eax, %esi 
 movl $.LC0, %edi 
 movl $0, %eax 
 call printf 
 movl $0, %eax 
 leave 
 .cfi_def_cfa 7, 8 
 ret 
 .cfi_endproc 
 .LFE0: 
 .size main, .-main 
 .ident "GCC: (Ubuntu 5.4.0-6ubuntu1~16.04.4) 5.4.0 20160609" 
 .section .note.GNU-stack,"",@progbits 
 .file "aritmeticFile224.c" 
 .section .rodata 
 .LC0: 
 .string " a = %d" 
 .text 
 .globl main 
 .type main, @function 
 main: 
 .LFB0: 
 .cfi_startproc 
 pushq %rbp 
 .cfi_def_cfa_offset 16 
 .cfi_offset 6, -16 
 movq %rsp, %rbp 
 .cfi_def_cfa_register 6 
 subq $16, %rsp 
 movl $0, -4(%rbp) 
 movl $-2105, -4(%rbp) 
 movl -4(%rbp), %eax 
 movl %eax, %esi 
 movl $.LC0, %edi 
 movl $0, %eax 
 call printf 
 movl $0, %eax 
 leave 
 .cfi_def_cfa 7, 8 
 ret 
 .cfi_endproc 
 .LFE0: 
 .size main, .-main 
 .ident "GCC: (Ubuntu 5.4.0-6ubuntu1~16.04.4) 5.4.0 20160609" 
 .section .note.GNU-stack,"",@progbits 
 .file "aritmeticFile225.c" 
 .section .rodata 
 .LC0: 
 .string " a = %d" 
 .text 
 .globl main 
 .type main, @function 
 main: 
 .LFB0: 
 .cfi_startproc 
 pushq %rbp 
 .cfi_def_cfa_offset 16 
 .cfi_offset 6, -16 
 movq %rsp, %rbp 
 .cfi_def_cfa_register 6 
 subq $16, %rsp 
 movl $0, -4(%rbp) 
 movl $53709, -4(%rbp) 
 movl -4(%rbp), %eax 
 movl %eax, %esi 
 movl $.LC0, %edi 
 movl $0, %eax 
 call printf 
 movl $0, %eax 
 leave 
 .cfi_def_cfa 7, 8 
 ret 
 .cfi_endproc 
 .LFE0: 
 .size main, .-main 
 .ident "GCC: (Ubuntu 5.4.0-6ubuntu1~16.04.4) 5.4.0 20160609" 
 .section .note.GNU-stack,"",@progbits 
 .file "aritmeticFile226.c" 
 .section .rodata 
 .LC0: 
 .string " a = %d" 
 .text 
 .globl main 
 .type main, @function 
 main: 
 .LFB0: 
 .cfi_startproc 
 pushq %rbp 
 .cfi_def_cfa_offset 16 
 .cfi_offset 6, -16 
 movq %rsp, %rbp 
 .cfi_def_cfa_register 6 
 subq $16, %rsp 
 movl $0, -4(%rbp) 
 movl $-626642, -4(%rbp) 
 movl -4(%rbp), %eax 
 movl %eax, %esi 
 movl $.LC0, %edi 
 movl $0, %eax 
 call printf 
 movl $0, %eax 
 leave 
 .cfi_def_cfa 7, 8 
 ret 
 .cfi_endproc 
 .LFE0: 
 .size main, .-main 
 .ident "GCC: (Ubuntu 5.4.0-6ubuntu1~16.04.4) 5.4.0 20160609" 
 .section .note.GNU-stack,"",@progbits 
 .file "aritmeticFile227.c" 
 .section .rodata 
 .LC0: 
 .string " a = %d" 
 .text 
 .globl main 
 .type main, @function 
 main: 
 .LFB0: 
 .cfi_startproc 
 pushq %rbp 
 .cfi_def_cfa_offset 16 
 .cfi_offset 6, -16 
 movq %rsp, %rbp 
 .cfi_def_cfa_register 6 
 subq $16, %rsp 
 movl $0, -4(%rbp) 
 movl $300917, -4(%rbp) 
 movl -4(%rbp), %eax 
 movl %eax, %esi 
 movl $.LC0, %edi 
 movl $0, %eax 
 call printf 
 movl $0, %eax 
 leave 
 .cfi_def_cfa 7, 8 
 ret 
 .cfi_endproc 
 .LFE0: 
 .size main, .-main 
 .ident "GCC: (Ubuntu 5.4.0-6ubuntu1~16.04.4) 5.4.0 20160609" 
 .section .note.GNU-stack,"",@progbits 
 .file "aritmeticFile228.c" 
 .section .rodata 
 .LC0: 
 .string " a = %d" 
 .text 
 .globl main 
 .type main, @function 
 main: 
 .LFB0: 
 .cfi_startproc 
 pushq %rbp 
 .cfi_def_cfa_offset 16 
 .cfi_offset 6, -16 
 movq %rsp, %rbp 
 .cfi_def_cfa_register 6 
 subq $16, %rsp 
 movl $0, -4(%rbp) 
 movl $645027811, -4(%rbp) 
 movl -4(%rbp), %eax 
 movl %eax, %esi 
 movl $.LC0, %edi 
 movl $0, %eax 
 call printf 
 movl $0, %eax 
 leave 
 .cfi_def_cfa 7, 8 
 ret 
 .cfi_endproc 
 .LFE0: 
 .size main, .-main 
 .ident "GCC: (Ubuntu 5.4.0-6ubuntu1~16.04.4) 5.4.0 20160609" 
 .section .note.GNU-stack,"",@progbits 
 .file "aritmeticFile229.c" 
 .section .rodata 
 .LC0: 
 .string " a = %d" 
 .text 
 .globl main 
 .type main, @function 
 main: 
 .LFB0: 
 .cfi_startproc 
 pushq %rbp 
 .cfi_def_cfa_offset 16 
 .cfi_offset 6, -16 
 movq %rsp, %rbp 
 .cfi_def_cfa_register 6 
 subq $16, %rsp 
 movl $0, -4(%rbp) 
 movl $0, -4(%rbp) 
 movl -4(%rbp), %eax 
 movl %eax, %esi 
 movl $.LC0, %edi 
 movl $0, %eax 
 call printf 
 movl $0, %eax 
 leave 
 .cfi_def_cfa 7, 8 
 ret 
 .cfi_endproc 
 .LFE0: 
 .size main, .-main 
 .ident "GCC: (Ubuntu 5.4.0-6ubuntu1~16.04.4) 5.4.0 20160609" 
 .section .note.GNU-stack,"",@progbits 
 .file "aritmeticFile230.c" 
 .section .rodata 
 .LC0: 
 .string " a = %d" 
 .text 
 .globl main 
 .type main, @function 
 main: 
 .LFB0: 
 .cfi_startproc 
 pushq %rbp 
 .cfi_def_cfa_offset 16 
 .cfi_offset 6, -16 
 movq %rsp, %rbp 
 .cfi_def_cfa_register 6 
 subq $16, %rsp 
 movl $0, -4(%rbp) 
 movl $-108405, -4(%rbp) 
 movl -4(%rbp), %eax 
 movl %eax, %esi 
 movl $.LC0, %edi 
 movl $0, %eax 
 call printf 
 movl $0, %eax 
 leave 
 .cfi_def_cfa 7, 8 
 ret 
 .cfi_endproc 
 .LFE0: 
 .size main, .-main 
 .ident "GCC: (Ubuntu 5.4.0-6ubuntu1~16.04.4) 5.4.0 20160609" 
 .section .note.GNU-stack,"",@progbits 
 .file "aritmeticFile231.c" 
 .section .rodata 
 .LC0: 
 .string " a = %d" 
 .text 
 .globl main 
 .type main, @function 
 main: 
 .LFB0: 
 .cfi_startproc 
 pushq %rbp 
 .cfi_def_cfa_offset 16 
 .cfi_offset 6, -16 
 movq %rsp, %rbp 
 .cfi_def_cfa_register 6 
 subq $16, %rsp 
 movl $0, -4(%rbp) 
 movl $424, -4(%rbp) 
 movl -4(%rbp), %eax 
 movl %eax, %esi 
 movl $.LC0, %edi 
 movl $0, %eax 
 call printf 
 movl $0, %eax 
 leave 
 .cfi_def_cfa 7, 8 
 ret 
 .cfi_endproc 
 .LFE0: 
 .size main, .-main 
 .ident "GCC: (Ubuntu 5.4.0-6ubuntu1~16.04.4) 5.4.0 20160609" 
 .section .note.GNU-stack,"",@progbits 
 .file "aritmeticFile232.c" 
 .section .rodata 
 .LC0: 
 .string " a = %d" 
 .text 
 .globl main 
 .type main, @function 
 main: 
 .LFB0: 
 .cfi_startproc 
 pushq %rbp 
 .cfi_def_cfa_offset 16 
 .cfi_offset 6, -16 
 movq %rsp, %rbp 
 .cfi_def_cfa_register 6 
 subq $16, %rsp 
 movl $0, -4(%rbp) 
 movl $81, -4(%rbp) 
 movl -4(%rbp), %eax 
 movl %eax, %esi 
 movl $.LC0, %edi 
 movl $0, %eax 
 call printf 
 movl $0, %eax 
 leave 
 .cfi_def_cfa 7, 8 
 ret 
 .cfi_endproc 
 .LFE0: 
 .size main, .-main 
 .ident "GCC: (Ubuntu 5.4.0-6ubuntu1~16.04.4) 5.4.0 20160609" 
 .section .note.GNU-stack,"",@progbits 
 .file "aritmeticFile233.c" 
 .section .rodata 
 .LC0: 
 .string " a = %d" 
 .text 
 .globl main 
 .type main, @function 
 main: 
 .LFB0: 
 .cfi_startproc 
 pushq %rbp 
 .cfi_def_cfa_offset 16 
 .cfi_offset 6, -16 
 movq %rsp, %rbp 
 .cfi_def_cfa_register 6 
 subq $16, %rsp 
 movl $0, -4(%rbp) 
 movl $3992264, -4(%rbp) 
 movl -4(%rbp), %eax 
 movl %eax, %esi 
 movl $.LC0, %edi 
 movl $0, %eax 
 call printf 
 movl $0, %eax 
 leave 
 .cfi_def_cfa 7, 8 
 ret 
 .cfi_endproc 
 .LFE0: 
 .size main, .-main 
 .ident "GCC: (Ubuntu 5.4.0-6ubuntu1~16.04.4) 5.4.0 20160609" 
 .section .note.GNU-stack,"",@progbits 
 .file "aritmeticFile234.c" 
 .section .rodata 
 .LC0: 
 .string " a = %d" 
 .text 
 .globl main 
 .type main, @function 
 main: 
 .LFB0: 
 .cfi_startproc 
 pushq %rbp 
 .cfi_def_cfa_offset 16 
 .cfi_offset 6, -16 
 movq %rsp, %rbp 
 .cfi_def_cfa_register 6 
 subq $16, %rsp 
 movl $0, -4(%rbp) 
 movl $285698614, -4(%rbp) 
 movl -4(%rbp), %eax 
 movl %eax, %esi 
 movl $.LC0, %edi 
 movl $0, %eax 
 call printf 
 movl $0, %eax 
 leave 
 .cfi_def_cfa 7, 8 
 ret 
 .cfi_endproc 
 .LFE0: 
 .size main, .-main 
 .ident "GCC: (Ubuntu 5.4.0-6ubuntu1~16.04.4) 5.4.0 20160609" 
 .section .note.GNU-stack,"",@progbits 
 .file "aritmeticFile235.c" 
 .section .rodata 
 .LC0: 
 .string " a = %d" 
 .text 
 .globl main 
 .type main, @function 
 main: 
 .LFB0: 
 .cfi_startproc 
 pushq %rbp 
 .cfi_def_cfa_offset 16 
 .cfi_offset 6, -16 
 movq %rsp, %rbp 
 .cfi_def_cfa_register 6 
 subq $16, %rsp 
 movl $0, -4(%rbp) 
 movl $83940, -4(%rbp) 
 movl -4(%rbp), %eax 
 movl %eax, %esi 
 movl $.LC0, %edi 
 movl $0, %eax 
 call printf 
 movl $0, %eax 
 leave 
 .cfi_def_cfa 7, 8 
 ret 
 .cfi_endproc 
 .LFE0: 
 .size main, .-main 
 .ident "GCC: (Ubuntu 5.4.0-6ubuntu1~16.04.4) 5.4.0 20160609" 
 .section .note.GNU-stack,"",@progbits 
 .file "aritmeticFile236.c" 
 .section .rodata 
 .LC0: 
 .string " a = %d" 
 .text 
 .globl main 
 .type main, @function 
 main: 
 .LFB0: 
 .cfi_startproc 
 pushq %rbp 
 .cfi_def_cfa_offset 16 
 .cfi_offset 6, -16 
 movq %rsp, %rbp 
 .cfi_def_cfa_register 6 
 subq $16, %rsp 
 movl $0, -4(%rbp) 
 movl $-2070490201, -4(%rbp) 
 movl -4(%rbp), %eax 
 movl %eax, %esi 
 movl $.LC0, %edi 
 movl $0, %eax 
 call printf 
 movl $0, %eax 
 leave 
 .cfi_def_cfa 7, 8 
 ret 
 .cfi_endproc 
 .LFE0: 
 .size main, .-main 
 .ident "GCC: (Ubuntu 5.4.0-6ubuntu1~16.04.4) 5.4.0 20160609" 
 .section .note.GNU-stack,"",@progbits 
 .file "aritmeticFile237.c" 
 .section .rodata 
 .LC0: 
 .string " a = %d" 
 .text 
 .globl main 
 .type main, @function 
 main: 
 .LFB0: 
 .cfi_startproc 
 pushq %rbp 
 .cfi_def_cfa_offset 16 
 .cfi_offset 6, -16 
 movq %rsp, %rbp 
 .cfi_def_cfa_register 6 
 subq $16, %rsp 
 movl $0, -4(%rbp) 
 movl $-298514983, -4(%rbp) 
 movl -4(%rbp), %eax 
 movl %eax, %esi 
 movl $.LC0, %edi 
 movl $0, %eax 
 call printf 
 movl $0, %eax 
 leave 
 .cfi_def_cfa 7, 8 
 ret 
 .cfi_endproc 
 .LFE0: 
 .size main, .-main 
 .ident "GCC: (Ubuntu 5.4.0-6ubuntu1~16.04.4) 5.4.0 20160609" 
 .section .note.GNU-stack,"",@progbits 
 .file "aritmeticFile238.c" 
 .section .rodata 
 .LC0: 
 .string " a = %d" 
 .text 
 .globl main 
 .type main, @function 
 main: 
 .LFB0: 
 .cfi_startproc 
 pushq %rbp 
 .cfi_def_cfa_offset 16 
 .cfi_offset 6, -16 
 movq %rsp, %rbp 
 .cfi_def_cfa_register 6 
 subq $16, %rsp 
 movl $0, -4(%rbp) 
 movl $448164, -4(%rbp) 
 movl -4(%rbp), %eax 
 movl %eax, %esi 
 movl $.LC0, %edi 
 movl $0, %eax 
 call printf 
 movl $0, %eax 
 leave 
 .cfi_def_cfa 7, 8 
 ret 
 .cfi_endproc 
 .LFE0: 
 .size main, .-main 
 .ident "GCC: (Ubuntu 5.4.0-6ubuntu1~16.04.4) 5.4.0 20160609" 
 .section .note.GNU-stack,"",@progbits 
 .file "aritmeticFile239.c" 
 .section .rodata 
 .LC0: 
 .string " a = %d" 
 .text 
 .globl main 
 .type main, @function 
 main: 
 .LFB0: 
 .cfi_startproc 
 pushq %rbp 
 .cfi_def_cfa_offset 16 
 .cfi_offset 6, -16 
 movq %rsp, %rbp 
 .cfi_def_cfa_register 6 
 subq $16, %rsp 
 movl $0, -4(%rbp) 
 movl $104219821, -4(%rbp) 
 movl -4(%rbp), %eax 
 movl %eax, %esi 
 movl $.LC0, %edi 
 movl $0, %eax 
 call printf 
 movl $0, %eax 
 leave 
 .cfi_def_cfa 7, 8 
 ret 
 .cfi_endproc 
 .LFE0: 
 .size main, .-main 
 .ident "GCC: (Ubuntu 5.4.0-6ubuntu1~16.04.4) 5.4.0 20160609" 
 .section .note.GNU-stack,"",@progbits 
 .file "aritmeticFile240.c" 
 .section .rodata 
 .LC0: 
 .string " a = %d" 
 .text 
 .globl main 
 .type main, @function 
 main: 
 .LFB0: 
 .cfi_startproc 
 pushq %rbp 
 .cfi_def_cfa_offset 16 
 .cfi_offset 6, -16 
 movq %rsp, %rbp 
 .cfi_def_cfa_register 6 
 subq $16, %rsp 
 movl $0, -4(%rbp) 
 movl $171820, -4(%rbp) 
 movl -4(%rbp), %eax 
 movl %eax, %esi 
 movl $.LC0, %edi 
 movl $0, %eax 
 call printf 
 movl $0, %eax 
 leave 
 .cfi_def_cfa 7, 8 
 ret 
 .cfi_endproc 
 .LFE0: 
 .size main, .-main 
 .ident "GCC: (Ubuntu 5.4.0-6ubuntu1~16.04.4) 5.4.0 20160609" 
 .section .note.GNU-stack,"",@progbits 
 .file "aritmeticFile241.c" 
 .section .rodata 
 .LC0: 
 .string " a = %d" 
 .text 
 .globl main 
 .type main, @function 
 main: 
 .LFB0: 
 .cfi_startproc 
 pushq %rbp 
 .cfi_def_cfa_offset 16 
 .cfi_offset 6, -16 
 movq %rsp, %rbp 
 .cfi_def_cfa_register 6 
 subq $16, %rsp 
 movl $0, -4(%rbp) 
 movl $277301, -4(%rbp) 
 movl -4(%rbp), %eax 
 movl %eax, %esi 
 movl $.LC0, %edi 
 movl $0, %eax 
 call printf 
 movl $0, %eax 
 leave 
 .cfi_def_cfa 7, 8 
 ret 
 .cfi_endproc 
 .LFE0: 
 .size main, .-main 
 .ident "GCC: (Ubuntu 5.4.0-6ubuntu1~16.04.4) 5.4.0 20160609" 
 .section .note.GNU-stack,"",@progbits 
 .file "aritmeticFile242.c" 
 .section .rodata 
 .LC0: 
 .string " a = %d" 
 .text 
 .globl main 
 .type main, @function 
 main: 
 .LFB0: 
 .cfi_startproc 
 pushq %rbp 
 .cfi_def_cfa_offset 16 
 .cfi_offset 6, -16 
 movq %rsp, %rbp 
 .cfi_def_cfa_register 6 
 subq $16, %rsp 
 movl $0, -4(%rbp) 
 movl $-409579, -4(%rbp) 
 movl -4(%rbp), %eax 
 movl %eax, %esi 
 movl $.LC0, %edi 
 movl $0, %eax 
 call printf 
 movl $0, %eax 
 leave 
 .cfi_def_cfa 7, 8 
 ret 
 .cfi_endproc 
 .LFE0: 
 .size main, .-main 
 .ident "GCC: (Ubuntu 5.4.0-6ubuntu1~16.04.4) 5.4.0 20160609" 
 .section .note.GNU-stack,"",@progbits 
 .file "aritmeticFile243.c" 
 .section .rodata 
 .LC0: 
 .string " a = %d" 
 .text 
 .globl main 
 .type main, @function 
 main: 
 .LFB0: 
 .cfi_startproc 
 pushq %rbp 
 .cfi_def_cfa_offset 16 
 .cfi_offset 6, -16 
 movq %rsp, %rbp 
 .cfi_def_cfa_register 6 
 subq $16, %rsp 
 movl $0, -4(%rbp) 
 movl $-2706827, -4(%rbp) 
 movl -4(%rbp), %eax 
 movl %eax, %esi 
 movl $.LC0, %edi 
 movl $0, %eax 
 call printf 
 movl $0, %eax 
 leave 
 .cfi_def_cfa 7, 8 
 ret 
 .cfi_endproc 
 .LFE0: 
 .size main, .-main 
 .ident "GCC: (Ubuntu 5.4.0-6ubuntu1~16.04.4) 5.4.0 20160609" 
 .section .note.GNU-stack,"",@progbits 
 .file "aritmeticFile244.c" 
 .section .rodata 
 .LC0: 
 .string " a = %d" 
 .text 
 .globl main 
 .type main, @function 
 main: 
 .LFB0: 
 .cfi_startproc 
 pushq %rbp 
 .cfi_def_cfa_offset 16 
 .cfi_offset 6, -16 
 movq %rsp, %rbp 
 .cfi_def_cfa_register 6 
 subq $16, %rsp 
 movl $0, -4(%rbp) 
 movl $5600, -4(%rbp) 
 movl -4(%rbp), %eax 
 movl %eax, %esi 
 movl $.LC0, %edi 
 movl $0, %eax 
 call printf 
 movl $0, %eax 
 leave 
 .cfi_def_cfa 7, 8 
 ret 
 .cfi_endproc 
 .LFE0: 
 .size main, .-main 
 .ident "GCC: (Ubuntu 5.4.0-6ubuntu1~16.04.4) 5.4.0 20160609" 
 .section .note.GNU-stack,"",@progbits 
 .file "aritmeticFile245.c" 
 .section .rodata 
 .LC0: 
 .string " a = %d" 
 .text 
 .globl main 
 .type main, @function 
 main: 
 .LFB0: 
 .cfi_startproc 
 pushq %rbp 
 .cfi_def_cfa_offset 16 
 .cfi_offset 6, -16 
 movq %rsp, %rbp 
 .cfi_def_cfa_register 6 
 subq $16, %rsp 
 movl $0, -4(%rbp) 
 movl $-33530093, -4(%rbp) 
 movl -4(%rbp), %eax 
 movl %eax, %esi 
 movl $.LC0, %edi 
 movl $0, %eax 
 call printf 
 movl $0, %eax 
 leave 
 .cfi_def_cfa 7, 8 
 ret 
 .cfi_endproc 
 .LFE0: 
 .size main, .-main 
 .ident "GCC: (Ubuntu 5.4.0-6ubuntu1~16.04.4) 5.4.0 20160609" 
 .section .note.GNU-stack,"",@progbits 
 .file "aritmeticFile246.c" 
 .section .rodata 
 .LC0: 
 .string " a = %d" 
 .text 
 .globl main 
 .type main, @function 
 main: 
 .LFB0: 
 .cfi_startproc 
 pushq %rbp 
 .cfi_def_cfa_offset 16 
 .cfi_offset 6, -16 
 movq %rsp, %rbp 
 .cfi_def_cfa_register 6 
 subq $16, %rsp 
 movl $0, -4(%rbp) 
 movl $-504761, -4(%rbp) 
 movl -4(%rbp), %eax 
 movl %eax, %esi 
 movl $.LC0, %edi 
 movl $0, %eax 
 call printf 
 movl $0, %eax 
 leave 
 .cfi_def_cfa 7, 8 
 ret 
 .cfi_endproc 
 .LFE0: 
 .size main, .-main 
 .ident "GCC: (Ubuntu 5.4.0-6ubuntu1~16.04.4) 5.4.0 20160609" 
 .section .note.GNU-stack,"",@progbits 
 .file "aritmeticFile247.c" 
 .section .rodata 
 .LC0: 
 .string " a = %d" 
 .text 
 .globl main 
 .type main, @function 
 main: 
 .LFB0: 
 .cfi_startproc 
 pushq %rbp 
 .cfi_def_cfa_offset 16 
 .cfi_offset 6, -16 
 movq %rsp, %rbp 
 .cfi_def_cfa_register 6 
 subq $16, %rsp 
 movl $0, -4(%rbp) 
 movl $132662, -4(%rbp) 
 movl -4(%rbp), %eax 
 movl %eax, %esi 
 movl $.LC0, %edi 
 movl $0, %eax 
 call printf 
 movl $0, %eax 
 leave 
 .cfi_def_cfa 7, 8 
 ret 
 .cfi_endproc 
 .LFE0: 
 .size main, .-main 
 .ident "GCC: (Ubuntu 5.4.0-6ubuntu1~16.04.4) 5.4.0 20160609" 
 .section .note.GNU-stack,"",@progbits 
 .file "aritmeticFile248.c" 
 .section .rodata 
 .LC0: 
 .string " a = %d" 
 .text 
 .globl main 
 .type main, @function 
 main: 
 .LFB0: 
 .cfi_startproc 
 pushq %rbp 
 .cfi_def_cfa_offset 16 
 .cfi_offset 6, -16 
 movq %rsp, %rbp 
 .cfi_def_cfa_register 6 
 subq $16, %rsp 
 movl $0, -4(%rbp) 
 movl $-3426125, -4(%rbp) 
 movl -4(%rbp), %eax 
 movl %eax, %esi 
 movl $.LC0, %edi 
 movl $0, %eax 
 call printf 
 movl $0, %eax 
 leave 
 .cfi_def_cfa 7, 8 
 ret 
 .cfi_endproc 
 .LFE0: 
 .size main, .-main 
 .ident "GCC: (Ubuntu 5.4.0-6ubuntu1~16.04.4) 5.4.0 20160609" 
 .section .note.GNU-stack,"",@progbits 
 .file "aritmeticFile249.c" 
 .section .rodata 
 .LC0: 
 .string " a = %d" 
 .text 
 .globl main 
 .type main, @function 
 main: 
 .LFB0: 
 .cfi_startproc 
 pushq %rbp 
 .cfi_def_cfa_offset 16 
 .cfi_offset 6, -16 
 movq %rsp, %rbp 
 .cfi_def_cfa_register 6 
 subq $16, %rsp 
 movl $0, -4(%rbp) 
 movl $763471, -4(%rbp) 
 movl -4(%rbp), %eax 
 movl %eax, %esi 
 movl $.LC0, %edi 
 movl $0, %eax 
 call printf 
 movl $0, %eax 
 leave 
 .cfi_def_cfa 7, 8 
 ret 
 .cfi_endproc 
 .LFE0: 
 .size main, .-main 
 .ident "GCC: (Ubuntu 5.4.0-6ubuntu1~16.04.4) 5.4.0 20160609" 
 .section .note.GNU-stack,"",@progbits 
 .file "aritmeticFile250.c" 
 .section .rodata 
 .LC0: 
 .string " a = %d" 
 .text 
 .globl main 
 .type main, @function 
 main: 
 .LFB0: 
 .cfi_startproc 
 pushq %rbp 
 .cfi_def_cfa_offset 16 
 .cfi_offset 6, -16 
 movq %rsp, %rbp 
 .cfi_def_cfa_register 6 
 subq $16, %rsp 
 movl $0, -4(%rbp) 
 movl $492081, -4(%rbp) 
 movl -4(%rbp), %eax 
 movl %eax, %esi 
 movl $.LC0, %edi 
 movl $0, %eax 
 call printf 
 movl $0, %eax 
 leave 
 .cfi_def_cfa 7, 8 
 ret 
 .cfi_endproc 
 .LFE0: 
 .size main, .-main 
 .ident "GCC: (Ubuntu 5.4.0-6ubuntu1~16.04.4) 5.4.0 20160609" 
 .section .note.GNU-stack,"",@progbits 
 .file "aritmeticFile251.c" 
 .section .rodata 
 .LC0: 
 .string " a = %d" 
 .text 
 .globl main 
 .type main, @function 
 main: 
 .LFB0: 
 .cfi_startproc 
 pushq %rbp 
 .cfi_def_cfa_offset 16 
 .cfi_offset 6, -16 
 movq %rsp, %rbp 
 .cfi_def_cfa_register 6 
 subq $16, %rsp 
 movl $0, -4(%rbp) 
 movl $1171, -4(%rbp) 
 movl -4(%rbp), %eax 
 movl %eax, %esi 
 movl $.LC0, %edi 
 movl $0, %eax 
 call printf 
 movl $0, %eax 
 leave 
 .cfi_def_cfa 7, 8 
 ret 
 .cfi_endproc 
 .LFE0: 
 .size main, .-main 
 .ident "GCC: (Ubuntu 5.4.0-6ubuntu1~16.04.4) 5.4.0 20160609" 
 .section .note.GNU-stack,"",@progbits 
 .file "aritmeticFile252.c" 
 .section .rodata 
 .LC0: 
 .string " a = %d" 
 .text 
 .globl main 
 .type main, @function 
 main: 
 .LFB0: 
 .cfi_startproc 
 pushq %rbp 
 .cfi_def_cfa_offset 16 
 .cfi_offset 6, -16 
 movq %rsp, %rbp 
 .cfi_def_cfa_register 6 
 subq $16, %rsp 
 movl $0, -4(%rbp) 
 movl $-2617, -4(%rbp) 
 movl -4(%rbp), %eax 
 movl %eax, %esi 
 movl $.LC0, %edi 
 movl $0, %eax 
 call printf 
 movl $0, %eax 
 leave 
 .cfi_def_cfa 7, 8 
 ret 
 .cfi_endproc 
 .LFE0: 
 .size main, .-main 
 .ident "GCC: (Ubuntu 5.4.0-6ubuntu1~16.04.4) 5.4.0 20160609" 
 .section .note.GNU-stack,"",@progbits 
 .file "aritmeticFile253.c" 
 .section .rodata 
 .LC0: 
 .string " a = %d" 
 .text 
 .globl main 
 .type main, @function 
 main: 
 .LFB0: 
 .cfi_startproc 
 pushq %rbp 
 .cfi_def_cfa_offset 16 
 .cfi_offset 6, -16 
 movq %rsp, %rbp 
 .cfi_def_cfa_register 6 
 subq $16, %rsp 
 movl $0, -4(%rbp) 
 movl $-184244, -4(%rbp) 
 movl -4(%rbp), %eax 
 movl %eax, %esi 
 movl $.LC0, %edi 
 movl $0, %eax 
 call printf 
 movl $0, %eax 
 leave 
 .cfi_def_cfa 7, 8 
 ret 
 .cfi_endproc 
 .LFE0: 
 .size main, .-main 
 .ident "GCC: (Ubuntu 5.4.0-6ubuntu1~16.04.4) 5.4.0 20160609" 
 .section .note.GNU-stack,"",@progbits 
 .file "aritmeticFile254.c" 
 .section .rodata 
 .LC0: 
 .string " a = %d" 
 .text 
 .globl main 
 .type main, @function 
 main: 
 .LFB0: 
 .cfi_startproc 
 pushq %rbp 
 .cfi_def_cfa_offset 16 
 .cfi_offset 6, -16 
 movq %rsp, %rbp 
 .cfi_def_cfa_register 6 
 subq $16, %rsp 
 movl $0, -4(%rbp) 
 movl $-7, -4(%rbp) 
 movl -4(%rbp), %eax 
 movl %eax, %esi 
 movl $.LC0, %edi 
 movl $0, %eax 
 call printf 
 movl $0, %eax 
 leave 
 .cfi_def_cfa 7, 8 
 ret 
 .cfi_endproc 
 .LFE0: 
 .size main, .-main 
 .ident "GCC: (Ubuntu 5.4.0-6ubuntu1~16.04.4) 5.4.0 20160609" 
 .section .note.GNU-stack,"",@progbits 
 .file "aritmeticFile255.c" 
 .section .rodata 
 .LC0: 
 .string " a = %d" 
 .text 
 .globl main 
 .type main, @function 
 main: 
 .LFB0: 
 .cfi_startproc 
 pushq %rbp 
 .cfi_def_cfa_offset 16 
 .cfi_offset 6, -16 
 movq %rsp, %rbp 
 .cfi_def_cfa_register 6 
 subq $16, %rsp 
 movl $0, -4(%rbp) 
 movl $-181, -4(%rbp) 
 movl -4(%rbp), %eax 
 movl %eax, %esi 
 movl $.LC0, %edi 
 movl $0, %eax 
 call printf 
 movl $0, %eax 
 leave 
 .cfi_def_cfa 7, 8 
 ret 
 .cfi_endproc 
 .LFE0: 
 .size main, .-main 
 .ident "GCC: (Ubuntu 5.4.0-6ubuntu1~16.04.4) 5.4.0 20160609" 
 .section .note.GNU-stack,"",@progbits 
 .file "aritmeticFile256.c" 
 .section .rodata 
 .LC0: 
 .string " a = %d" 
 .text 
 .globl main 
 .type main, @function 
 main: 
 .LFB0: 
 .cfi_startproc 
 pushq %rbp 
 .cfi_def_cfa_offset 16 
 .cfi_offset 6, -16 
 movq %rsp, %rbp 
 .cfi_def_cfa_register 6 
 subq $16, %rsp 
 movl $0, -4(%rbp) 
 movl $8002, -4(%rbp) 
 movl -4(%rbp), %eax 
 movl %eax, %esi 
 movl $.LC0, %edi 
 movl $0, %eax 
 call printf 
 movl $0, %eax 
 leave 
 .cfi_def_cfa 7, 8 
 ret 
 .cfi_endproc 
 .LFE0: 
 .size main, .-main 
 .ident "GCC: (Ubuntu 5.4.0-6ubuntu1~16.04.4) 5.4.0 20160609" 
 .section .note.GNU-stack,"",@progbits 
 .file "aritmeticFile257.c" 
 .section .rodata 
 .LC0: 
 .string " a = %d" 
 .text 
 .globl main 
 .type main, @function 
 main: 
 .LFB0: 
 .cfi_startproc 
 pushq %rbp 
 .cfi_def_cfa_offset 16 
 .cfi_offset 6, -16 
 movq %rsp, %rbp 
 .cfi_def_cfa_register 6 
 subq $16, %rsp 
 movl $0, -4(%rbp) 
 movl $277571325, -4(%rbp) 
 movl -4(%rbp), %eax 
 movl %eax, %esi 
 movl $.LC0, %edi 
 movl $0, %eax 
 call printf 
 movl $0, %eax 
 leave 
 .cfi_def_cfa 7, 8 
 ret 
 .cfi_endproc 
 .LFE0: 
 .size main, .-main 
 .ident "GCC: (Ubuntu 5.4.0-6ubuntu1~16.04.4) 5.4.0 20160609" 
 .section .note.GNU-stack,"",@progbits 
 .file "aritmeticFile258.c" 
 .section .rodata 
 .LC0: 
 .string " a = %d" 
 .text 
 .globl main 
 .type main, @function 
 main: 
 .LFB0: 
 .cfi_startproc 
 pushq %rbp 
 .cfi_def_cfa_offset 16 
 .cfi_offset 6, -16 
 movq %rsp, %rbp 
 .cfi_def_cfa_register 6 
 subq $16, %rsp 
 movl $0, -4(%rbp) 
 movl $-140643178, -4(%rbp) 
 movl -4(%rbp), %eax 
 movl %eax, %esi 
 movl $.LC0, %edi 
 movl $0, %eax 
 call printf 
 movl $0, %eax 
 leave 
 .cfi_def_cfa 7, 8 
 ret 
 .cfi_endproc 
 .LFE0: 
 .size main, .-main 
 .ident "GCC: (Ubuntu 5.4.0-6ubuntu1~16.04.4) 5.4.0 20160609" 
 .section .note.GNU-stack,"",@progbits 
 .file "aritmeticFile259.c" 
 .section .rodata 
 .LC0: 
 .string " a = %d" 
 .text 
 .globl main 
 .type main, @function 
 main: 
 .LFB0: 
 .cfi_startproc 
 pushq %rbp 
 .cfi_def_cfa_offset 16 
 .cfi_offset 6, -16 
 movq %rsp, %rbp 
 .cfi_def_cfa_register 6 
 subq $16, %rsp 
 movl $0, -4(%rbp) 
 movl $1668, -4(%rbp) 
 movl -4(%rbp), %eax 
 movl %eax, %esi 
 movl $.LC0, %edi 
 movl $0, %eax 
 call printf 
 movl $0, %eax 
 leave 
 .cfi_def_cfa 7, 8 
 ret 
 .cfi_endproc 
 .LFE0: 
 .size main, .-main 
 .ident "GCC: (Ubuntu 5.4.0-6ubuntu1~16.04.4) 5.4.0 20160609" 
 .section .note.GNU-stack,"",@progbits 
 .file "aritmeticFile260.c" 
 .section .rodata 
 .LC0: 
 .string " a = %d" 
 .text 
 .globl main 
 .type main, @function 
 main: 
 .LFB0: 
 .cfi_startproc 
 pushq %rbp 
 .cfi_def_cfa_offset 16 
 .cfi_offset 6, -16 
 movq %rsp, %rbp 
 .cfi_def_cfa_register 6 
 subq $16, %rsp 
 movl $0, -4(%rbp) 
 movl $214741724, -4(%rbp) 
 movl -4(%rbp), %eax 
 movl %eax, %esi 
 movl $.LC0, %edi 
 movl $0, %eax 
 call printf 
 movl $0, %eax 
 leave 
 .cfi_def_cfa 7, 8 
 ret 
 .cfi_endproc 
 .LFE0: 
 .size main, .-main 
 .ident "GCC: (Ubuntu 5.4.0-6ubuntu1~16.04.4) 5.4.0 20160609" 
 .section .note.GNU-stack,"",@progbits 
 .file "aritmeticFile261.c" 
 .section .rodata 
 .LC0: 
 .string " a = %d" 
 .text 
 .globl main 
 .type main, @function 
 main: 
 .LFB0: 
 .cfi_startproc 
 pushq %rbp 
 .cfi_def_cfa_offset 16 
 .cfi_offset 6, -16 
 movq %rsp, %rbp 
 .cfi_def_cfa_register 6 
 subq $16, %rsp 
 movl $0, -4(%rbp) 
 movl $1917924783, -4(%rbp) 
 movl -4(%rbp), %eax 
 movl %eax, %esi 
 movl $.LC0, %edi 
 movl $0, %eax 
 call printf 
 movl $0, %eax 
 leave 
 .cfi_def_cfa 7, 8 
 ret 
 .cfi_endproc 
 .LFE0: 
 .size main, .-main 
 .ident "GCC: (Ubuntu 5.4.0-6ubuntu1~16.04.4) 5.4.0 20160609" 
 .section .note.GNU-stack,"",@progbits 
 .file "aritmeticFile262.c" 
 .section .rodata 
 .LC0: 
 .string " a = %d" 
 .text 
 .globl main 
 .type main, @function 
 main: 
 .LFB0: 
 .cfi_startproc 
 pushq %rbp 
 .cfi_def_cfa_offset 16 
 .cfi_offset 6, -16 
 movq %rsp, %rbp 
 .cfi_def_cfa_register 6 
 subq $16, %rsp 
 movl $0, -4(%rbp) 
 movl $2363610, -4(%rbp) 
 movl -4(%rbp), %eax 
 movl %eax, %esi 
 movl $.LC0, %edi 
 movl $0, %eax 
 call printf 
 movl $0, %eax 
 leave 
 .cfi_def_cfa 7, 8 
 ret 
 .cfi_endproc 
 .LFE0: 
 .size main, .-main 
 .ident "GCC: (Ubuntu 5.4.0-6ubuntu1~16.04.4) 5.4.0 20160609" 
 .section .note.GNU-stack,"",@progbits 
 .file "aritmeticFile263.c" 
 .section .rodata 
 .LC0: 
 .string " a = %d" 
 .text 
 .globl main 
 .type main, @function 
 main: 
 .LFB0: 
 .cfi_startproc 
 pushq %rbp 
 .cfi_def_cfa_offset 16 
 .cfi_offset 6, -16 
 movq %rsp, %rbp 
 .cfi_def_cfa_register 6 
 subq $16, %rsp 
 movl $0, -4(%rbp) 
 movl $804999, -4(%rbp) 
 movl -4(%rbp), %eax 
 movl %eax, %esi 
 movl $.LC0, %edi 
 movl $0, %eax 
 call printf 
 movl $0, %eax 
 leave 
 .cfi_def_cfa 7, 8 
 ret 
 .cfi_endproc 
 .LFE0: 
 .size main, .-main 
 .ident "GCC: (Ubuntu 5.4.0-6ubuntu1~16.04.4) 5.4.0 20160609" 
 .section .note.GNU-stack,"",@progbits 
 .file "aritmeticFile264.c" 
 .section .rodata 
 .LC0: 
 .string " a = %d" 
 .text 
 .globl main 
 .type main, @function 
 main: 
 .LFB0: 
 .cfi_startproc 
 pushq %rbp 
 .cfi_def_cfa_offset 16 
 .cfi_offset 6, -16 
 movq %rsp, %rbp 
 .cfi_def_cfa_register 6 
 subq $16, %rsp 
 movl $0, -4(%rbp) 
 movl $-72913, -4(%rbp) 
 movl -4(%rbp), %eax 
 movl %eax, %esi 
 movl $.LC0, %edi 
 movl $0, %eax 
 call printf 
 movl $0, %eax 
 leave 
 .cfi_def_cfa 7, 8 
 ret 
 .cfi_endproc 
 .LFE0: 
 .size main, .-main 
 .ident "GCC: (Ubuntu 5.4.0-6ubuntu1~16.04.4) 5.4.0 20160609" 
 .section .note.GNU-stack,"",@progbits 
 .file "aritmeticFile265.c" 
 .section .rodata 
 .LC0: 
 .string " a = %d" 
 .text 
 .globl main 
 .type main, @function 
 main: 
 .LFB0: 
 .cfi_startproc 
 pushq %rbp 
 .cfi_def_cfa_offset 16 
 .cfi_offset 6, -16 
 movq %rsp, %rbp 
 .cfi_def_cfa_register 6 
 subq $16, %rsp 
 movl $0, -4(%rbp) 
 movl $121, -4(%rbp) 
 movl -4(%rbp), %eax 
 movl %eax, %esi 
 movl $.LC0, %edi 
 movl $0, %eax 
 call printf 
 movl $0, %eax 
 leave 
 .cfi_def_cfa 7, 8 
 ret 
 .cfi_endproc 
 .LFE0: 
 .size main, .-main 
 .ident "GCC: (Ubuntu 5.4.0-6ubuntu1~16.04.4) 5.4.0 20160609" 
 .section .note.GNU-stack,"",@progbits 
 .file "aritmeticFile266.c" 
 .section .rodata 
 .LC0: 
 .string " a = %d" 
 .text 
 .globl main 
 .type main, @function 
 main: 
 .LFB0: 
 .cfi_startproc 
 pushq %rbp 
 .cfi_def_cfa_offset 16 
 .cfi_offset 6, -16 
 movq %rsp, %rbp 
 .cfi_def_cfa_register 6 
 subq $16, %rsp 
 movl $0, -4(%rbp) 
 movl $3162, -4(%rbp) 
 movl -4(%rbp), %eax 
 movl %eax, %esi 
 movl $.LC0, %edi 
 movl $0, %eax 
 call printf 
 movl $0, %eax 
 leave 
 .cfi_def_cfa 7, 8 
 ret 
 .cfi_endproc 
 .LFE0: 
 .size main, .-main 
 .ident "GCC: (Ubuntu 5.4.0-6ubuntu1~16.04.4) 5.4.0 20160609" 
 .section .note.GNU-stack,"",@progbits 
 .file "aritmeticFile267.c" 
 .section .rodata 
 .LC0: 
 .string " a = %d" 
 .text 
 .globl main 
 .type main, @function 
 main: 
 .LFB0: 
 .cfi_startproc 
 pushq %rbp 
 .cfi_def_cfa_offset 16 
 .cfi_offset 6, -16 
 movq %rsp, %rbp 
 .cfi_def_cfa_register 6 
 subq $16, %rsp 
 movl $0, -4(%rbp) 
 movl $138, -4(%rbp) 
 movl -4(%rbp), %eax 
 movl %eax, %esi 
 movl $.LC0, %edi 
 movl $0, %eax 
 call printf 
 movl $0, %eax 
 leave 
 .cfi_def_cfa 7, 8 
 ret 
 .cfi_endproc 
 .LFE0: 
 .size main, .-main 
 .ident "GCC: (Ubuntu 5.4.0-6ubuntu1~16.04.4) 5.4.0 20160609" 
 .section .note.GNU-stack,"",@progbits 
 .file "aritmeticFile268.c" 
 .section .rodata 
 .LC0: 
 .string " a = %d" 
 .text 
 .globl main 
 .type main, @function 
 main: 
 .LFB0: 
 .cfi_startproc 
 pushq %rbp 
 .cfi_def_cfa_offset 16 
 .cfi_offset 6, -16 
 movq %rsp, %rbp 
 .cfi_def_cfa_register 6 
 subq $16, %rsp 
 movl $0, -4(%rbp) 
 movl $-886437, -4(%rbp) 
 movl -4(%rbp), %eax 
 movl %eax, %esi 
 movl $.LC0, %edi 
 movl $0, %eax 
 call printf 
 movl $0, %eax 
 leave 
 .cfi_def_cfa 7, 8 
 ret 
 .cfi_endproc 
 .LFE0: 
 .size main, .-main 
 .ident "GCC: (Ubuntu 5.4.0-6ubuntu1~16.04.4) 5.4.0 20160609" 
 .section .note.GNU-stack,"",@progbits 
 .file "aritmeticFile269.c" 
 .section .rodata 
 .LC0: 
 .string " a = %d" 
 .text 
 .globl main 
 .type main, @function 
 main: 
 .LFB0: 
 .cfi_startproc 
 pushq %rbp 
 .cfi_def_cfa_offset 16 
 .cfi_offset 6, -16 
 movq %rsp, %rbp 
 .cfi_def_cfa_register 6 
 subq $16, %rsp 
 movl $0, -4(%rbp) 
 movl $370, -4(%rbp) 
 movl -4(%rbp), %eax 
 movl %eax, %esi 
 movl $.LC0, %edi 
 movl $0, %eax 
 call printf 
 movl $0, %eax 
 leave 
 .cfi_def_cfa 7, 8 
 ret 
 .cfi_endproc 
 .LFE0: 
 .size main, .-main 
 .ident "GCC: (Ubuntu 5.4.0-6ubuntu1~16.04.4) 5.4.0 20160609" 
 .section .note.GNU-stack,"",@progbits 
 .file "aritmeticFile270.c" 
 .section .rodata 
 .LC0: 
 .string " a = %d" 
 .text 
 .globl main 
 .type main, @function 
 main: 
 .LFB0: 
 .cfi_startproc 
 pushq %rbp 
 .cfi_def_cfa_offset 16 
 .cfi_offset 6, -16 
 movq %rsp, %rbp 
 .cfi_def_cfa_register 6 
 subq $16, %rsp 
 movl $0, -4(%rbp) 
 movl $-288366, -4(%rbp) 
 movl -4(%rbp), %eax 
 movl %eax, %esi 
 movl $.LC0, %edi 
 movl $0, %eax 
 call printf 
 movl $0, %eax 
 leave 
 .cfi_def_cfa 7, 8 
 ret 
 .cfi_endproc 
 .LFE0: 
 .size main, .-main 
 .ident "GCC: (Ubuntu 5.4.0-6ubuntu1~16.04.4) 5.4.0 20160609" 
 .section .note.GNU-stack,"",@progbits 
 .file "aritmeticFile271.c" 
 .section .rodata 
 .LC0: 
 .string " a = %d" 
 .text 
 .globl main 
 .type main, @function 
 main: 
 .LFB0: 
 .cfi_startproc 
 pushq %rbp 
 .cfi_def_cfa_offset 16 
 .cfi_offset 6, -16 
 movq %rsp, %rbp 
 .cfi_def_cfa_register 6 
 subq $16, %rsp 
 movl $0, -4(%rbp) 
 movl $423023, -4(%rbp) 
 movl -4(%rbp), %eax 
 movl %eax, %esi 
 movl $.LC0, %edi 
 movl $0, %eax 
 call printf 
 movl $0, %eax 
 leave 
 .cfi_def_cfa 7, 8 
 ret 
 .cfi_endproc 
 .LFE0: 
 .size main, .-main 
 .ident "GCC: (Ubuntu 5.4.0-6ubuntu1~16.04.4) 5.4.0 20160609" 
 .section .note.GNU-stack,"",@progbits 
 .file "aritmeticFile272.c" 
 .section .rodata 
 .LC0: 
 .string " a = %d" 
 .text 
 .globl main 
 .type main, @function 
 main: 
 .LFB0: 
 .cfi_startproc 
 pushq %rbp 
 .cfi_def_cfa_offset 16 
 .cfi_offset 6, -16 
 movq %rsp, %rbp 
 .cfi_def_cfa_register 6 
 subq $16, %rsp 
 movl $0, -4(%rbp) 
 movl $50739, -4(%rbp) 
 movl -4(%rbp), %eax 
 movl %eax, %esi 
 movl $.LC0, %edi 
 movl $0, %eax 
 call printf 
 movl $0, %eax 
 leave 
 .cfi_def_cfa 7, 8 
 ret 
 .cfi_endproc 
 .LFE0: 
 .size main, .-main 
 .ident "GCC: (Ubuntu 5.4.0-6ubuntu1~16.04.4) 5.4.0 20160609" 
 .section .note.GNU-stack,"",@progbits 
 .file "aritmeticFile273.c" 
 .section .rodata 
 .LC0: 
 .string " a = %d" 
 .text 
 .globl main 
 .type main, @function 
 main: 
 .LFB0: 
 .cfi_startproc 
 pushq %rbp 
 .cfi_def_cfa_offset 16 
 .cfi_offset 6, -16 
 movq %rsp, %rbp 
 .cfi_def_cfa_register 6 
 subq $16, %rsp 
 movl $0, -4(%rbp) 
 movl $-948522, -4(%rbp) 
 movl -4(%rbp), %eax 
 movl %eax, %esi 
 movl $.LC0, %edi 
 movl $0, %eax 
 call printf 
 movl $0, %eax 
 leave 
 .cfi_def_cfa 7, 8 
 ret 
 .cfi_endproc 
 .LFE0: 
 .size main, .-main 
 .ident "GCC: (Ubuntu 5.4.0-6ubuntu1~16.04.4) 5.4.0 20160609" 
 .section .note.GNU-stack,"",@progbits 
 .file "aritmeticFile274.c" 
 .section .rodata 
 .LC0: 
 .string " a = %d" 
 .text 
 .globl main 
 .type main, @function 
 main: 
 .LFB0: 
 .cfi_startproc 
 pushq %rbp 
 .cfi_def_cfa_offset 16 
 .cfi_offset 6, -16 
 movq %rsp, %rbp 
 .cfi_def_cfa_register 6 
 subq $16, %rsp 
 movl $0, -4(%rbp) 
 movl $-991, -4(%rbp) 
 movl -4(%rbp), %eax 
 movl %eax, %esi 
 movl $.LC0, %edi 
 movl $0, %eax 
 call printf 
 movl $0, %eax 
 leave 
 .cfi_def_cfa 7, 8 
 ret 
 .cfi_endproc 
 .LFE0: 
 .size main, .-main 
 .ident "GCC: (Ubuntu 5.4.0-6ubuntu1~16.04.4) 5.4.0 20160609" 
 .section .note.GNU-stack,"",@progbits 
 .file "aritmeticFile275.c" 
 .section .rodata 
 .LC0: 
 .string " a = %d" 
 .text 
 .globl main 
 .type main, @function 
 main: 
 .LFB0: 
 .cfi_startproc 
 pushq %rbp 
 .cfi_def_cfa_offset 16 
 .cfi_offset 6, -16 
 movq %rsp, %rbp 
 .cfi_def_cfa_register 6 
 subq $16, %rsp 
 movl $0, -4(%rbp) 
 movl $100297, -4(%rbp) 
 movl -4(%rbp), %eax 
 movl %eax, %esi 
 movl $.LC0, %edi 
 movl $0, %eax 
 call printf 
 movl $0, %eax 
 leave 
 .cfi_def_cfa 7, 8 
 ret 
 .cfi_endproc 
 .LFE0: 
 .size main, .-main 
 .ident "GCC: (Ubuntu 5.4.0-6ubuntu1~16.04.4) 5.4.0 20160609" 
 .section .note.GNU-stack,"",@progbits 
 .file "aritmeticFile276.c" 
 .section .rodata 
 .LC0: 
 .string " a = %d" 
 .text 
 .globl main 
 .type main, @function 
 main: 
 .LFB0: 
 .cfi_startproc 
 pushq %rbp 
 .cfi_def_cfa_offset 16 
 .cfi_offset 6, -16 
 movq %rsp, %rbp 
 .cfi_def_cfa_register 6 
 subq $16, %rsp 
 movl $0, -4(%rbp) 
 movl $-856194, -4(%rbp) 
 movl -4(%rbp), %eax 
 movl %eax, %esi 
 movl $.LC0, %edi 
 movl $0, %eax 
 call printf 
 movl $0, %eax 
 leave 
 .cfi_def_cfa 7, 8 
 ret 
 .cfi_endproc 
 .LFE0: 
 .size main, .-main 
 .ident "GCC: (Ubuntu 5.4.0-6ubuntu1~16.04.4) 5.4.0 20160609" 
 .section .note.GNU-stack,"",@progbits 
 .file "aritmeticFile277.c" 
 .section .rodata 
 .LC0: 
 .string " a = %d" 
 .text 
 .globl main 
 .type main, @function 
 main: 
 .LFB0: 
 .cfi_startproc 
 pushq %rbp 
 .cfi_def_cfa_offset 16 
 .cfi_offset 6, -16 
 movq %rsp, %rbp 
 .cfi_def_cfa_register 6 
 subq $16, %rsp 
 movl $0, -4(%rbp) 
 movl $-223833, -4(%rbp) 
 movl -4(%rbp), %eax 
 movl %eax, %esi 
 movl $.LC0, %edi 
 movl $0, %eax 
 call printf 
 movl $0, %eax 
 leave 
 .cfi_def_cfa 7, 8 
 ret 
 .cfi_endproc 
 .LFE0: 
 .size main, .-main 
 .ident "GCC: (Ubuntu 5.4.0-6ubuntu1~16.04.4) 5.4.0 20160609" 
 .section .note.GNU-stack,"",@progbits 
 .file "aritmeticFile278.c" 
 .section .rodata 
 .LC0: 
 .string " a = %d" 
 .text 
 .globl main 
 .type main, @function 
 main: 
 .LFB0: 
 .cfi_startproc 
 pushq %rbp 
 .cfi_def_cfa_offset 16 
 .cfi_offset 6, -16 
 movq %rsp, %rbp 
 .cfi_def_cfa_register 6 
 subq $16, %rsp 
 movl $0, -4(%rbp) 
 movl $-107480, -4(%rbp) 
 movl -4(%rbp), %eax 
 movl %eax, %esi 
 movl $.LC0, %edi 
 movl $0, %eax 
 call printf 
 movl $0, %eax 
 leave 
 .cfi_def_cfa 7, 8 
 ret 
 .cfi_endproc 
 .LFE0: 
 .size main, .-main 
 .ident "GCC: (Ubuntu 5.4.0-6ubuntu1~16.04.4) 5.4.0 20160609" 
 .section .note.GNU-stack,"",@progbits 
 .file "aritmeticFile279.c" 
 .section .rodata 
 .LC0: 
 .string " a = %d" 
 .text 
 .globl main 
 .type main, @function 
 main: 
 .LFB0: 
 .cfi_startproc 
 pushq %rbp 
 .cfi_def_cfa_offset 16 
 .cfi_offset 6, -16 
 movq %rsp, %rbp 
 .cfi_def_cfa_register 6 
 subq $16, %rsp 
 movl $0, -4(%rbp) 
 movl $3440960, -4(%rbp) 
 movl -4(%rbp), %eax 
 movl %eax, %esi 
 movl $.LC0, %edi 
 movl $0, %eax 
 call printf 
 movl $0, %eax 
 leave 
 .cfi_def_cfa 7, 8 
 ret 
 .cfi_endproc 
 .LFE0: 
 .size main, .-main 
 .ident "GCC: (Ubuntu 5.4.0-6ubuntu1~16.04.4) 5.4.0 20160609" 
 .section .note.GNU-stack,"",@progbits 
 .file "aritmeticFile280.c" 
 .section .rodata 
 .LC0: 
 .string " a = %d" 
 .text 
 .globl main 
 .type main, @function 
 main: 
 .LFB0: 
 .cfi_startproc 
 pushq %rbp 
 .cfi_def_cfa_offset 16 
 .cfi_offset 6, -16 
 movq %rsp, %rbp 
 .cfi_def_cfa_register 6 
 subq $16, %rsp 
 movl $0, -4(%rbp) 
 movl $18431, -4(%rbp) 
 movl -4(%rbp), %eax 
 movl %eax, %esi 
 movl $.LC0, %edi 
 movl $0, %eax 
 call printf 
 movl $0, %eax 
 leave 
 .cfi_def_cfa 7, 8 
 ret 
 .cfi_endproc 
 .LFE0: 
 .size main, .-main 
 .ident "GCC: (Ubuntu 5.4.0-6ubuntu1~16.04.4) 5.4.0 20160609" 
 .section .note.GNU-stack,"",@progbits 
 .file "aritmeticFile281.c" 
 .section .rodata 
 .LC0: 
 .string " a = %d" 
 .text 
 .globl main 
 .type main, @function 
 main: 
 .LFB0: 
 .cfi_startproc 
 pushq %rbp 
 .cfi_def_cfa_offset 16 
 .cfi_offset 6, -16 
 movq %rsp, %rbp 
 .cfi_def_cfa_register 6 
 subq $16, %rsp 
 movl $0, -4(%rbp) 
 movl $-160366, -4(%rbp) 
 movl -4(%rbp), %eax 
 movl %eax, %esi 
 movl $.LC0, %edi 
 movl $0, %eax 
 call printf 
 movl $0, %eax 
 leave 
 .cfi_def_cfa 7, 8 
 ret 
 .cfi_endproc 
 .LFE0: 
 .size main, .-main 
 .ident "GCC: (Ubuntu 5.4.0-6ubuntu1~16.04.4) 5.4.0 20160609" 
 .section .note.GNU-stack,"",@progbits 
 .file "aritmeticFile282.c" 
 .section .rodata 
 .LC0: 
 .string " a = %d" 
 .text 
 .globl main 
 .type main, @function 
 main: 
 .LFB0: 
 .cfi_startproc 
 pushq %rbp 
 .cfi_def_cfa_offset 16 
 .cfi_offset 6, -16 
 movq %rsp, %rbp 
 .cfi_def_cfa_register 6 
 subq $16, %rsp 
 movl $0, -4(%rbp) 
 movl $22974, -4(%rbp) 
 movl -4(%rbp), %eax 
 movl %eax, %esi 
 movl $.LC0, %edi 
 movl $0, %eax 
 call printf 
 movl $0, %eax 
 leave 
 .cfi_def_cfa 7, 8 
 ret 
 .cfi_endproc 
 .LFE0: 
 .size main, .-main 
 .ident "GCC: (Ubuntu 5.4.0-6ubuntu1~16.04.4) 5.4.0 20160609" 
 .section .note.GNU-stack,"",@progbits 
 .file "aritmeticFile283.c" 
 .section .rodata 
 .LC0: 
 .string " a = %d" 
 .text 
 .globl main 
 .type main, @function 
 main: 
 .LFB0: 
 .cfi_startproc 
 pushq %rbp 
 .cfi_def_cfa_offset 16 
 .cfi_offset 6, -16 
 movq %rsp, %rbp 
 .cfi_def_cfa_register 6 
 subq $16, %rsp 
 movl $0, -4(%rbp) 
 movl $1960, -4(%rbp) 
 movl -4(%rbp), %eax 
 movl %eax, %esi 
 movl $.LC0, %edi 
 movl $0, %eax 
 call printf 
 movl $0, %eax 
 leave 
 .cfi_def_cfa 7, 8 
 ret 
 .cfi_endproc 
 .LFE0: 
 .size main, .-main 
 .ident "GCC: (Ubuntu 5.4.0-6ubuntu1~16.04.4) 5.4.0 20160609" 
 .section .note.GNU-stack,"",@progbits 
 .file "aritmeticFile284.c" 
 .section .rodata 
 .LC0: 
 .string " a = %d" 
 .text 
 .globl main 
 .type main, @function 
 main: 
 .LFB0: 
 .cfi_startproc 
 pushq %rbp 
 .cfi_def_cfa_offset 16 
 .cfi_offset 6, -16 
 movq %rsp, %rbp 
 .cfi_def_cfa_register 6 
 subq $16, %rsp 
 movl $0, -4(%rbp) 
 movl $-8193, -4(%rbp) 
 movl -4(%rbp), %eax 
 movl %eax, %esi 
 movl $.LC0, %edi 
 movl $0, %eax 
 call printf 
 movl $0, %eax 
 leave 
 .cfi_def_cfa 7, 8 
 ret 
 .cfi_endproc 
 .LFE0: 
 .size main, .-main 
 .ident "GCC: (Ubuntu 5.4.0-6ubuntu1~16.04.4) 5.4.0 20160609" 
 .section .note.GNU-stack,"",@progbits 
 .file "aritmeticFile285.c" 
 .section .rodata 
 .LC0: 
 .string " a = %d" 
 .text 
 .globl main 
 .type main, @function 
 main: 
 .LFB0: 
 .cfi_startproc 
 pushq %rbp 
 .cfi_def_cfa_offset 16 
 .cfi_offset 6, -16 
 movq %rsp, %rbp 
 .cfi_def_cfa_register 6 
 subq $16, %rsp 
 movl $0, -4(%rbp) 
 movl $-174908, -4(%rbp) 
 movl -4(%rbp), %eax 
 movl %eax, %esi 
 movl $.LC0, %edi 
 movl $0, %eax 
 call printf 
 movl $0, %eax 
 leave 
 .cfi_def_cfa 7, 8 
 ret 
 .cfi_endproc 
 .LFE0: 
 .size main, .-main 
 .ident "GCC: (Ubuntu 5.4.0-6ubuntu1~16.04.4) 5.4.0 20160609" 
 .section .note.GNU-stack,"",@progbits 
 .file "aritmeticFile286.c" 
 .section .rodata 
 .LC0: 
 .string " a = %d" 
 .text 
 .globl main 
 .type main, @function 
 main: 
 .LFB0: 
 .cfi_startproc 
 pushq %rbp 
 .cfi_def_cfa_offset 16 
 .cfi_offset 6, -16 
 movq %rsp, %rbp 
 .cfi_def_cfa_register 6 
 subq $16, %rsp 
 movl $0, -4(%rbp) 
 movl $394535, -4(%rbp) 
 movl -4(%rbp), %eax 
 movl %eax, %esi 
 movl $.LC0, %edi 
 movl $0, %eax 
 call printf 
 movl $0, %eax 
 leave 
 .cfi_def_cfa 7, 8 
 ret 
 .cfi_endproc 
 .LFE0: 
 .size main, .-main 
 .ident "GCC: (Ubuntu 5.4.0-6ubuntu1~16.04.4) 5.4.0 20160609" 
 .section .note.GNU-stack,"",@progbits 
 .file "aritmeticFile287.c" 
 .section .rodata 
 .LC0: 
 .string " a = %d" 
 .text 
 .globl main 
 .type main, @function 
 main: 
 .LFB0: 
 .cfi_startproc 
 pushq %rbp 
 .cfi_def_cfa_offset 16 
 .cfi_offset 6, -16 
 movq %rsp, %rbp 
 .cfi_def_cfa_register 6 
 subq $16, %rsp 
 movl $0, -4(%rbp) 
 movl $2986, -4(%rbp) 
 movl -4(%rbp), %eax 
 movl %eax, %esi 
 movl $.LC0, %edi 
 movl $0, %eax 
 call printf 
 movl $0, %eax 
 leave 
 .cfi_def_cfa 7, 8 
 ret 
 .cfi_endproc 
 .LFE0: 
 .size main, .-main 
 .ident "GCC: (Ubuntu 5.4.0-6ubuntu1~16.04.4) 5.4.0 20160609" 
 .section .note.GNU-stack,"",@progbits 
 .file "aritmeticFile288.c" 
 .section .rodata 
 .LC0: 
 .string " a = %d" 
 .text 
 .globl main 
 .type main, @function 
 main: 
 .LFB0: 
 .cfi_startproc 
 pushq %rbp 
 .cfi_def_cfa_offset 16 
 .cfi_offset 6, -16 
 movq %rsp, %rbp 
 .cfi_def_cfa_register 6 
 subq $16, %rsp 
 movl $0, -4(%rbp) 
 movl $-57899, -4(%rbp) 
 movl -4(%rbp), %eax 
 movl %eax, %esi 
 movl $.LC0, %edi 
 movl $0, %eax 
 call printf 
 movl $0, %eax 
 leave 
 .cfi_def_cfa 7, 8 
 ret 
 .cfi_endproc 
 .LFE0: 
 .size main, .-main 
 .ident "GCC: (Ubuntu 5.4.0-6ubuntu1~16.04.4) 5.4.0 20160609" 
 .section .note.GNU-stack,"",@progbits 
 .file "aritmeticFile289.c" 
 .section .rodata 
 .LC0: 
 .string " a = %d" 
 .text 
 .globl main 
 .type main, @function 
 main: 
 .LFB0: 
 .cfi_startproc 
 pushq %rbp 
 .cfi_def_cfa_offset 16 
 .cfi_offset 6, -16 
 movq %rsp, %rbp 
 .cfi_def_cfa_register 6 
 subq $16, %rsp 
 movl $0, -4(%rbp) 
 movl $19168586, -4(%rbp) 
 movl -4(%rbp), %eax 
 movl %eax, %esi 
 movl $.LC0, %edi 
 movl $0, %eax 
 call printf 
 movl $0, %eax 
 leave 
 .cfi_def_cfa 7, 8 
 ret 
 .cfi_endproc 
 .LFE0: 
 .size main, .-main 
 .ident "GCC: (Ubuntu 5.4.0-6ubuntu1~16.04.4) 5.4.0 20160609" 
 .section .note.GNU-stack,"",@progbits 
 .file "aritmeticFile290.c" 
 .section .rodata 
 .LC0: 
 .string " a = %d" 
 .text 
 .globl main 
 .type main, @function 
 main: 
 .LFB0: 
 .cfi_startproc 
 pushq %rbp 
 .cfi_def_cfa_offset 16 
 .cfi_offset 6, -16 
 movq %rsp, %rbp 
 .cfi_def_cfa_register 6 
 subq $16, %rsp 
 movl $0, -4(%rbp) 
 movl $-1700184838, -4(%rbp) 
 movl -4(%rbp), %eax 
 movl %eax, %esi 
 movl $.LC0, %edi 
 movl $0, %eax 
 call printf 
 movl $0, %eax 
 leave 
 .cfi_def_cfa 7, 8 
 ret 
 .cfi_endproc 
 .LFE0: 
 .size main, .-main 
 .ident "GCC: (Ubuntu 5.4.0-6ubuntu1~16.04.4) 5.4.0 20160609" 
 .section .note.GNU-stack,"",@progbits 
 .file "aritmeticFile291.c" 
 .section .rodata 
 .LC0: 
 .string " a = %d" 
 .text 
 .globl main 
 .type main, @function 
 main: 
 .LFB0: 
 .cfi_startproc 
 pushq %rbp 
 .cfi_def_cfa_offset 16 
 .cfi_offset 6, -16 
 movq %rsp, %rbp 
 .cfi_def_cfa_register 6 
 subq $16, %rsp 
 movl $0, -4(%rbp) 
 movl $-61386636, -4(%rbp) 
 movl -4(%rbp), %eax 
 movl %eax, %esi 
 movl $.LC0, %edi 
 movl $0, %eax 
 call printf 
 movl $0, %eax 
 leave 
 .cfi_def_cfa 7, 8 
 ret 
 .cfi_endproc 
 .LFE0: 
 .size main, .-main 
 .ident "GCC: (Ubuntu 5.4.0-6ubuntu1~16.04.4) 5.4.0 20160609" 
 .section .note.GNU-stack,"",@progbits 
 .file "aritmeticFile292.c" 
 .section .rodata 
 .LC0: 
 .string " a = %d" 
 .text 
 .globl main 
 .type main, @function 
 main: 
 .LFB0: 
 .cfi_startproc 
 pushq %rbp 
 .cfi_def_cfa_offset 16 
 .cfi_offset 6, -16 
 movq %rsp, %rbp 
 .cfi_def_cfa_register 6 
 subq $16, %rsp 
 movl $0, -4(%rbp) 
 movl $1305090547, -4(%rbp) 
 movl -4(%rbp), %eax 
 movl %eax, %esi 
 movl $.LC0, %edi 
 movl $0, %eax 
 call printf 
 movl $0, %eax 
 leave 
 .cfi_def_cfa 7, 8 
 ret 
 .cfi_endproc 
 .LFE0: 
 .size main, .-main 
 .ident "GCC: (Ubuntu 5.4.0-6ubuntu1~16.04.4) 5.4.0 20160609" 
 .section .note.GNU-stack,"",@progbits 
 .file "aritmeticFile293.c" 
 .section .rodata 
 .LC0: 
 .string " a = %d" 
 .text 
 .globl main 
 .type main, @function 
 main: 
 .LFB0: 
 .cfi_startproc 
 pushq %rbp 
 .cfi_def_cfa_offset 16 
 .cfi_offset 6, -16 
 movq %rsp, %rbp 
 .cfi_def_cfa_register 6 
 subq $16, %rsp 
 movl $0, -4(%rbp) 
 movl $-84854492, -4(%rbp) 
 movl -4(%rbp), %eax 
 movl %eax, %esi 
 movl $.LC0, %edi 
 movl $0, %eax 
 call printf 
 movl $0, %eax 
 leave 
 .cfi_def_cfa 7, 8 
 ret 
 .cfi_endproc 
 .LFE0: 
 .size main, .-main 
 .ident "GCC: (Ubuntu 5.4.0-6ubuntu1~16.04.4) 5.4.0 20160609" 
 .section .note.GNU-stack,"",@progbits 
 .file "aritmeticFile294.c" 
 .section .rodata 
 .LC0: 
 .string " a = %d" 
 .text 
 .globl main 
 .type main, @function 
 main: 
 .LFB0: 
 .cfi_startproc 
 pushq %rbp 
 .cfi_def_cfa_offset 16 
 .cfi_offset 6, -16 
 movq %rsp, %rbp 
 .cfi_def_cfa_register 6 
 subq $16, %rsp 
 movl $0, -4(%rbp) 
 movl $-67197, -4(%rbp) 
 movl -4(%rbp), %eax 
 movl %eax, %esi 
 movl $.LC0, %edi 
 movl $0, %eax 
 call printf 
 movl $0, %eax 
 leave 
 .cfi_def_cfa 7, 8 
 ret 
 .cfi_endproc 
 .LFE0: 
 .size main, .-main 
 .ident "GCC: (Ubuntu 5.4.0-6ubuntu1~16.04.4) 5.4.0 20160609" 
 .section .note.GNU-stack,"",@progbits 
 .file "aritmeticFile295.c" 
 .section .rodata 
 .LC0: 
 .string " a = %d" 
 .text 
 .globl main 
 .type main, @function 
 main: 
 .LFB0: 
 .cfi_startproc 
 pushq %rbp 
 .cfi_def_cfa_offset 16 
 .cfi_offset 6, -16 
 movq %rsp, %rbp 
 .cfi_def_cfa_register 6 
 subq $16, %rsp 
 movl $0, -4(%rbp) 
 movl $1655, -4(%rbp) 
 movl -4(%rbp), %eax 
 movl %eax, %esi 
 movl $.LC0, %edi 
 movl $0, %eax 
 call printf 
 movl $0, %eax 
 leave 
 .cfi_def_cfa 7, 8 
 ret 
 .cfi_endproc 
 .LFE0: 
 .size main, .-main 
 .ident "GCC: (Ubuntu 5.4.0-6ubuntu1~16.04.4) 5.4.0 20160609" 
 .section .note.GNU-stack,"",@progbits 
 .file "aritmeticFile296.c" 
 .section .rodata 
 .LC0: 
 .string " a = %d" 
 .text 
 .globl main 
 .type main, @function 
 main: 
 .LFB0: 
 .cfi_startproc 
 pushq %rbp 
 .cfi_def_cfa_offset 16 
 .cfi_offset 6, -16 
 movq %rsp, %rbp 
 .cfi_def_cfa_register 6 
 subq $16, %rsp 
 movl $0, -4(%rbp) 
 movl $-273816, -4(%rbp) 
 movl -4(%rbp), %eax 
 movl %eax, %esi 
 movl $.LC0, %edi 
 movl $0, %eax 
 call printf 
 movl $0, %eax 
 leave 
 .cfi_def_cfa 7, 8 
 ret 
 .cfi_endproc 
 .LFE0: 
 .size main, .-main 
 .ident "GCC: (Ubuntu 5.4.0-6ubuntu1~16.04.4) 5.4.0 20160609" 
 .section .note.GNU-stack,"",@progbits 
 .file "aritmeticFile297.c" 
 .section .rodata 
 .LC0: 
 .string " a = %d" 
 .text 
 .globl main 
 .type main, @function 
 main: 
 .LFB0: 
 .cfi_startproc 
 pushq %rbp 
 .cfi_def_cfa_offset 16 
 .cfi_offset 6, -16 
 movq %rsp, %rbp 
 .cfi_def_cfa_register 6 
 subq $16, %rsp 
 movl $0, -4(%rbp) 
 movl $29129820, -4(%rbp) 
 movl -4(%rbp), %eax 
 movl %eax, %esi 
 movl $.LC0, %edi 
 movl $0, %eax 
 call printf 
 movl $0, %eax 
 leave 
 .cfi_def_cfa 7, 8 
 ret 
 .cfi_endproc 
 .LFE0: 
 .size main, .-main 
 .ident "GCC: (Ubuntu 5.4.0-6ubuntu1~16.04.4) 5.4.0 20160609" 
 .section .note.GNU-stack,"",@progbits 
 .file "aritmeticFile298.c" 
 .section .rodata 
 .LC0: 
 .string " a = %d" 
 .text 
 .globl main 
 .type main, @function 
 main: 
 .LFB0: 
 .cfi_startproc 
 pushq %rbp 
 .cfi_def_cfa_offset 16 
 .cfi_offset 6, -16 
 movq %rsp, %rbp 
 .cfi_def_cfa_register 6 
 subq $16, %rsp 
 movl $0, -4(%rbp) 
 movl $152399514, -4(%rbp) 
 movl -4(%rbp), %eax 
 movl %eax, %esi 
 movl $.LC0, %edi 
 movl $0, %eax 
 call printf 
 movl $0, %eax 
 leave 
 .cfi_def_cfa 7, 8 
 ret 
 .cfi_endproc 
 .LFE0: 
 .size main, .-main 
 .ident "GCC: (Ubuntu 5.4.0-6ubuntu1~16.04.4) 5.4.0 20160609" 
 .section .note.GNU-stack,"",@progbits 
 .file "aritmeticFile299.c" 
 .section .rodata 
 .LC0: 
 .string " a = %d" 
 .text 
 .globl main 
 .type main, @function 
 main: 
 .LFB0: 
 .cfi_startproc 
 pushq %rbp 
 .cfi_def_cfa_offset 16 
 .cfi_offset 6, -16 
 movq %rsp, %rbp 
 .cfi_def_cfa_register 6 
 subq $16, %rsp 
 movl $0, -4(%rbp) 
 movl $223619, -4(%rbp) 
 movl -4(%rbp), %eax 
 movl %eax, %esi 
 movl $.LC0, %edi 
 movl $0, %eax 
 call printf 
 movl $0, %eax 
 leave 
 .cfi_def_cfa 7, 8 
 ret 
 .cfi_endproc 
 .LFE0: 
 .size main, .-main 
 .ident "GCC: (Ubuntu 5.4.0-6ubuntu1~16.04.4) 5.4.0 20160609" 
 .section .note.GNU-stack,"",@progbits 
 .file "aritmeticFile300.c" 
 .section .rodata 
 .LC0: 
 .string " a = %d" 
 .text 
 .globl main 
 .type main, @function 
 main: 
 .LFB0: 
 .cfi_startproc 
 pushq %rbp 
 .cfi_def_cfa_offset 16 
 .cfi_offset 6, -16 
 movq %rsp, %rbp 
 .cfi_def_cfa_register 6 
 subq $16, %rsp 
 movl $0, -4(%rbp) 
 movl $32749148, -4(%rbp) 
 movl -4(%rbp), %eax 
 movl %eax, %esi 
 movl $.LC0, %edi 
 movl $0, %eax 
 call printf 
 movl $0, %eax 
 leave 
 .cfi_def_cfa 7, 8 
 ret 
 .cfi_endproc 
 .LFE0: 
 .size main, .-main 
 .ident "GCC: (Ubuntu 5.4.0-6ubuntu1~16.04.4) 5.4.0 20160609" 
 .section .note.GNU-stack,"",@progbits 
 .file "aritmeticFile301.c" 
 .section .rodata 
 .LC0: 
 .string " a = %d" 
 .text 
 .globl main 
 .type main, @function 
 main: 
 .LFB0: 
 .cfi_startproc 
 pushq %rbp 
 .cfi_def_cfa_offset 16 
 .cfi_offset 6, -16 
 movq %rsp, %rbp 
 .cfi_def_cfa_register 6 
 subq $16, %rsp 
 movl $0, -4(%rbp) 
 movl $-52195102, -4(%rbp) 
 movl -4(%rbp), %eax 
 movl %eax, %esi 
 movl $.LC0, %edi 
 movl $0, %eax 
 call printf 
 movl $0, %eax 
 leave 
 .cfi_def_cfa 7, 8 
 ret 
 .cfi_endproc 
 .LFE0: 
 .size main, .-main 
 .ident "GCC: (Ubuntu 5.4.0-6ubuntu1~16.04.4) 5.4.0 20160609" 
 .section .note.GNU-stack,"",@progbits 
 .file "aritmeticFile302.c" 
 .section .rodata 
 .LC0: 
 .string " a = %d" 
 .text 
 .globl main 
 .type main, @function 
 main: 
 .LFB0: 
 .cfi_startproc 
 pushq %rbp 
 .cfi_def_cfa_offset 16 
 .cfi_offset 6, -16 
 movq %rsp, %rbp 
 .cfi_def_cfa_register 6 
 subq $16, %rsp 
 movl $0, -4(%rbp) 
 movl $-84809062, -4(%rbp) 
 movl -4(%rbp), %eax 
 movl %eax, %esi 
 movl $.LC0, %edi 
 movl $0, %eax 
 call printf 
 movl $0, %eax 
 leave 
 .cfi_def_cfa 7, 8 
 ret 
 .cfi_endproc 
 .LFE0: 
 .size main, .-main 
 .ident "GCC: (Ubuntu 5.4.0-6ubuntu1~16.04.4) 5.4.0 20160609" 
 .section .note.GNU-stack,"",@progbits 
 .file "aritmeticFile303.c" 
 .section .rodata 
 .LC0: 
 .string " a = %d" 
 .text 
 .globl main 
 .type main, @function 
 main: 
 .LFB0: 
 .cfi_startproc 
 pushq %rbp 
 .cfi_def_cfa_offset 16 
 .cfi_offset 6, -16 
 movq %rsp, %rbp 
 .cfi_def_cfa_register 6 
 subq $16, %rsp 
 movl $0, -4(%rbp) 
 movl $770673, -4(%rbp) 
 movl -4(%rbp), %eax 
 movl %eax, %esi 
 movl $.LC0, %edi 
 movl $0, %eax 
 call printf 
 movl $0, %eax 
 leave 
 .cfi_def_cfa 7, 8 
 ret 
 .cfi_endproc 
 .LFE0: 
 .size main, .-main 
 .ident "GCC: (Ubuntu 5.4.0-6ubuntu1~16.04.4) 5.4.0 20160609" 
 .section .note.GNU-stack,"",@progbits 
 .file "aritmeticFile304.c" 
 .section .rodata 
 .LC0: 
 .string " a = %d" 
 .text 
 .globl main 
 .type main, @function 
 main: 
 .LFB0: 
 .cfi_startproc 
 pushq %rbp 
 .cfi_def_cfa_offset 16 
 .cfi_offset 6, -16 
 movq %rsp, %rbp 
 .cfi_def_cfa_register 6 
 subq $16, %rsp 
 movl $0, -4(%rbp) 
 movl $-63172500, -4(%rbp) 
 movl -4(%rbp), %eax 
 movl %eax, %esi 
 movl $.LC0, %edi 
 movl $0, %eax 
 call printf 
 movl $0, %eax 
 leave 
 .cfi_def_cfa 7, 8 
 ret 
 .cfi_endproc 
 .LFE0: 
 .size main, .-main 
 .ident "GCC: (Ubuntu 5.4.0-6ubuntu1~16.04.4) 5.4.0 20160609" 
 .section .note.GNU-stack,"",@progbits 
 .file "aritmeticFile305.c" 
 .section .rodata 
 .LC0: 
 .string " a = %d" 
 .text 
 .globl main 
 .type main, @function 
 main: 
 .LFB0: 
 .cfi_startproc 
 pushq %rbp 
 .cfi_def_cfa_offset 16 
 .cfi_offset 6, -16 
 movq %rsp, %rbp 
 .cfi_def_cfa_register 6 
 subq $16, %rsp 
 movl $0, -4(%rbp) 
 movl $6134235, -4(%rbp) 
 movl -4(%rbp), %eax 
 movl %eax, %esi 
 movl $.LC0, %edi 
 movl $0, %eax 
 call printf 
 movl $0, %eax 
 leave 
 .cfi_def_cfa 7, 8 
 ret 
 .cfi_endproc 
 .LFE0: 
 .size main, .-main 
 .ident "GCC: (Ubuntu 5.4.0-6ubuntu1~16.04.4) 5.4.0 20160609" 
 .section .note.GNU-stack,"",@progbits 
 .file "aritmeticFile306.c" 
 .section .rodata 
 .LC0: 
 .string " a = %d" 
 .text 
 .globl main 
 .type main, @function 
 main: 
 .LFB0: 
 .cfi_startproc 
 pushq %rbp 
 .cfi_def_cfa_offset 16 
 .cfi_offset 6, -16 
 movq %rsp, %rbp 
 .cfi_def_cfa_register 6 
 subq $16, %rsp 
 movl $0, -4(%rbp) 
 movl $68930045, -4(%rbp) 
 movl -4(%rbp), %eax 
 movl %eax, %esi 
 movl $.LC0, %edi 
 movl $0, %eax 
 call printf 
 movl $0, %eax 
 leave 
 .cfi_def_cfa 7, 8 
 ret 
 .cfi_endproc 
 .LFE0: 
 .size main, .-main 
 .ident "GCC: (Ubuntu 5.4.0-6ubuntu1~16.04.4) 5.4.0 20160609" 
 .section .note.GNU-stack,"",@progbits 
 .file "aritmeticFile307.c" 
 .section .rodata 
 .LC0: 
 .string " a = %d" 
 .text 
 .globl main 
 .type main, @function 
 main: 
 .LFB0: 
 .cfi_startproc 
 pushq %rbp 
 .cfi_def_cfa_offset 16 
 .cfi_offset 6, -16 
 movq %rsp, %rbp 
 .cfi_def_cfa_register 6 
 subq $16, %rsp 
 movl $0, -4(%rbp) 
 movl $-14, -4(%rbp) 
 movl -4(%rbp), %eax 
 movl %eax, %esi 
 movl $.LC0, %edi 
 movl $0, %eax 
 call printf 
 movl $0, %eax 
 leave 
 .cfi_def_cfa 7, 8 
 ret 
 .cfi_endproc 
 .LFE0: 
 .size main, .-main 
 .ident "GCC: (Ubuntu 5.4.0-6ubuntu1~16.04.4) 5.4.0 20160609" 
 .section .note.GNU-stack,"",@progbits 
 .file "aritmeticFile308.c" 
 .section .rodata 
 .LC0: 
 .string " a = %d" 
 .text 
 .globl main 
 .type main, @function 
 main: 
 .LFB0: 
 .cfi_startproc 
 pushq %rbp 
 .cfi_def_cfa_offset 16 
 .cfi_offset 6, -16 
 movq %rsp, %rbp 
 .cfi_def_cfa_register 6 
 subq $16, %rsp 
 movl $0, -4(%rbp) 
 movl $177409, -4(%rbp) 
 movl -4(%rbp), %eax 
 movl %eax, %esi 
 movl $.LC0, %edi 
 movl $0, %eax 
 call printf 
 movl $0, %eax 
 leave 
 .cfi_def_cfa 7, 8 
 ret 
 .cfi_endproc 
 .LFE0: 
 .size main, .-main 
 .ident "GCC: (Ubuntu 5.4.0-6ubuntu1~16.04.4) 5.4.0 20160609" 
 .section .note.GNU-stack,"",@progbits 
 .file "aritmeticFile309.c" 
 .section .rodata 
 .LC0: 
 .string " a = %d" 
 .text 
 .globl main 
 .type main, @function 
 main: 
 .LFB0: 
 .cfi_startproc 
 pushq %rbp 
 .cfi_def_cfa_offset 16 
 .cfi_offset 6, -16 
 movq %rsp, %rbp 
 .cfi_def_cfa_register 6 
 subq $16, %rsp 
 movl $0, -4(%rbp) 
 movl $-26352688, -4(%rbp) 
 movl -4(%rbp), %eax 
 movl %eax, %esi 
 movl $.LC0, %edi 
 movl $0, %eax 
 call printf 
 movl $0, %eax 
 leave 
 .cfi_def_cfa 7, 8 
 ret 
 .cfi_endproc 
 .LFE0: 
 .size main, .-main 
 .ident "GCC: (Ubuntu 5.4.0-6ubuntu1~16.04.4) 5.4.0 20160609" 
 .section .note.GNU-stack,"",@progbits 
 .file "aritmeticFile310.c" 
 .section .rodata 
 .LC0: 
 .string " a = %d" 
 .text 
 .globl main 
 .type main, @function 
 main: 
 .LFB0: 
 .cfi_startproc 
 pushq %rbp 
 .cfi_def_cfa_offset 16 
 .cfi_offset 6, -16 
 movq %rsp, %rbp 
 .cfi_def_cfa_register 6 
 subq $16, %rsp 
 movl $0, -4(%rbp) 
 movl $-429037591, -4(%rbp) 
 movl -4(%rbp), %eax 
 movl %eax, %esi 
 movl $.LC0, %edi 
 movl $0, %eax 
 call printf 
 movl $0, %eax 
 leave 
 .cfi_def_cfa 7, 8 
 ret 
 .cfi_endproc 
 .LFE0: 
 .size main, .-main 
 .ident "GCC: (Ubuntu 5.4.0-6ubuntu1~16.04.4) 5.4.0 20160609" 
 .section .note.GNU-stack,"",@progbits 
 .file "aritmeticFile311.c" 
 .section .rodata 
 .LC0: 
 .string " a = %d" 
 .text 
 .globl main 
 .type main, @function 
 main: 
 .LFB0: 
 .cfi_startproc 
 pushq %rbp 
 .cfi_def_cfa_offset 16 
 .cfi_offset 6, -16 
 movq %rsp, %rbp 
 .cfi_def_cfa_register 6 
 subq $16, %rsp 
 movl $0, -4(%rbp) 
 movl $1818585383, -4(%rbp) 
 movl -4(%rbp), %eax 
 movl %eax, %esi 
 movl $.LC0, %edi 
 movl $0, %eax 
 call printf 
 movl $0, %eax 
 leave 
 .cfi_def_cfa 7, 8 
 ret 
 .cfi_endproc 
 .LFE0: 
 .size main, .-main 
 .ident "GCC: (Ubuntu 5.4.0-6ubuntu1~16.04.4) 5.4.0 20160609" 
 .section .note.GNU-stack,"",@progbits 
 .file "aritmeticFile312.c" 
 .section .rodata 
 .LC0: 
 .string " a = %d" 
 .text 
 .globl main 
 .type main, @function 
 main: 
 .LFB0: 
 .cfi_startproc 
 pushq %rbp 
 .cfi_def_cfa_offset 16 
 .cfi_offset 6, -16 
 movq %rsp, %rbp 
 .cfi_def_cfa_register 6 
 subq $16, %rsp 
 movl $0, -4(%rbp) 
 movl $931, -4(%rbp) 
 movl -4(%rbp), %eax 
 movl %eax, %esi 
 movl $.LC0, %edi 
 movl $0, %eax 
 call printf 
 movl $0, %eax 
 leave 
 .cfi_def_cfa 7, 8 
 ret 
 .cfi_endproc 
 .LFE0: 
 .size main, .-main 
 .ident "GCC: (Ubuntu 5.4.0-6ubuntu1~16.04.4) 5.4.0 20160609" 
 .section .note.GNU-stack,"",@progbits 
 .file "aritmeticFile313.c" 
 .section .rodata 
 .LC0: 
 .string " a = %d" 
 .text 
 .globl main 
 .type main, @function 
 main: 
 .LFB0: 
 .cfi_startproc 
 pushq %rbp 
 .cfi_def_cfa_offset 16 
 .cfi_offset 6, -16 
 movq %rsp, %rbp 
 .cfi_def_cfa_register 6 
 subq $16, %rsp 
 movl $0, -4(%rbp) 
 movl $-41126, -4(%rbp) 
 movl -4(%rbp), %eax 
 movl %eax, %esi 
 movl $.LC0, %edi 
 movl $0, %eax 
 call printf 
 movl $0, %eax 
 leave 
 .cfi_def_cfa 7, 8 
 ret 
 .cfi_endproc 
 .LFE0: 
 .size main, .-main 
 .ident "GCC: (Ubuntu 5.4.0-6ubuntu1~16.04.4) 5.4.0 20160609" 
 .section .note.GNU-stack,"",@progbits 
 .file "aritmeticFile314.c" 
 .section .rodata 
 .LC0: 
 .string " a = %d" 
 .text 
 .globl main 
 .type main, @function 
 main: 
 .LFB0: 
 .cfi_startproc 
 pushq %rbp 
 .cfi_def_cfa_offset 16 
 .cfi_offset 6, -16 
 movq %rsp, %rbp 
 .cfi_def_cfa_register 6 
 subq $16, %rsp 
 movl $0, -4(%rbp) 
 movl $-1226505, -4(%rbp) 
 movl -4(%rbp), %eax 
 movl %eax, %esi 
 movl $.LC0, %edi 
 movl $0, %eax 
 call printf 
 movl $0, %eax 
 leave 
 .cfi_def_cfa 7, 8 
 ret 
 .cfi_endproc 
 .LFE0: 
 .size main, .-main 
 .ident "GCC: (Ubuntu 5.4.0-6ubuntu1~16.04.4) 5.4.0 20160609" 
 .section .note.GNU-stack,"",@progbits 
 .file "aritmeticFile315.c" 
 .section .rodata 
 .LC0: 
 .string " a = %d" 
 .text 
 .globl main 
 .type main, @function 
 main: 
 .LFB0: 
 .cfi_startproc 
 pushq %rbp 
 .cfi_def_cfa_offset 16 
 .cfi_offset 6, -16 
 movq %rsp, %rbp 
 .cfi_def_cfa_register 6 
 subq $16, %rsp 
 movl $0, -4(%rbp) 
 movl $-1274678843, -4(%rbp) 
 movl -4(%rbp), %eax 
 movl %eax, %esi 
 movl $.LC0, %edi 
 movl $0, %eax 
 call printf 
 movl $0, %eax 
 leave 
 .cfi_def_cfa 7, 8 
 ret 
 .cfi_endproc 
 .LFE0: 
 .size main, .-main 
 .ident "GCC: (Ubuntu 5.4.0-6ubuntu1~16.04.4) 5.4.0 20160609" 
 .section .note.GNU-stack,"",@progbits 
 .file "aritmeticFile316.c" 
 .section .rodata 
 .LC0: 
 .string " a = %d" 
 .text 
 .globl main 
 .type main, @function 
 main: 
 .LFB0: 
 .cfi_startproc 
 pushq %rbp 
 .cfi_def_cfa_offset 16 
 .cfi_offset 6, -16 
 movq %rsp, %rbp 
 .cfi_def_cfa_register 6 
 subq $16, %rsp 
 movl $0, -4(%rbp) 
 movl $209606, -4(%rbp) 
 movl -4(%rbp), %eax 
 movl %eax, %esi 
 movl $.LC0, %edi 
 movl $0, %eax 
 call printf 
 movl $0, %eax 
 leave 
 .cfi_def_cfa 7, 8 
 ret 
 .cfi_endproc 
 .LFE0: 
 .size main, .-main 
 .ident "GCC: (Ubuntu 5.4.0-6ubuntu1~16.04.4) 5.4.0 20160609" 
 .section .note.GNU-stack,"",@progbits 
 .file "aritmeticFile317.c" 
 .section .rodata 
 .LC0: 
 .string " a = %d" 
 .text 
 .globl main 
 .type main, @function 
 main: 
 .LFB0: 
 .cfi_startproc 
 pushq %rbp 
 .cfi_def_cfa_offset 16 
 .cfi_offset 6, -16 
 movq %rsp, %rbp 
 .cfi_def_cfa_register 6 
 subq $16, %rsp 
 movl $0, -4(%rbp) 
 movl $499076908, -4(%rbp) 
 movl -4(%rbp), %eax 
 movl %eax, %esi 
 movl $.LC0, %edi 
 movl $0, %eax 
 call printf 
 movl $0, %eax 
 leave 
 .cfi_def_cfa 7, 8 
 ret 
 .cfi_endproc 
 .LFE0: 
 .size main, .-main 
 .ident "GCC: (Ubuntu 5.4.0-6ubuntu1~16.04.4) 5.4.0 20160609" 
 .section .note.GNU-stack,"",@progbits 
 .file "aritmeticFile318.c" 
 .section .rodata 
 .LC0: 
 .string " a = %d" 
 .text 
 .globl main 
 .type main, @function 
 main: 
 .LFB0: 
 .cfi_startproc 
 pushq %rbp 
 .cfi_def_cfa_offset 16 
 .cfi_offset 6, -16 
 movq %rsp, %rbp 
 .cfi_def_cfa_register 6 
 subq $16, %rsp 
 movl $0, -4(%rbp) 
 movl $-517, -4(%rbp) 
 movl -4(%rbp), %eax 
 movl %eax, %esi 
 movl $.LC0, %edi 
 movl $0, %eax 
 call printf 
 movl $0, %eax 
 leave 
 .cfi_def_cfa 7, 8 
 ret 
 .cfi_endproc 
 .LFE0: 
 .size main, .-main 
 .ident "GCC: (Ubuntu 5.4.0-6ubuntu1~16.04.4) 5.4.0 20160609" 
 .section .note.GNU-stack,"",@progbits 
 .file "aritmeticFile319.c" 
 .section .rodata 
 .LC0: 
 .string " a = %d" 
 .text 
 .globl main 
 .type main, @function 
 main: 
 .LFB0: 
 .cfi_startproc 
 pushq %rbp 
 .cfi_def_cfa_offset 16 
 .cfi_offset 6, -16 
 movq %rsp, %rbp 
 .cfi_def_cfa_register 6 
 subq $16, %rsp 
 movl $0, -4(%rbp) 
 movl $20732, -4(%rbp) 
 movl -4(%rbp), %eax 
 movl %eax, %esi 
 movl $.LC0, %edi 
 movl $0, %eax 
 call printf 
 movl $0, %eax 
 leave 
 .cfi_def_cfa 7, 8 
 ret 
 .cfi_endproc 
 .LFE0: 
 .size main, .-main 
 .ident "GCC: (Ubuntu 5.4.0-6ubuntu1~16.04.4) 5.4.0 20160609" 
 .section .note.GNU-stack,"",@progbits 
 .file "aritmeticFile320.c" 
 .section .rodata 
 .LC0: 
 .string " a = %d" 
 .text 
 .globl main 
 .type main, @function 
 main: 
 .LFB0: 
 .cfi_startproc 
 pushq %rbp 
 .cfi_def_cfa_offset 16 
 .cfi_offset 6, -16 
 movq %rsp, %rbp 
 .cfi_def_cfa_register 6 
 subq $16, %rsp 
 movl $0, -4(%rbp) 
 movl $6816873, -4(%rbp) 
 movl -4(%rbp), %eax 
 movl %eax, %esi 
 movl $.LC0, %edi 
 movl $0, %eax 
 call printf 
 movl $0, %eax 
 leave 
 .cfi_def_cfa 7, 8 
 ret 
 .cfi_endproc 
 .LFE0: 
 .size main, .-main 
 .ident "GCC: (Ubuntu 5.4.0-6ubuntu1~16.04.4) 5.4.0 20160609" 
 .section .note.GNU-stack,"",@progbits 
 .file "aritmeticFile321.c" 
 .section .rodata 
 .LC0: 
 .string " a = %d" 
 .text 
 .globl main 
 .type main, @function 
 main: 
 .LFB0: 
 .cfi_startproc 
 pushq %rbp 
 .cfi_def_cfa_offset 16 
 .cfi_offset 6, -16 
 movq %rsp, %rbp 
 .cfi_def_cfa_register 6 
 subq $16, %rsp 
 movl $0, -4(%rbp) 
 movl $-214093, -4(%rbp) 
 movl -4(%rbp), %eax 
 movl %eax, %esi 
 movl $.LC0, %edi 
 movl $0, %eax 
 call printf 
 movl $0, %eax 
 leave 
 .cfi_def_cfa 7, 8 
 ret 
 .cfi_endproc 
 .LFE0: 
 .size main, .-main 
 .ident "GCC: (Ubuntu 5.4.0-6ubuntu1~16.04.4) 5.4.0 20160609" 
 .section .note.GNU-stack,"",@progbits 
 .file "aritmeticFile322.c" 
 .section .rodata 
 .LC0: 
 .string " a = %d" 
 .text 
 .globl main 
 .type main, @function 
 main: 
 .LFB0: 
 .cfi_startproc 
 pushq %rbp 
 .cfi_def_cfa_offset 16 
 .cfi_offset 6, -16 
 movq %rsp, %rbp 
 .cfi_def_cfa_register 6 
 subq $16, %rsp 
 movl $0, -4(%rbp) 
 movl $-436630, -4(%rbp) 
 movl -4(%rbp), %eax 
 movl %eax, %esi 
 movl $.LC0, %edi 
 movl $0, %eax 
 call printf 
 movl $0, %eax 
 leave 
 .cfi_def_cfa 7, 8 
 ret 
 .cfi_endproc 
 .LFE0: 
 .size main, .-main 
 .ident "GCC: (Ubuntu 5.4.0-6ubuntu1~16.04.4) 5.4.0 20160609" 
 .section .note.GNU-stack,"",@progbits 
 .file "aritmeticFile323.c" 
 .section .rodata 
 .LC0: 
 .string " a = %d" 
 .text 
 .globl main 
 .type main, @function 
 main: 
 .LFB0: 
 .cfi_startproc 
 pushq %rbp 
 .cfi_def_cfa_offset 16 
 .cfi_offset 6, -16 
 movq %rsp, %rbp 
 .cfi_def_cfa_register 6 
 subq $16, %rsp 
 movl $0, -4(%rbp) 
 movl $-1674894994, -4(%rbp) 
 movl -4(%rbp), %eax 
 movl %eax, %esi 
 movl $.LC0, %edi 
 movl $0, %eax 
 call printf 
 movl $0, %eax 
 leave 
 .cfi_def_cfa 7, 8 
 ret 
 .cfi_endproc 
 .LFE0: 
 .size main, .-main 
 .ident "GCC: (Ubuntu 5.4.0-6ubuntu1~16.04.4) 5.4.0 20160609" 
 .section .note.GNU-stack,"",@progbits 
 .file "aritmeticFile324.c" 
 .section .rodata 
 .LC0: 
 .string " a = %d" 
 .text 
 .globl main 
 .type main, @function 
 main: 
 .LFB0: 
 .cfi_startproc 
 pushq %rbp 
 .cfi_def_cfa_offset 16 
 .cfi_offset 6, -16 
 movq %rsp, %rbp 
 .cfi_def_cfa_register 6 
 subq $16, %rsp 
 movl $0, -4(%rbp) 
 movl $72377, -4(%rbp) 
 movl -4(%rbp), %eax 
 movl %eax, %esi 
 movl $.LC0, %edi 
 movl $0, %eax 
 call printf 
 movl $0, %eax 
 leave 
 .cfi_def_cfa 7, 8 
 ret 
 .cfi_endproc 
 .LFE0: 
 .size main, .-main 
 .ident "GCC: (Ubuntu 5.4.0-6ubuntu1~16.04.4) 5.4.0 20160609" 
 .section .note.GNU-stack,"",@progbits 
 .file "aritmeticFile325.c" 
 .section .rodata 
 .LC0: 
 .string " a = %d" 
 .text 
 .globl main 
 .type main, @function 
 main: 
 .LFB0: 
 .cfi_startproc 
 pushq %rbp 
 .cfi_def_cfa_offset 16 
 .cfi_offset 6, -16 
 movq %rsp, %rbp 
 .cfi_def_cfa_register 6 
 subq $16, %rsp 
 movl $0, -4(%rbp) 
 movl $182272, -4(%rbp) 
 movl -4(%rbp), %eax 
 movl %eax, %esi 
 movl $.LC0, %edi 
 movl $0, %eax 
 call printf 
 movl $0, %eax 
 leave 
 .cfi_def_cfa 7, 8 
 ret 
 .cfi_endproc 
 .LFE0: 
 .size main, .-main 
 .ident "GCC: (Ubuntu 5.4.0-6ubuntu1~16.04.4) 5.4.0 20160609" 
 .section .note.GNU-stack,"",@progbits 
 .file "aritmeticFile326.c" 
 .section .rodata 
 .LC0: 
 .string " a = %d" 
 .text 
 .globl main 
 .type main, @function 
 main: 
 .LFB0: 
 .cfi_startproc 
 pushq %rbp 
 .cfi_def_cfa_offset 16 
 .cfi_offset 6, -16 
 movq %rsp, %rbp 
 .cfi_def_cfa_register 6 
 subq $16, %rsp 
 movl $0, -4(%rbp) 
 movl $-16449, -4(%rbp) 
 movl -4(%rbp), %eax 
 movl %eax, %esi 
 movl $.LC0, %edi 
 movl $0, %eax 
 call printf 
 movl $0, %eax 
 leave 
 .cfi_def_cfa 7, 8 
 ret 
 .cfi_endproc 
 .LFE0: 
 .size main, .-main 
 .ident "GCC: (Ubuntu 5.4.0-6ubuntu1~16.04.4) 5.4.0 20160609" 
 .section .note.GNU-stack,"",@progbits 
 .file "aritmeticFile327.c" 
 .section .rodata 
 .LC0: 
 .string " a = %d" 
 .text 
 .globl main 
 .type main, @function 
 main: 
 .LFB0: 
 .cfi_startproc 
 pushq %rbp 
 .cfi_def_cfa_offset 16 
 .cfi_offset 6, -16 
 movq %rsp, %rbp 
 .cfi_def_cfa_register 6 
 subq $16, %rsp 
 movl $0, -4(%rbp) 
 movl $-969, -4(%rbp) 
 movl -4(%rbp), %eax 
 movl %eax, %esi 
 movl $.LC0, %edi 
 movl $0, %eax 
 call printf 
 movl $0, %eax 
 leave 
 .cfi_def_cfa 7, 8 
 ret 
 .cfi_endproc 
 .LFE0: 
 .size main, .-main 
 .ident "GCC: (Ubuntu 5.4.0-6ubuntu1~16.04.4) 5.4.0 20160609" 
 .section .note.GNU-stack,"",@progbits 
 .file "aritmeticFile328.c" 
 .section .rodata 
 .LC0: 
 .string " a = %d" 
 .text 
 .globl main 
 .type main, @function 
 main: 
 .LFB0: 
 .cfi_startproc 
 pushq %rbp 
 .cfi_def_cfa_offset 16 
 .cfi_offset 6, -16 
 movq %rsp, %rbp 
 .cfi_def_cfa_register 6 
 subq $16, %rsp 
 movl $0, -4(%rbp) 
 movl $112630, -4(%rbp) 
 movl -4(%rbp), %eax 
 movl %eax, %esi 
 movl $.LC0, %edi 
 movl $0, %eax 
 call printf 
 movl $0, %eax 
 leave 
 .cfi_def_cfa 7, 8 
 ret 
 .cfi_endproc 
 .LFE0: 
 .size main, .-main 
 .ident "GCC: (Ubuntu 5.4.0-6ubuntu1~16.04.4) 5.4.0 20160609" 
 .section .note.GNU-stack,"",@progbits 
 .file "aritmeticFile329.c" 
 .section .rodata 
 .LC0: 
 .string " a = %d" 
 .text 
 .globl main 
 .type main, @function 
 main: 
 .LFB0: 
 .cfi_startproc 
 pushq %rbp 
 .cfi_def_cfa_offset 16 
 .cfi_offset 6, -16 
 movq %rsp, %rbp 
 .cfi_def_cfa_register 6 
 subq $16, %rsp 
 movl $0, -4(%rbp) 
 movl $-180709, -4(%rbp) 
 movl -4(%rbp), %eax 
 movl %eax, %esi 
 movl $.LC0, %edi 
 movl $0, %eax 
 call printf 
 movl $0, %eax 
 leave 
 .cfi_def_cfa 7, 8 
 ret 
 .cfi_endproc 
 .LFE0: 
 .size main, .-main 
 .ident "GCC: (Ubuntu 5.4.0-6ubuntu1~16.04.4) 5.4.0 20160609" 
 .section .note.GNU-stack,"",@progbits 
 .file "aritmeticFile330.c" 
 .section .rodata 
 .LC0: 
 .string " a = %d" 
 .text 
 .globl main 
 .type main, @function 
 main: 
 .LFB0: 
 .cfi_startproc 
 pushq %rbp 
 .cfi_def_cfa_offset 16 
 .cfi_offset 6, -16 
 movq %rsp, %rbp 
 .cfi_def_cfa_register 6 
 subq $16, %rsp 
 movl $0, -4(%rbp) 
 movl $846212, -4(%rbp) 
 movl -4(%rbp), %eax 
 movl %eax, %esi 
 movl $.LC0, %edi 
 movl $0, %eax 
 call printf 
 movl $0, %eax 
 leave 
 .cfi_def_cfa 7, 8 
 ret 
 .cfi_endproc 
 .LFE0: 
 .size main, .-main 
 .ident "GCC: (Ubuntu 5.4.0-6ubuntu1~16.04.4) 5.4.0 20160609" 
 .section .note.GNU-stack,"",@progbits 
 .file "aritmeticFile331.c" 
 .section .rodata 
 .LC0: 
 .string " a = %d" 
 .text 
 .globl main 
 .type main, @function 
 main: 
 .LFB0: 
 .cfi_startproc 
 pushq %rbp 
 .cfi_def_cfa_offset 16 
 .cfi_offset 6, -16 
 movq %rsp, %rbp 
 .cfi_def_cfa_register 6 
 subq $16, %rsp 
 movl $0, -4(%rbp) 
 movl $-1873195205, -4(%rbp) 
 movl -4(%rbp), %eax 
 movl %eax, %esi 
 movl $.LC0, %edi 
 movl $0, %eax 
 call printf 
 movl $0, %eax 
 leave 
 .cfi_def_cfa 7, 8 
 ret 
 .cfi_endproc 
 .LFE0: 
 .size main, .-main 
 .ident "GCC: (Ubuntu 5.4.0-6ubuntu1~16.04.4) 5.4.0 20160609" 
 .section .note.GNU-stack,"",@progbits 
 .file "aritmeticFile332.c" 
 .section .rodata 
 .LC0: 
 .string " a = %d" 
 .text 
 .globl main 
 .type main, @function 
 main: 
 .LFB0: 
 .cfi_startproc 
 pushq %rbp 
 .cfi_def_cfa_offset 16 
 .cfi_offset 6, -16 
 movq %rsp, %rbp 
 .cfi_def_cfa_register 6 
 subq $16, %rsp 
 movl $0, -4(%rbp) 
 movl $1599702558, -4(%rbp) 
 movl -4(%rbp), %eax 
 movl %eax, %esi 
 movl $.LC0, %edi 
 movl $0, %eax 
 call printf 
 movl $0, %eax 
 leave 
 .cfi_def_cfa 7, 8 
 ret 
 .cfi_endproc 
 .LFE0: 
 .size main, .-main 
 .ident "GCC: (Ubuntu 5.4.0-6ubuntu1~16.04.4) 5.4.0 20160609" 
 .section .note.GNU-stack,"",@progbits 
 .file "aritmeticFile333.c" 
 .section .rodata 
 .LC0: 
 .string " a = %d" 
 .text 
 .globl main 
 .type main, @function 
 main: 
 .LFB0: 
 .cfi_startproc 
 pushq %rbp 
 .cfi_def_cfa_offset 16 
 .cfi_offset 6, -16 
 movq %rsp, %rbp 
 .cfi_def_cfa_register 6 
 subq $16, %rsp 
 movl $0, -4(%rbp) 
 movl $151975, -4(%rbp) 
 movl -4(%rbp), %eax 
 movl %eax, %esi 
 movl $.LC0, %edi 
 movl $0, %eax 
 call printf 
 movl $0, %eax 
 leave 
 .cfi_def_cfa 7, 8 
 ret 
 .cfi_endproc 
 .LFE0: 
 .size main, .-main 
 .ident "GCC: (Ubuntu 5.4.0-6ubuntu1~16.04.4) 5.4.0 20160609" 
 .section .note.GNU-stack,"",@progbits 
 .file "aritmeticFile334.c" 
 .section .rodata 
 .LC0: 
 .string " a = %d" 
 .text 
 .globl main 
 .type main, @function 
 main: 
 .LFB0: 
 .cfi_startproc 
 pushq %rbp 
 .cfi_def_cfa_offset 16 
 .cfi_offset 6, -16 
 movq %rsp, %rbp 
 .cfi_def_cfa_register 6 
 subq $16, %rsp 
 movl $0, -4(%rbp) 
 movl $-530910, -4(%rbp) 
 movl -4(%rbp), %eax 
 movl %eax, %esi 
 movl $.LC0, %edi 
 movl $0, %eax 
 call printf 
 movl $0, %eax 
 leave 
 .cfi_def_cfa 7, 8 
 ret 
 .cfi_endproc 
 .LFE0: 
 .size main, .-main 
 .ident "GCC: (Ubuntu 5.4.0-6ubuntu1~16.04.4) 5.4.0 20160609" 
 .section .note.GNU-stack,"",@progbits 
 .file "aritmeticFile335.c" 
 .section .rodata 
 .LC0: 
 .string " a = %d" 
 .text 
 .globl main 
 .type main, @function 
 main: 
 .LFB0: 
 .cfi_startproc 
 pushq %rbp 
 .cfi_def_cfa_offset 16 
 .cfi_offset 6, -16 
 movq %rsp, %rbp 
 .cfi_def_cfa_register 6 
 subq $16, %rsp 
 movl $0, -4(%rbp) 
 movl $431904, -4(%rbp) 
 movl -4(%rbp), %eax 
 movl %eax, %esi 
 movl $.LC0, %edi 
 movl $0, %eax 
 call printf 
 movl $0, %eax 
 leave 
 .cfi_def_cfa 7, 8 
 ret 
 .cfi_endproc 
 .LFE0: 
 .size main, .-main 
 .ident "GCC: (Ubuntu 5.4.0-6ubuntu1~16.04.4) 5.4.0 20160609" 
 .section .note.GNU-stack,"",@progbits 
 .file "aritmeticFile336.c" 
 .section .rodata 
 .LC0: 
 .string " a = %d" 
 .text 
 .globl main 
 .type main, @function 
 main: 
 .LFB0: 
 .cfi_startproc 
 pushq %rbp 
 .cfi_def_cfa_offset 16 
 .cfi_offset 6, -16 
 movq %rsp, %rbp 
 .cfi_def_cfa_register 6 
 subq $16, %rsp 
 movl $0, -4(%rbp) 
 movl $-1073, -4(%rbp) 
 movl -4(%rbp), %eax 
 movl %eax, %esi 
 movl $.LC0, %edi 
 movl $0, %eax 
 call printf 
 movl $0, %eax 
 leave 
 .cfi_def_cfa 7, 8 
 ret 
 .cfi_endproc 
 .LFE0: 
 .size main, .-main 
 .ident "GCC: (Ubuntu 5.4.0-6ubuntu1~16.04.4) 5.4.0 20160609" 
 .section .note.GNU-stack,"",@progbits 
 .file "aritmeticFile337.c" 
 .section .rodata 
 .LC0: 
 .string " a = %d" 
 .text 
 .globl main 
 .type main, @function 
 main: 
 .LFB0: 
 .cfi_startproc 
 pushq %rbp 
 .cfi_def_cfa_offset 16 
 .cfi_offset 6, -16 
 movq %rsp, %rbp 
 .cfi_def_cfa_register 6 
 subq $16, %rsp 
 movl $0, -4(%rbp) 
 movl $6953191, -4(%rbp) 
 movl -4(%rbp), %eax 
 movl %eax, %esi 
 movl $.LC0, %edi 
 movl $0, %eax 
 call printf 
 movl $0, %eax 
 leave 
 .cfi_def_cfa 7, 8 
 ret 
 .cfi_endproc 
 .LFE0: 
 .size main, .-main 
 .ident "GCC: (Ubuntu 5.4.0-6ubuntu1~16.04.4) 5.4.0 20160609" 
 .section .note.GNU-stack,"",@progbits 
 .file "aritmeticFile338.c" 
 .section .rodata 
 .LC0: 
 .string " a = %d" 
 .text 
 .globl main 
 .type main, @function 
 main: 
 .LFB0: 
 .cfi_startproc 
 pushq %rbp 
 .cfi_def_cfa_offset 16 
 .cfi_offset 6, -16 
 movq %rsp, %rbp 
 .cfi_def_cfa_register 6 
 subq $16, %rsp 
 movl $0, -4(%rbp) 
 movl $422178, -4(%rbp) 
 movl -4(%rbp), %eax 
 movl %eax, %esi 
 movl $.LC0, %edi 
 movl $0, %eax 
 call printf 
 movl $0, %eax 
 leave 
 .cfi_def_cfa 7, 8 
 ret 
 .cfi_endproc 
 .LFE0: 
 .size main, .-main 
 .ident "GCC: (Ubuntu 5.4.0-6ubuntu1~16.04.4) 5.4.0 20160609" 
 .section .note.GNU-stack,"",@progbits 
 .file "aritmeticFile339.c" 
 .section .rodata 
 .LC0: 
 .string " a = %d" 
 .text 
 .globl main 
 .type main, @function 
 main: 
 .LFB0: 
 .cfi_startproc 
 pushq %rbp 
 .cfi_def_cfa_offset 16 
 .cfi_offset 6, -16 
 movq %rsp, %rbp 
 .cfi_def_cfa_register 6 
 subq $16, %rsp 
 movl $0, -4(%rbp) 
 movl $86095, -4(%rbp) 
 movl -4(%rbp), %eax 
 movl %eax, %esi 
 movl $.LC0, %edi 
 movl $0, %eax 
 call printf 
 movl $0, %eax 
 leave 
 .cfi_def_cfa 7, 8 
 ret 
 .cfi_endproc 
 .LFE0: 
 .size main, .-main 
 .ident "GCC: (Ubuntu 5.4.0-6ubuntu1~16.04.4) 5.4.0 20160609" 
 .section .note.GNU-stack,"",@progbits 
 .file "aritmeticFile340.c" 
 .section .rodata 
 .LC0: 
 .string " a = %d" 
 .text 
 .globl main 
 .type main, @function 
 main: 
 .LFB0: 
 .cfi_startproc 
 pushq %rbp 
 .cfi_def_cfa_offset 16 
 .cfi_offset 6, -16 
 movq %rsp, %rbp 
 .cfi_def_cfa_register 6 
 subq $16, %rsp 
 movl $0, -4(%rbp) 
 movl $-1638029810, -4(%rbp) 
 movl -4(%rbp), %eax 
 movl %eax, %esi 
 movl $.LC0, %edi 
 movl $0, %eax 
 call printf 
 movl $0, %eax 
 leave 
 .cfi_def_cfa 7, 8 
 ret 
 .cfi_endproc 
 .LFE0: 
 .size main, .-main 
 .ident "GCC: (Ubuntu 5.4.0-6ubuntu1~16.04.4) 5.4.0 20160609" 
 .section .note.GNU-stack,"",@progbits 
 .file "aritmeticFile341.c" 
 .section .rodata 
 .LC0: 
 .string " a = %d" 
 .text 
 .globl main 
 .type main, @function 
 main: 
 .LFB0: 
 .cfi_startproc 
 pushq %rbp 
 .cfi_def_cfa_offset 16 
 .cfi_offset 6, -16 
 movq %rsp, %rbp 
 .cfi_def_cfa_register 6 
 subq $16, %rsp 
 movl $0, -4(%rbp) 
 movl $10, -4(%rbp) 
 movl -4(%rbp), %eax 
 movl %eax, %esi 
 movl $.LC0, %edi 
 movl $0, %eax 
 call printf 
 movl $0, %eax 
 leave 
 .cfi_def_cfa 7, 8 
 ret 
 .cfi_endproc 
 .LFE0: 
 .size main, .-main 
 .ident "GCC: (Ubuntu 5.4.0-6ubuntu1~16.04.4) 5.4.0 20160609" 
 .section .note.GNU-stack,"",@progbits 
 .file "aritmeticFile342.c" 
 .section .rodata 
 .LC0: 
 .string " a = %d" 
 .text 
 .globl main 
 .type main, @function 
 main: 
 .LFB0: 
 .cfi_startproc 
 pushq %rbp 
 .cfi_def_cfa_offset 16 
 .cfi_offset 6, -16 
 movq %rsp, %rbp 
 .cfi_def_cfa_register 6 
 subq $16, %rsp 
 movl $0, -4(%rbp) 
 movl $1935160249, -4(%rbp) 
 movl -4(%rbp), %eax 
 movl %eax, %esi 
 movl $.LC0, %edi 
 movl $0, %eax 
 call printf 
 movl $0, %eax 
 leave 
 .cfi_def_cfa 7, 8 
 ret 
 .cfi_endproc 
 .LFE0: 
 .size main, .-main 
 .ident "GCC: (Ubuntu 5.4.0-6ubuntu1~16.04.4) 5.4.0 20160609" 
 .section .note.GNU-stack,"",@progbits 
 .file "aritmeticFile343.c" 
 .section .rodata 
 .LC0: 
 .string " a = %d" 
 .text 
 .globl main 
 .type main, @function 
 main: 
 .LFB0: 
 .cfi_startproc 
 pushq %rbp 
 .cfi_def_cfa_offset 16 
 .cfi_offset 6, -16 
 movq %rsp, %rbp 
 .cfi_def_cfa_register 6 
 subq $16, %rsp 
 movl $0, -4(%rbp) 
 movl $-212251070, -4(%rbp) 
 movl -4(%rbp), %eax 
 movl %eax, %esi 
 movl $.LC0, %edi 
 movl $0, %eax 
 call printf 
 movl $0, %eax 
 leave 
 .cfi_def_cfa 7, 8 
 ret 
 .cfi_endproc 
 .LFE0: 
 .size main, .-main 
 .ident "GCC: (Ubuntu 5.4.0-6ubuntu1~16.04.4) 5.4.0 20160609" 
 .section .note.GNU-stack,"",@progbits 
 .file "aritmeticFile344.c" 
 .section .rodata 
 .LC0: 
 .string " a = %d" 
 .text 
 .globl main 
 .type main, @function 
 main: 
 .LFB0: 
 .cfi_startproc 
 pushq %rbp 
 .cfi_def_cfa_offset 16 
 .cfi_offset 6, -16 
 movq %rsp, %rbp 
 .cfi_def_cfa_register 6 
 subq $16, %rsp 
 movl $0, -4(%rbp) 
 movl $-390812, -4(%rbp) 
 movl -4(%rbp), %eax 
 movl %eax, %esi 
 movl $.LC0, %edi 
 movl $0, %eax 
 call printf 
 movl $0, %eax 
 leave 
 .cfi_def_cfa 7, 8 
 ret 
 .cfi_endproc 
 .LFE0: 
 .size main, .-main 
 .ident "GCC: (Ubuntu 5.4.0-6ubuntu1~16.04.4) 5.4.0 20160609" 
 .section .note.GNU-stack,"",@progbits 
 .file "aritmeticFile345.c" 
 .section .rodata 
 .LC0: 
 .string " a = %d" 
 .text 
 .globl main 
 .type main, @function 
 main: 
 .LFB0: 
 .cfi_startproc 
 pushq %rbp 
 .cfi_def_cfa_offset 16 
 .cfi_offset 6, -16 
 movq %rsp, %rbp 
 .cfi_def_cfa_register 6 
 subq $16, %rsp 
 movl $0, -4(%rbp) 
 movl $-103623261, -4(%rbp) 
 movl -4(%rbp), %eax 
 movl %eax, %esi 
 movl $.LC0, %edi 
 movl $0, %eax 
 call printf 
 movl $0, %eax 
 leave 
 .cfi_def_cfa 7, 8 
 ret 
 .cfi_endproc 
 .LFE0: 
 .size main, .-main 
 .ident "GCC: (Ubuntu 5.4.0-6ubuntu1~16.04.4) 5.4.0 20160609" 
 .section .note.GNU-stack,"",@progbits 
 .file "aritmeticFile346.c" 
 .section .rodata 
 .LC0: 
 .string " a = %d" 
 .text 
 .globl main 
 .type main, @function 
 main: 
 .LFB0: 
 .cfi_startproc 
 pushq %rbp 
 .cfi_def_cfa_offset 16 
 .cfi_offset 6, -16 
 movq %rsp, %rbp 
 .cfi_def_cfa_register 6 
 subq $16, %rsp 
 movl $0, -4(%rbp) 
 movl $-7749806, -4(%rbp) 
 movl -4(%rbp), %eax 
 movl %eax, %esi 
 movl $.LC0, %edi 
 movl $0, %eax 
 call printf 
 movl $0, %eax 
 leave 
 .cfi_def_cfa 7, 8 
 ret 
 .cfi_endproc 
 .LFE0: 
 .size main, .-main 
 .ident "GCC: (Ubuntu 5.4.0-6ubuntu1~16.04.4) 5.4.0 20160609" 
 .section .note.GNU-stack,"",@progbits 
 .file "aritmeticFile347.c" 
 .section .rodata 
 .LC0: 
 .string " a = %d" 
 .text 
 .globl main 
 .type main, @function 
 main: 
 .LFB0: 
 .cfi_startproc 
 pushq %rbp 
 .cfi_def_cfa_offset 16 
 .cfi_offset 6, -16 
 movq %rsp, %rbp 
 .cfi_def_cfa_register 6 
 subq $16, %rsp 
 movl $0, -4(%rbp) 
 movl $-8472, -4(%rbp) 
 movl -4(%rbp), %eax 
 movl %eax, %esi 
 movl $.LC0, %edi 
 movl $0, %eax 
 call printf 
 movl $0, %eax 
 leave 
 .cfi_def_cfa 7, 8 
 ret 
 .cfi_endproc 
 .LFE0: 
 .size main, .-main 
 .ident "GCC: (Ubuntu 5.4.0-6ubuntu1~16.04.4) 5.4.0 20160609" 
 .section .note.GNU-stack,"",@progbits 
 .file "aritmeticFile348.c" 
 .section .rodata 
 .LC0: 
 .string " a = %d" 
 .text 
 .globl main 
 .type main, @function 
 main: 
 .LFB0: 
 .cfi_startproc 
 pushq %rbp 
 .cfi_def_cfa_offset 16 
 .cfi_offset 6, -16 
 movq %rsp, %rbp 
 .cfi_def_cfa_register 6 
 subq $16, %rsp 
 movl $0, -4(%rbp) 
 movl $0, -4(%rbp) 
 movl -4(%rbp), %eax 
 movl %eax, %esi 
 movl $.LC0, %edi 
 movl $0, %eax 
 call printf 
 movl $0, %eax 
 leave 
 .cfi_def_cfa 7, 8 
 ret 
 .cfi_endproc 
 .LFE0: 
 .size main, .-main 
 .ident "GCC: (Ubuntu 5.4.0-6ubuntu1~16.04.4) 5.4.0 20160609" 
 .section .note.GNU-stack,"",@progbits 
 .file "aritmeticFile349.c" 
 .section .rodata 
 .LC0: 
 .string " a = %d" 
 .text 
 .globl main 
 .type main, @function 
 main: 
 .LFB0: 
 .cfi_startproc 
 pushq %rbp 
 .cfi_def_cfa_offset 16 
 .cfi_offset 6, -16 
 movq %rsp, %rbp 
 .cfi_def_cfa_register 6 
 subq $16, %rsp 
 movl $0, -4(%rbp) 
 movl $578956, -4(%rbp) 
 movl -4(%rbp), %eax 
 movl %eax, %esi 
 movl $.LC0, %edi 
 movl $0, %eax 
 call printf 
 movl $0, %eax 
 leave 
 .cfi_def_cfa 7, 8 
 ret 
 .cfi_endproc 
 .LFE0: 
 .size main, .-main 
 .ident "GCC: (Ubuntu 5.4.0-6ubuntu1~16.04.4) 5.4.0 20160609" 
 .section .note.GNU-stack,"",@progbits 
 .file "aritmeticFile350.c" 
 .section .rodata 
 .LC0: 
 .string " a = %d" 
 .text 
 .globl main 
 .type main, @function 
 main: 
 .LFB0: 
 .cfi_startproc 
 pushq %rbp 
 .cfi_def_cfa_offset 16 
 .cfi_offset 6, -16 
 movq %rsp, %rbp 
 .cfi_def_cfa_register 6 
 subq $16, %rsp 
 movl $0, -4(%rbp) 
 movl $127581313, -4(%rbp) 
 movl -4(%rbp), %eax 
 movl %eax, %esi 
 movl $.LC0, %edi 
 movl $0, %eax 
 call printf 
 movl $0, %eax 
 leave 
 .cfi_def_cfa 7, 8 
 ret 
 .cfi_endproc 
 .LFE0: 
 .size main, .-main 
 .ident "GCC: (Ubuntu 5.4.0-6ubuntu1~16.04.4) 5.4.0 20160609" 
 .section .note.GNU-stack,"",@progbits 
 .file "aritmeticFile351.c" 
 .section .rodata 
 .LC0: 
 .string " a = %d" 
 .text 
 .globl main 
 .type main, @function 
 main: 
 .LFB0: 
 .cfi_startproc 
 pushq %rbp 
 .cfi_def_cfa_offset 16 
 .cfi_offset 6, -16 
 movq %rsp, %rbp 
 .cfi_def_cfa_register 6 
 subq $16, %rsp 
 movl $0, -4(%rbp) 
 movl $62586, -4(%rbp) 
 movl -4(%rbp), %eax 
 movl %eax, %esi 
 movl $.LC0, %edi 
 movl $0, %eax 
 call printf 
 movl $0, %eax 
 leave 
 .cfi_def_cfa 7, 8 
 ret 
 .cfi_endproc 
 .LFE0: 
 .size main, .-main 
 .ident "GCC: (Ubuntu 5.4.0-6ubuntu1~16.04.4) 5.4.0 20160609" 
 .section .note.GNU-stack,"",@progbits 
 .file "aritmeticFile352.c" 
 .section .rodata 
 .LC0: 
 .string " a = %d" 
 .text 
 .globl main 
 .type main, @function 
 main: 
 .LFB0: 
 .cfi_startproc 
 pushq %rbp 
 .cfi_def_cfa_offset 16 
 .cfi_offset 6, -16 
 movq %rsp, %rbp 
 .cfi_def_cfa_register 6 
 subq $16, %rsp 
 movl $0, -4(%rbp) 
 movl $-69804, -4(%rbp) 
 movl -4(%rbp), %eax 
 movl %eax, %esi 
 movl $.LC0, %edi 
 movl $0, %eax 
 call printf 
 movl $0, %eax 
 leave 
 .cfi_def_cfa 7, 8 
 ret 
 .cfi_endproc 
 .LFE0: 
 .size main, .-main 
 .ident "GCC: (Ubuntu 5.4.0-6ubuntu1~16.04.4) 5.4.0 20160609" 
 .section .note.GNU-stack,"",@progbits 
 .file "aritmeticFile353.c" 
 .section .rodata 
 .LC0: 
 .string " a = %d" 
 .text 
 .globl main 
 .type main, @function 
 main: 
 .LFB0: 
 .cfi_startproc 
 pushq %rbp 
 .cfi_def_cfa_offset 16 
 .cfi_offset 6, -16 
 movq %rsp, %rbp 
 .cfi_def_cfa_register 6 
 subq $16, %rsp 
 movl $0, -4(%rbp) 
 movl $-317870, -4(%rbp) 
 movl -4(%rbp), %eax 
 movl %eax, %esi 
 movl $.LC0, %edi 
 movl $0, %eax 
 call printf 
 movl $0, %eax 
 leave 
 .cfi_def_cfa 7, 8 
 ret 
 .cfi_endproc 
 .LFE0: 
 .size main, .-main 
 .ident "GCC: (Ubuntu 5.4.0-6ubuntu1~16.04.4) 5.4.0 20160609" 
 .section .note.GNU-stack,"",@progbits 
 .file "aritmeticFile354.c" 
 .section .rodata 
 .LC0: 
 .string " a = %d" 
 .text 
 .globl main 
 .type main, @function 
 main: 
 .LFB0: 
 .cfi_startproc 
 pushq %rbp 
 .cfi_def_cfa_offset 16 
 .cfi_offset 6, -16 
 movq %rsp, %rbp 
 .cfi_def_cfa_register 6 
 subq $16, %rsp 
 movl $0, -4(%rbp) 
 movl $476849, -4(%rbp) 
 movl -4(%rbp), %eax 
 movl %eax, %esi 
 movl $.LC0, %edi 
 movl $0, %eax 
 call printf 
 movl $0, %eax 
 leave 
 .cfi_def_cfa 7, 8 
 ret 
 .cfi_endproc 
 .LFE0: 
 .size main, .-main 
 .ident "GCC: (Ubuntu 5.4.0-6ubuntu1~16.04.4) 5.4.0 20160609" 
 .section .note.GNU-stack,"",@progbits 
 .file "aritmeticFile355.c" 
 .section .rodata 
 .LC0: 
 .string " a = %d" 
 .text 
 .globl main 
 .type main, @function 
 main: 
 .LFB0: 
 .cfi_startproc 
 pushq %rbp 
 .cfi_def_cfa_offset 16 
 .cfi_offset 6, -16 
 movq %rsp, %rbp 
 .cfi_def_cfa_register 6 
 subq $16, %rsp 
 movl $0, -4(%rbp) 
 movl $745, -4(%rbp) 
 movl -4(%rbp), %eax 
 movl %eax, %esi 
 movl $.LC0, %edi 
 movl $0, %eax 
 call printf 
 movl $0, %eax 
 leave 
 .cfi_def_cfa 7, 8 
 ret 
 .cfi_endproc 
 .LFE0: 
 .size main, .-main 
 .ident "GCC: (Ubuntu 5.4.0-6ubuntu1~16.04.4) 5.4.0 20160609" 
 .section .note.GNU-stack,"",@progbits 
 .file "aritmeticFile356.c" 
 .section .rodata 
 .LC0: 
 .string " a = %d" 
 .text 
 .globl main 
 .type main, @function 
 main: 
 .LFB0: 
 .cfi_startproc 
 pushq %rbp 
 .cfi_def_cfa_offset 16 
 .cfi_offset 6, -16 
 movq %rsp, %rbp 
 .cfi_def_cfa_register 6 
 subq $16, %rsp 
 movl $0, -4(%rbp) 
 movl $386314, -4(%rbp) 
 movl -4(%rbp), %eax 
 movl %eax, %esi 
 movl $.LC0, %edi 
 movl $0, %eax 
 call printf 
 movl $0, %eax 
 leave 
 .cfi_def_cfa 7, 8 
 ret 
 .cfi_endproc 
 .LFE0: 
 .size main, .-main 
 .ident "GCC: (Ubuntu 5.4.0-6ubuntu1~16.04.4) 5.4.0 20160609" 
 .section .note.GNU-stack,"",@progbits 
 .file "aritmeticFile357.c" 
 .section .rodata 
 .LC0: 
 .string " a = %d" 
 .text 
 .globl main 
 .type main, @function 
 main: 
 .LFB0: 
 .cfi_startproc 
 pushq %rbp 
 .cfi_def_cfa_offset 16 
 .cfi_offset 6, -16 
 movq %rsp, %rbp 
 .cfi_def_cfa_register 6 
 subq $16, %rsp 
 movl $0, -4(%rbp) 
 movl $2040559713, -4(%rbp) 
 movl -4(%rbp), %eax 
 movl %eax, %esi 
 movl $.LC0, %edi 
 movl $0, %eax 
 call printf 
 movl $0, %eax 
 leave 
 .cfi_def_cfa 7, 8 
 ret 
 .cfi_endproc 
 .LFE0: 
 .size main, .-main 
 .ident "GCC: (Ubuntu 5.4.0-6ubuntu1~16.04.4) 5.4.0 20160609" 
 .section .note.GNU-stack,"",@progbits 
 .file "aritmeticFile358.c" 
 .section .rodata 
 .LC0: 
 .string " a = %d" 
 .text 
 .globl main 
 .type main, @function 
 main: 
 .LFB0: 
 .cfi_startproc 
 pushq %rbp 
 .cfi_def_cfa_offset 16 
 .cfi_offset 6, -16 
 movq %rsp, %rbp 
 .cfi_def_cfa_register 6 
 subq $16, %rsp 
 movl $0, -4(%rbp) 
 movl $-372, -4(%rbp) 
 movl -4(%rbp), %eax 
 movl %eax, %esi 
 movl $.LC0, %edi 
 movl $0, %eax 
 call printf 
 movl $0, %eax 
 leave 
 .cfi_def_cfa 7, 8 
 ret 
 .cfi_endproc 
 .LFE0: 
 .size main, .-main 
 .ident "GCC: (Ubuntu 5.4.0-6ubuntu1~16.04.4) 5.4.0 20160609" 
 .section .note.GNU-stack,"",@progbits 
 .file "aritmeticFile359.c" 
 .section .rodata 
 .LC0: 
 .string " a = %d" 
 .text 
 .globl main 
 .type main, @function 
 main: 
 .LFB0: 
 .cfi_startproc 
 pushq %rbp 
 .cfi_def_cfa_offset 16 
 .cfi_offset 6, -16 
 movq %rsp, %rbp 
 .cfi_def_cfa_register 6 
 subq $16, %rsp 
 movl $0, -4(%rbp) 
 movl $26850, -4(%rbp) 
 movl -4(%rbp), %eax 
 movl %eax, %esi 
 movl $.LC0, %edi 
 movl $0, %eax 
 call printf 
 movl $0, %eax 
 leave 
 .cfi_def_cfa 7, 8 
 ret 
 .cfi_endproc 
 .LFE0: 
 .size main, .-main 
 .ident "GCC: (Ubuntu 5.4.0-6ubuntu1~16.04.4) 5.4.0 20160609" 
 .section .note.GNU-stack,"",@progbits 
 .file "aritmeticFile360.c" 
 .section .rodata 
 .LC0: 
 .string " a = %d" 
 .text 
 .globl main 
 .type main, @function 
 main: 
 .LFB0: 
 .cfi_startproc 
 pushq %rbp 
 .cfi_def_cfa_offset 16 
 .cfi_offset 6, -16 
 movq %rsp, %rbp 
 .cfi_def_cfa_register 6 
 subq $16, %rsp 
 movl $0, -4(%rbp) 
 movl $-364193, -4(%rbp) 
 movl -4(%rbp), %eax 
 movl %eax, %esi 
 movl $.LC0, %edi 
 movl $0, %eax 
 call printf 
 movl $0, %eax 
 leave 
 .cfi_def_cfa 7, 8 
 ret 
 .cfi_endproc 
 .LFE0: 
 .size main, .-main 
 .ident "GCC: (Ubuntu 5.4.0-6ubuntu1~16.04.4) 5.4.0 20160609" 
 .section .note.GNU-stack,"",@progbits 
 .file "aritmeticFile361.c" 
 .section .rodata 
 .LC0: 
 .string " a = %d" 
 .text 
 .globl main 
 .type main, @function 
 main: 
 .LFB0: 
 .cfi_startproc 
 pushq %rbp 
 .cfi_def_cfa_offset 16 
 .cfi_offset 6, -16 
 movq %rsp, %rbp 
 .cfi_def_cfa_register 6 
 subq $16, %rsp 
 movl $0, -4(%rbp) 
 movl $2305242, -4(%rbp) 
 movl -4(%rbp), %eax 
 movl %eax, %esi 
 movl $.LC0, %edi 
 movl $0, %eax 
 call printf 
 movl $0, %eax 
 leave 
 .cfi_def_cfa 7, 8 
 ret 
 .cfi_endproc 
 .LFE0: 
 .size main, .-main 
 .ident "GCC: (Ubuntu 5.4.0-6ubuntu1~16.04.4) 5.4.0 20160609" 
 .section .note.GNU-stack,"",@progbits 
 .file "aritmeticFile362.c" 
 .section .rodata 
 .LC0: 
 .string " a = %d" 
 .text 
 .globl main 
 .type main, @function 
 main: 
 .LFB0: 
 .cfi_startproc 
 pushq %rbp 
 .cfi_def_cfa_offset 16 
 .cfi_offset 6, -16 
 movq %rsp, %rbp 
 .cfi_def_cfa_register 6 
 subq $16, %rsp 
 movl $0, -4(%rbp) 
 movl $551924, -4(%rbp) 
 movl -4(%rbp), %eax 
 movl %eax, %esi 
 movl $.LC0, %edi 
 movl $0, %eax 
 call printf 
 movl $0, %eax 
 leave 
 .cfi_def_cfa 7, 8 
 ret 
 .cfi_endproc 
 .LFE0: 
 .size main, .-main 
 .ident "GCC: (Ubuntu 5.4.0-6ubuntu1~16.04.4) 5.4.0 20160609" 
 .section .note.GNU-stack,"",@progbits 
 .file "aritmeticFile363.c" 
 .section .rodata 
 .LC0: 
 .string " a = %d" 
 .text 
 .globl main 
 .type main, @function 
 main: 
 .LFB0: 
 .cfi_startproc 
 pushq %rbp 
 .cfi_def_cfa_offset 16 
 .cfi_offset 6, -16 
 movq %rsp, %rbp 
 .cfi_def_cfa_register 6 
 subq $16, %rsp 
 movl $0, -4(%rbp) 
 movl $291, -4(%rbp) 
 movl -4(%rbp), %eax 
 movl %eax, %esi 
 movl $.LC0, %edi 
 movl $0, %eax 
 call printf 
 movl $0, %eax 
 leave 
 .cfi_def_cfa 7, 8 
 ret 
 .cfi_endproc 
 .LFE0: 
 .size main, .-main 
 .ident "GCC: (Ubuntu 5.4.0-6ubuntu1~16.04.4) 5.4.0 20160609" 
 .section .note.GNU-stack,"",@progbits 
 .file "aritmeticFile364.c" 
 .section .rodata 
 .LC0: 
 .string " a = %d" 
 .text 
 .globl main 
 .type main, @function 
 main: 
 .LFB0: 
 .cfi_startproc 
 pushq %rbp 
 .cfi_def_cfa_offset 16 
 .cfi_offset 6, -16 
 movq %rsp, %rbp 
 .cfi_def_cfa_register 6 
 subq $16, %rsp 
 movl $0, -4(%rbp) 
 movl $169490, -4(%rbp) 
 movl -4(%rbp), %eax 
 movl %eax, %esi 
 movl $.LC0, %edi 
 movl $0, %eax 
 call printf 
 movl $0, %eax 
 leave 
 .cfi_def_cfa 7, 8 
 ret 
 .cfi_endproc 
 .LFE0: 
 .size main, .-main 
 .ident "GCC: (Ubuntu 5.4.0-6ubuntu1~16.04.4) 5.4.0 20160609" 
 .section .note.GNU-stack,"",@progbits 
 .file "aritmeticFile365.c" 
 .section .rodata 
 .LC0: 
 .string " a = %d" 
 .text 
 .globl main 
 .type main, @function 
 main: 
 .LFB0: 
 .cfi_startproc 
 pushq %rbp 
 .cfi_def_cfa_offset 16 
 .cfi_offset 6, -16 
 movq %rsp, %rbp 
 .cfi_def_cfa_register 6 
 subq $16, %rsp 
 movl $0, -4(%rbp) 
 movl $10, -4(%rbp) 
 movl -4(%rbp), %eax 
 movl %eax, %esi 
 movl $.LC0, %edi 
 movl $0, %eax 
 call printf 
 movl $0, %eax 
 leave 
 .cfi_def_cfa 7, 8 
 ret 
 .cfi_endproc 
 .LFE0: 
 .size main, .-main 
 .ident "GCC: (Ubuntu 5.4.0-6ubuntu1~16.04.4) 5.4.0 20160609" 
 .section .note.GNU-stack,"",@progbits 
 .file "aritmeticFile366.c" 
 .section .rodata 
 .LC0: 
 .string " a = %d" 
 .text 
 .globl main 
 .type main, @function 
 main: 
 .LFB0: 
 .cfi_startproc 
 pushq %rbp 
 .cfi_def_cfa_offset 16 
 .cfi_offset 6, -16 
 movq %rsp, %rbp 
 .cfi_def_cfa_register 6 
 subq $16, %rsp 
 movl $0, -4(%rbp) 
 movl $175569680, -4(%rbp) 
 movl -4(%rbp), %eax 
 movl %eax, %esi 
 movl $.LC0, %edi 
 movl $0, %eax 
 call printf 
 movl $0, %eax 
 leave 
 .cfi_def_cfa 7, 8 
 ret 
 .cfi_endproc 
 .LFE0: 
 .size main, .-main 
 .ident "GCC: (Ubuntu 5.4.0-6ubuntu1~16.04.4) 5.4.0 20160609" 
 .section .note.GNU-stack,"",@progbits 
 .file "aritmeticFile367.c" 
 .section .rodata 
 .LC0: 
 .string " a = %d" 
 .text 
 .globl main 
 .type main, @function 
 main: 
 .LFB0: 
 .cfi_startproc 
 pushq %rbp 
 .cfi_def_cfa_offset 16 
 .cfi_offset 6, -16 
 movq %rsp, %rbp 
 .cfi_def_cfa_register 6 
 subq $16, %rsp 
 movl $0, -4(%rbp) 
 movl $0, -4(%rbp) 
 movl -4(%rbp), %eax 
 movl %eax, %esi 
 movl $.LC0, %edi 
 movl $0, %eax 
 call printf 
 movl $0, %eax 
 leave 
 .cfi_def_cfa 7, 8 
 ret 
 .cfi_endproc 
 .LFE0: 
 .size main, .-main 
 .ident "GCC: (Ubuntu 5.4.0-6ubuntu1~16.04.4) 5.4.0 20160609" 
 .section .note.GNU-stack,"",@progbits 
 .file "aritmeticFile368.c" 
 .section .rodata 
 .LC0: 
 .string " a = %d" 
 .text 
 .globl main 
 .type main, @function 
 main: 
 .LFB0: 
 .cfi_startproc 
 pushq %rbp 
 .cfi_def_cfa_offset 16 
 .cfi_offset 6, -16 
 movq %rsp, %rbp 
 .cfi_def_cfa_register 6 
 subq $16, %rsp 
 movl $0, -4(%rbp) 
 movl $2816, -4(%rbp) 
 movl -4(%rbp), %eax 
 movl %eax, %esi 
 movl $.LC0, %edi 
 movl $0, %eax 
 call printf 
 movl $0, %eax 
 leave 
 .cfi_def_cfa 7, 8 
 ret 
 .cfi_endproc 
 .LFE0: 
 .size main, .-main 
 .ident "GCC: (Ubuntu 5.4.0-6ubuntu1~16.04.4) 5.4.0 20160609" 
 .section .note.GNU-stack,"",@progbits 
 .file "aritmeticFile369.c" 
 .section .rodata 
 .LC0: 
 .string " a = %d" 
 .text 
 .globl main 
 .type main, @function 
 main: 
 .LFB0: 
 .cfi_startproc 
 pushq %rbp 
 .cfi_def_cfa_offset 16 
 .cfi_offset 6, -16 
 movq %rsp, %rbp 
 .cfi_def_cfa_register 6 
 subq $16, %rsp 
 movl $0, -4(%rbp) 
 movl $179284418, -4(%rbp) 
 movl -4(%rbp), %eax 
 movl %eax, %esi 
 movl $.LC0, %edi 
 movl $0, %eax 
 call printf 
 movl $0, %eax 
 leave 
 .cfi_def_cfa 7, 8 
 ret 
 .cfi_endproc 
 .LFE0: 
 .size main, .-main 
 .ident "GCC: (Ubuntu 5.4.0-6ubuntu1~16.04.4) 5.4.0 20160609" 
 .section .note.GNU-stack,"",@progbits 
 .file "aritmeticFile370.c" 
 .section .rodata 
 .LC0: 
 .string " a = %d" 
 .text 
 .globl main 
 .type main, @function 
 main: 
 .LFB0: 
 .cfi_startproc 
 pushq %rbp 
 .cfi_def_cfa_offset 16 
 .cfi_offset 6, -16 
 movq %rsp, %rbp 
 .cfi_def_cfa_register 6 
 subq $16, %rsp 
 movl $0, -4(%rbp) 
 movl $751, -4(%rbp) 
 movl -4(%rbp), %eax 
 movl %eax, %esi 
 movl $.LC0, %edi 
 movl $0, %eax 
 call printf 
 movl $0, %eax 
 leave 
 .cfi_def_cfa 7, 8 
 ret 
 .cfi_endproc 
 .LFE0: 
 .size main, .-main 
 .ident "GCC: (Ubuntu 5.4.0-6ubuntu1~16.04.4) 5.4.0 20160609" 
 .section .note.GNU-stack,"",@progbits 
 .file "aritmeticFile371.c" 
 .section .rodata 
 .LC0: 
 .string " a = %d" 
 .text 
 .globl main 
 .type main, @function 
 main: 
 .LFB0: 
 .cfi_startproc 
 pushq %rbp 
 .cfi_def_cfa_offset 16 
 .cfi_offset 6, -16 
 movq %rsp, %rbp 
 .cfi_def_cfa_register 6 
 subq $16, %rsp 
 movl $0, -4(%rbp) 
 movl $0, -4(%rbp) 
 movl -4(%rbp), %eax 
 movl %eax, %esi 
 movl $.LC0, %edi 
 movl $0, %eax 
 call printf 
 movl $0, %eax 
 leave 
 .cfi_def_cfa 7, 8 
 ret 
 .cfi_endproc 
 .LFE0: 
 .size main, .-main 
 .ident "GCC: (Ubuntu 5.4.0-6ubuntu1~16.04.4) 5.4.0 20160609" 
 .section .note.GNU-stack,"",@progbits 
 .file "aritmeticFile372.c" 
 .section .rodata 
 .LC0: 
 .string " a = %d" 
 .text 
 .globl main 
 .type main, @function 
 main: 
 .LFB0: 
 .cfi_startproc 
 pushq %rbp 
 .cfi_def_cfa_offset 16 
 .cfi_offset 6, -16 
 movq %rsp, %rbp 
 .cfi_def_cfa_register 6 
 subq $16, %rsp 
 movl $0, -4(%rbp) 
 movl $-232042, -4(%rbp) 
 movl -4(%rbp), %eax 
 movl %eax, %esi 
 movl $.LC0, %edi 
 movl $0, %eax 
 call printf 
 movl $0, %eax 
 leave 
 .cfi_def_cfa 7, 8 
 ret 
 .cfi_endproc 
 .LFE0: 
 .size main, .-main 
 .ident "GCC: (Ubuntu 5.4.0-6ubuntu1~16.04.4) 5.4.0 20160609" 
 .section .note.GNU-stack,"",@progbits 
 .file "aritmeticFile373.c" 
 .section .rodata 
 .LC0: 
 .string " a = %d" 
 .text 
 .globl main 
 .type main, @function 
 main: 
 .LFB0: 
 .cfi_startproc 
 pushq %rbp 
 .cfi_def_cfa_offset 16 
 .cfi_offset 6, -16 
 movq %rsp, %rbp 
 .cfi_def_cfa_register 6 
 subq $16, %rsp 
 movl $0, -4(%rbp) 
 movl $44997, -4(%rbp) 
 movl -4(%rbp), %eax 
 movl %eax, %esi 
 movl $.LC0, %edi 
 movl $0, %eax 
 call printf 
 movl $0, %eax 
 leave 
 .cfi_def_cfa 7, 8 
 ret 
 .cfi_endproc 
 .LFE0: 
 .size main, .-main 
 .ident "GCC: (Ubuntu 5.4.0-6ubuntu1~16.04.4) 5.4.0 20160609" 
 .section .note.GNU-stack,"",@progbits 
 .file "aritmeticFile374.c" 
 .section .rodata 
 .LC0: 
 .string " a = %d" 
 .text 
 .globl main 
 .type main, @function 
 main: 
 .LFB0: 
 .cfi_startproc 
 pushq %rbp 
 .cfi_def_cfa_offset 16 
 .cfi_offset 6, -16 
 movq %rsp, %rbp 
 .cfi_def_cfa_register 6 
 subq $16, %rsp 
 movl $0, -4(%rbp) 
 movl $-4, -4(%rbp) 
 movl -4(%rbp), %eax 
 movl %eax, %esi 
 movl $.LC0, %edi 
 movl $0, %eax 
 call printf 
 movl $0, %eax 
 leave 
 .cfi_def_cfa 7, 8 
 ret 
 .cfi_endproc 
 .LFE0: 
 .size main, .-main 
 .ident "GCC: (Ubuntu 5.4.0-6ubuntu1~16.04.4) 5.4.0 20160609" 
 .section .note.GNU-stack,"",@progbits 
 .file "aritmeticFile375.c" 
 .section .rodata 
 .LC0: 
 .string " a = %d" 
 .text 
 .globl main 
 .type main, @function 
 main: 
 .LFB0: 
 .cfi_startproc 
 pushq %rbp 
 .cfi_def_cfa_offset 16 
 .cfi_offset 6, -16 
 movq %rsp, %rbp 
 .cfi_def_cfa_register 6 
 subq $16, %rsp 
 movl $0, -4(%rbp) 
 movl $887647, -4(%rbp) 
 movl -4(%rbp), %eax 
 movl %eax, %esi 
 movl $.LC0, %edi 
 movl $0, %eax 
 call printf 
 movl $0, %eax 
 leave 
 .cfi_def_cfa 7, 8 
 ret 
 .cfi_endproc 
 .LFE0: 
 .size main, .-main 
 .ident "GCC: (Ubuntu 5.4.0-6ubuntu1~16.04.4) 5.4.0 20160609" 
 .section .note.GNU-stack,"",@progbits 
 .file "aritmeticFile376.c" 
 .section .rodata 
 .LC0: 
 .string " a = %d" 
 .text 
 .globl main 
 .type main, @function 
 main: 
 .LFB0: 
 .cfi_startproc 
 pushq %rbp 
 .cfi_def_cfa_offset 16 
 .cfi_offset 6, -16 
 movq %rsp, %rbp 
 .cfi_def_cfa_register 6 
 subq $16, %rsp 
 movl $0, -4(%rbp) 
 movl $-3399, -4(%rbp) 
 movl -4(%rbp), %eax 
 movl %eax, %esi 
 movl $.LC0, %edi 
 movl $0, %eax 
 call printf 
 movl $0, %eax 
 leave 
 .cfi_def_cfa 7, 8 
 ret 
 .cfi_endproc 
 .LFE0: 
 .size main, .-main 
 .ident "GCC: (Ubuntu 5.4.0-6ubuntu1~16.04.4) 5.4.0 20160609" 
 .section .note.GNU-stack,"",@progbits 
 .file "aritmeticFile377.c" 
 .section .rodata 
 .LC0: 
 .string " a = %d" 
 .text 
 .globl main 
 .type main, @function 
 main: 
 .LFB0: 
 .cfi_startproc 
 pushq %rbp 
 .cfi_def_cfa_offset 16 
 .cfi_offset 6, -16 
 movq %rsp, %rbp 
 .cfi_def_cfa_register 6 
 subq $16, %rsp 
 movl $0, -4(%rbp) 
 movl $1979113, -4(%rbp) 
 movl -4(%rbp), %eax 
 movl %eax, %esi 
 movl $.LC0, %edi 
 movl $0, %eax 
 call printf 
 movl $0, %eax 
 leave 
 .cfi_def_cfa 7, 8 
 ret 
 .cfi_endproc 
 .LFE0: 
 .size main, .-main 
 .ident "GCC: (Ubuntu 5.4.0-6ubuntu1~16.04.4) 5.4.0 20160609" 
 .section .note.GNU-stack,"",@progbits 
 .file "aritmeticFile378.c" 
 .section .rodata 
 .LC0: 
 .string " a = %d" 
 .text 
 .globl main 
 .type main, @function 
 main: 
 .LFB0: 
 .cfi_startproc 
 pushq %rbp 
 .cfi_def_cfa_offset 16 
 .cfi_offset 6, -16 
 movq %rsp, %rbp 
 .cfi_def_cfa_register 6 
 subq $16, %rsp 
 movl $0, -4(%rbp) 
 movl $-43506762, -4(%rbp) 
 movl -4(%rbp), %eax 
 movl %eax, %esi 
 movl $.LC0, %edi 
 movl $0, %eax 
 call printf 
 movl $0, %eax 
 leave 
 .cfi_def_cfa 7, 8 
 ret 
 .cfi_endproc 
 .LFE0: 
 .size main, .-main 
 .ident "GCC: (Ubuntu 5.4.0-6ubuntu1~16.04.4) 5.4.0 20160609" 
 .section .note.GNU-stack,"",@progbits 
 .file "aritmeticFile379.c" 
 .section .rodata 
 .LC0: 
 .string " a = %d" 
 .text 
 .globl main 
 .type main, @function 
 main: 
 .LFB0: 
 .cfi_startproc 
 pushq %rbp 
 .cfi_def_cfa_offset 16 
 .cfi_offset 6, -16 
 movq %rsp, %rbp 
 .cfi_def_cfa_register 6 
 subq $16, %rsp 
 movl $0, -4(%rbp) 
 movl $-17147, -4(%rbp) 
 movl -4(%rbp), %eax 
 movl %eax, %esi 
 movl $.LC0, %edi 
 movl $0, %eax 
 call printf 
 movl $0, %eax 
 leave 
 .cfi_def_cfa 7, 8 
 ret 
 .cfi_endproc 
 .LFE0: 
 .size main, .-main 
 .ident "GCC: (Ubuntu 5.4.0-6ubuntu1~16.04.4) 5.4.0 20160609" 
 .section .note.GNU-stack,"",@progbits 
 .file "aritmeticFile380.c" 
 .section .rodata 
 .LC0: 
 .string " a = %d" 
 .text 
 .globl main 
 .type main, @function 
 main: 
 .LFB0: 
 .cfi_startproc 
 pushq %rbp 
 .cfi_def_cfa_offset 16 
 .cfi_offset 6, -16 
 movq %rsp, %rbp 
 .cfi_def_cfa_register 6 
 subq $16, %rsp 
 movl $0, -4(%rbp) 
 movl $-515, -4(%rbp) 
 movl -4(%rbp), %eax 
 movl %eax, %esi 
 movl $.LC0, %edi 
 movl $0, %eax 
 call printf 
 movl $0, %eax 
 leave 
 .cfi_def_cfa 7, 8 
 ret 
 .cfi_endproc 
 .LFE0: 
 .size main, .-main 
 .ident "GCC: (Ubuntu 5.4.0-6ubuntu1~16.04.4) 5.4.0 20160609" 
 .section .note.GNU-stack,"",@progbits 
 .file "aritmeticFile381.c" 
 .section .rodata 
 .LC0: 
 .string " a = %d" 
 .text 
 .globl main 
 .type main, @function 
 main: 
 .LFB0: 
 .cfi_startproc 
 pushq %rbp 
 .cfi_def_cfa_offset 16 
 .cfi_offset 6, -16 
 movq %rsp, %rbp 
 .cfi_def_cfa_register 6 
 subq $16, %rsp 
 movl $0, -4(%rbp) 
 movl $-656, -4(%rbp) 
 movl -4(%rbp), %eax 
 movl %eax, %esi 
 movl $.LC0, %edi 
 movl $0, %eax 
 call printf 
 movl $0, %eax 
 leave 
 .cfi_def_cfa 7, 8 
 ret 
 .cfi_endproc 
 .LFE0: 
 .size main, .-main 
 .ident "GCC: (Ubuntu 5.4.0-6ubuntu1~16.04.4) 5.4.0 20160609" 
 .section .note.GNU-stack,"",@progbits 
 .file "aritmeticFile382.c" 
 .section .rodata 
 .LC0: 
 .string " a = %d" 
 .text 
 .globl main 
 .type main, @function 
 main: 
 .LFB0: 
 .cfi_startproc 
 pushq %rbp 
 .cfi_def_cfa_offset 16 
 .cfi_offset 6, -16 
 movq %rsp, %rbp 
 .cfi_def_cfa_register 6 
 subq $16, %rsp 
 movl $0, -4(%rbp) 
 movl $251832, -4(%rbp) 
 movl -4(%rbp), %eax 
 movl %eax, %esi 
 movl $.LC0, %edi 
 movl $0, %eax 
 call printf 
 movl $0, %eax 
 leave 
 .cfi_def_cfa 7, 8 
 ret 
 .cfi_endproc 
 .LFE0: 
 .size main, .-main 
 .ident "GCC: (Ubuntu 5.4.0-6ubuntu1~16.04.4) 5.4.0 20160609" 
 .section .note.GNU-stack,"",@progbits 
 .file "aritmeticFile383.c" 
 .section .rodata 
 .LC0: 
 .string " a = %d" 
 .text 
 .globl main 
 .type main, @function 
 main: 
 .LFB0: 
 .cfi_startproc 
 pushq %rbp 
 .cfi_def_cfa_offset 16 
 .cfi_offset 6, -16 
 movq %rsp, %rbp 
 .cfi_def_cfa_register 6 
 subq $16, %rsp 
 movl $0, -4(%rbp) 
 movl $2784, -4(%rbp) 
 movl -4(%rbp), %eax 
 movl %eax, %esi 
 movl $.LC0, %edi 
 movl $0, %eax 
 call printf 
 movl $0, %eax 
 leave 
 .cfi_def_cfa 7, 8 
 ret 
 .cfi_endproc 
 .LFE0: 
 .size main, .-main 
 .ident "GCC: (Ubuntu 5.4.0-6ubuntu1~16.04.4) 5.4.0 20160609" 
 .section .note.GNU-stack,"",@progbits 
 .file "aritmeticFile384.c" 
 .section .rodata 
 .LC0: 
 .string " a = %d" 
 .text 
 .globl main 
 .type main, @function 
 main: 
 .LFB0: 
 .cfi_startproc 
 pushq %rbp 
 .cfi_def_cfa_offset 16 
 .cfi_offset 6, -16 
 movq %rsp, %rbp 
 .cfi_def_cfa_register 6 
 subq $16, %rsp 
 movl $0, -4(%rbp) 
 movl $3269, -4(%rbp) 
 movl -4(%rbp), %eax 
 movl %eax, %esi 
 movl $.LC0, %edi 
 movl $0, %eax 
 call printf 
 movl $0, %eax 
 leave 
 .cfi_def_cfa 7, 8 
 ret 
 .cfi_endproc 
 .LFE0: 
 .size main, .-main 
 .ident "GCC: (Ubuntu 5.4.0-6ubuntu1~16.04.4) 5.4.0 20160609" 
 .section .note.GNU-stack,"",@progbits 
 .file "aritmeticFile385.c" 
 .section .rodata 
 .LC0: 
 .string " a = %d" 
 .text 
 .globl main 
 .type main, @function 
 main: 
 .LFB0: 
 .cfi_startproc 
 pushq %rbp 
 .cfi_def_cfa_offset 16 
 .cfi_offset 6, -16 
 movq %rsp, %rbp 
 .cfi_def_cfa_register 6 
 subq $16, %rsp 
 movl $0, -4(%rbp) 
 movl $1298, -4(%rbp) 
 movl -4(%rbp), %eax 
 movl %eax, %esi 
 movl $.LC0, %edi 
 movl $0, %eax 
 call printf 
 movl $0, %eax 
 leave 
 .cfi_def_cfa 7, 8 
 ret 
 .cfi_endproc 
 .LFE0: 
 .size main, .-main 
 .ident "GCC: (Ubuntu 5.4.0-6ubuntu1~16.04.4) 5.4.0 20160609" 
 .section .note.GNU-stack,"",@progbits 
 .file "aritmeticFile386.c" 
 .section .rodata 
 .LC0: 
 .string " a = %d" 
 .text 
 .globl main 
 .type main, @function 
 main: 
 .LFB0: 
 .cfi_startproc 
 pushq %rbp 
 .cfi_def_cfa_offset 16 
 .cfi_offset 6, -16 
 movq %rsp, %rbp 
 .cfi_def_cfa_register 6 
 subq $16, %rsp 
 movl $0, -4(%rbp) 
 movl $-3663, -4(%rbp) 
 movl -4(%rbp), %eax 
 movl %eax, %esi 
 movl $.LC0, %edi 
 movl $0, %eax 
 call printf 
 movl $0, %eax 
 leave 
 .cfi_def_cfa 7, 8 
 ret 
 .cfi_endproc 
 .LFE0: 
 .size main, .-main 
 .ident "GCC: (Ubuntu 5.4.0-6ubuntu1~16.04.4) 5.4.0 20160609" 
 .section .note.GNU-stack,"",@progbits 
 .file "aritmeticFile387.c" 
 .section .rodata 
 .LC0: 
 .string " a = %d" 
 .text 
 .globl main 
 .type main, @function 
 main: 
 .LFB0: 
 .cfi_startproc 
 pushq %rbp 
 .cfi_def_cfa_offset 16 
 .cfi_offset 6, -16 
 movq %rsp, %rbp 
 .cfi_def_cfa_register 6 
 subq $16, %rsp 
 movl $0, -4(%rbp) 
 movl $1221, -4(%rbp) 
 movl -4(%rbp), %eax 
 movl %eax, %esi 
 movl $.LC0, %edi 
 movl $0, %eax 
 call printf 
 movl $0, %eax 
 leave 
 .cfi_def_cfa 7, 8 
 ret 
 .cfi_endproc 
 .LFE0: 
 .size main, .-main 
 .ident "GCC: (Ubuntu 5.4.0-6ubuntu1~16.04.4) 5.4.0 20160609" 
 .section .note.GNU-stack,"",@progbits 
 .file "aritmeticFile388.c" 
 .section .rodata 
 .LC0: 
 .string " a = %d" 
 .text 
 .globl main 
 .type main, @function 
 main: 
 .LFB0: 
 .cfi_startproc 
 pushq %rbp 
 .cfi_def_cfa_offset 16 
 .cfi_offset 6, -16 
 movq %rsp, %rbp 
 .cfi_def_cfa_register 6 
 subq $16, %rsp 
 movl $0, -4(%rbp) 
 movl $-248727, -4(%rbp) 
 movl -4(%rbp), %eax 
 movl %eax, %esi 
 movl $.LC0, %edi 
 movl $0, %eax 
 call printf 
 movl $0, %eax 
 leave 
 .cfi_def_cfa 7, 8 
 ret 
 .cfi_endproc 
 .LFE0: 
 .size main, .-main 
 .ident "GCC: (Ubuntu 5.4.0-6ubuntu1~16.04.4) 5.4.0 20160609" 
 .section .note.GNU-stack,"",@progbits 
 .file "aritmeticFile389.c" 
 .section .rodata 
 .LC0: 
 .string " a = %d" 
 .text 
 .globl main 
 .type main, @function 
 main: 
 .LFB0: 
 .cfi_startproc 
 pushq %rbp 
 .cfi_def_cfa_offset 16 
 .cfi_offset 6, -16 
 movq %rsp, %rbp 
 .cfi_def_cfa_register 6 
 subq $16, %rsp 
 movl $0, -4(%rbp) 
 movl $-13306, -4(%rbp) 
 movl -4(%rbp), %eax 
 movl %eax, %esi 
 movl $.LC0, %edi 
 movl $0, %eax 
 call printf 
 movl $0, %eax 
 leave 
 .cfi_def_cfa 7, 8 
 ret 
 .cfi_endproc 
 .LFE0: 
 .size main, .-main 
 .ident "GCC: (Ubuntu 5.4.0-6ubuntu1~16.04.4) 5.4.0 20160609" 
 .section .note.GNU-stack,"",@progbits 
 .file "aritmeticFile390.c" 
 .section .rodata 
 .LC0: 
 .string " a = %d" 
 .text 
 .globl main 
 .type main, @function 
 main: 
 .LFB0: 
 .cfi_startproc 
 pushq %rbp 
 .cfi_def_cfa_offset 16 
 .cfi_offset 6, -16 
 movq %rsp, %rbp 
 .cfi_def_cfa_register 6 
 subq $16, %rsp 
 movl $0, -4(%rbp) 
 movl $12880, -4(%rbp) 
 movl -4(%rbp), %eax 
 movl %eax, %esi 
 movl $.LC0, %edi 
 movl $0, %eax 
 call printf 
 movl $0, %eax 
 leave 
 .cfi_def_cfa 7, 8 
 ret 
 .cfi_endproc 
 .LFE0: 
 .size main, .-main 
 .ident "GCC: (Ubuntu 5.4.0-6ubuntu1~16.04.4) 5.4.0 20160609" 
 .section .note.GNU-stack,"",@progbits 
 .file "aritmeticFile391.c" 
 .section .rodata 
 .LC0: 
 .string " a = %d" 
 .text 
 .globl main 
 .type main, @function 
 main: 
 .LFB0: 
 .cfi_startproc 
 pushq %rbp 
 .cfi_def_cfa_offset 16 
 .cfi_offset 6, -16 
 movq %rsp, %rbp 
 .cfi_def_cfa_register 6 
 subq $16, %rsp 
 movl $0, -4(%rbp) 
 movl $-94398746, -4(%rbp) 
 movl -4(%rbp), %eax 
 movl %eax, %esi 
 movl $.LC0, %edi 
 movl $0, %eax 
 call printf 
 movl $0, %eax 
 leave 
 .cfi_def_cfa 7, 8 
 ret 
 .cfi_endproc 
 .LFE0: 
 .size main, .-main 
 .ident "GCC: (Ubuntu 5.4.0-6ubuntu1~16.04.4) 5.4.0 20160609" 
 .section .note.GNU-stack,"",@progbits 
 .file "aritmeticFile392.c" 
 .section .rodata 
 .LC0: 
 .string " a = %d" 
 .text 
 .globl main 
 .type main, @function 
 main: 
 .LFB0: 
 .cfi_startproc 
 pushq %rbp 
 .cfi_def_cfa_offset 16 
 .cfi_offset 6, -16 
 movq %rsp, %rbp 
 .cfi_def_cfa_register 6 
 subq $16, %rsp 
 movl $0, -4(%rbp) 
 movl $9749, -4(%rbp) 
 movl -4(%rbp), %eax 
 movl %eax, %esi 
 movl $.LC0, %edi 
 movl $0, %eax 
 call printf 
 movl $0, %eax 
 leave 
 .cfi_def_cfa 7, 8 
 ret 
 .cfi_endproc 
 .LFE0: 
 .size main, .-main 
 .ident "GCC: (Ubuntu 5.4.0-6ubuntu1~16.04.4) 5.4.0 20160609" 
 .section .note.GNU-stack,"",@progbits 
 .file "aritmeticFile393.c" 
 .section .rodata 
 .LC0: 
 .string " a = %d" 
 .text 
 .globl main 
 .type main, @function 
 main: 
 .LFB0: 
 .cfi_startproc 
 pushq %rbp 
 .cfi_def_cfa_offset 16 
 .cfi_offset 6, -16 
 movq %rsp, %rbp 
 .cfi_def_cfa_register 6 
 subq $16, %rsp 
 movl $0, -4(%rbp) 
 movl $6404958, -4(%rbp) 
 movl -4(%rbp), %eax 
 movl %eax, %esi 
 movl $.LC0, %edi 
 movl $0, %eax 
 call printf 
 movl $0, %eax 
 leave 
 .cfi_def_cfa 7, 8 
 ret 
 .cfi_endproc 
 .LFE0: 
 .size main, .-main 
 .ident "GCC: (Ubuntu 5.4.0-6ubuntu1~16.04.4) 5.4.0 20160609" 
 .section .note.GNU-stack,"",@progbits 
 .file "aritmeticFile394.c" 
 .section .rodata 
 .LC0: 
 .string " a = %d" 
 .text 
 .globl main 
 .type main, @function 
 main: 
 .LFB0: 
 .cfi_startproc 
 pushq %rbp 
 .cfi_def_cfa_offset 16 
 .cfi_offset 6, -16 
 movq %rsp, %rbp 
 .cfi_def_cfa_register 6 
 subq $16, %rsp 
 movl $0, -4(%rbp) 
 movl $0, -4(%rbp) 
 movl -4(%rbp), %eax 
 movl %eax, %esi 
 movl $.LC0, %edi 
 movl $0, %eax 
 call printf 
 movl $0, %eax 
 leave 
 .cfi_def_cfa 7, 8 
 ret 
 .cfi_endproc 
 .LFE0: 
 .size main, .-main 
 .ident "GCC: (Ubuntu 5.4.0-6ubuntu1~16.04.4) 5.4.0 20160609" 
 .section .note.GNU-stack,"",@progbits 
 .file "aritmeticFile395.c" 
 .section .rodata 
 .LC0: 
 .string " a = %d" 
 .text 
 .globl main 
 .type main, @function 
 main: 
 .LFB0: 
 .cfi_startproc 
 pushq %rbp 
 .cfi_def_cfa_offset 16 
 .cfi_offset 6, -16 
 movq %rsp, %rbp 
 .cfi_def_cfa_register 6 
 subq $16, %rsp 
 movl $0, -4(%rbp) 
 movl $509931, -4(%rbp) 
 movl -4(%rbp), %eax 
 movl %eax, %esi 
 movl $.LC0, %edi 
 movl $0, %eax 
 call printf 
 movl $0, %eax 
 leave 
 .cfi_def_cfa 7, 8 
 ret 
 .cfi_endproc 
 .LFE0: 
 .size main, .-main 
 .ident "GCC: (Ubuntu 5.4.0-6ubuntu1~16.04.4) 5.4.0 20160609" 
 .section .note.GNU-stack,"",@progbits 
 .file "aritmeticFile396.c" 
 .section .rodata 
 .LC0: 
 .string " a = %d" 
 .text 
 .globl main 
 .type main, @function 
 main: 
 .LFB0: 
 .cfi_startproc 
 pushq %rbp 
 .cfi_def_cfa_offset 16 
 .cfi_offset 6, -16 
 movq %rsp, %rbp 
 .cfi_def_cfa_register 6 
 subq $16, %rsp 
 movl $0, -4(%rbp) 
 movl $262946, -4(%rbp) 
 movl -4(%rbp), %eax 
 movl %eax, %esi 
 movl $.LC0, %edi 
 movl $0, %eax 
 call printf 
 movl $0, %eax 
 leave 
 .cfi_def_cfa 7, 8 
 ret 
 .cfi_endproc 
 .LFE0: 
 .size main, .-main 
 .ident "GCC: (Ubuntu 5.4.0-6ubuntu1~16.04.4) 5.4.0 20160609" 
 .section .note.GNU-stack,"",@progbits 
 .file "aritmeticFile397.c" 
 .section .rodata 
 .LC0: 
 .string " a = %d" 
 .text 
 .globl main 
 .type main, @function 
 main: 
 .LFB0: 
 .cfi_startproc 
 pushq %rbp 
 .cfi_def_cfa_offset 16 
 .cfi_offset 6, -16 
 movq %rsp, %rbp 
 .cfi_def_cfa_register 6 
 subq $16, %rsp 
 movl $0, -4(%rbp) 
 movl $-195544167, -4(%rbp) 
 movl -4(%rbp), %eax 
 movl %eax, %esi 
 movl $.LC0, %edi 
 movl $0, %eax 
 call printf 
 movl $0, %eax 
 leave 
 .cfi_def_cfa 7, 8 
 ret 
 .cfi_endproc 
 .LFE0: 
 .size main, .-main 
 .ident "GCC: (Ubuntu 5.4.0-6ubuntu1~16.04.4) 5.4.0 20160609" 
 .section .note.GNU-stack,"",@progbits 
 .file "aritmeticFile398.c" 
 .section .rodata 
 .LC0: 
 .string " a = %d" 
 .text 
 .globl main 
 .type main, @function 
 main: 
 .LFB0: 
 .cfi_startproc 
 pushq %rbp 
 .cfi_def_cfa_offset 16 
 .cfi_offset 6, -16 
 movq %rsp, %rbp 
 .cfi_def_cfa_register 6 
 subq $16, %rsp 
 movl $0, -4(%rbp) 
 movl $-10, -4(%rbp) 
 movl -4(%rbp), %eax 
 movl %eax, %esi 
 movl $.LC0, %edi 
 movl $0, %eax 
 call printf 
 movl $0, %eax 
 leave 
 .cfi_def_cfa 7, 8 
 ret 
 .cfi_endproc 
 .LFE0: 
 .size main, .-main 
 .ident "GCC: (Ubuntu 5.4.0-6ubuntu1~16.04.4) 5.4.0 20160609" 
 .section .note.GNU-stack,"",@progbits 
 .file "aritmeticFile399.c" 
 .section .rodata 
 .LC0: 
 .string " a = %d" 
 .text 
 .globl main 
 .type main, @function 
 main: 
 .LFB0: 
 .cfi_startproc 
 pushq %rbp 
 .cfi_def_cfa_offset 16 
 .cfi_offset 6, -16 
 movq %rsp, %rbp 
 .cfi_def_cfa_register 6 
 subq $16, %rsp 
 movl $0, -4(%rbp) 
 movl $-63668, -4(%rbp) 
 movl -4(%rbp), %eax 
 movl %eax, %esi 
 movl $.LC0, %edi 
 movl $0, %eax 
 call printf 
 movl $0, %eax 
 leave 
 .cfi_def_cfa 7, 8 
 ret 
 .cfi_endproc 
 .LFE0: 
 .size main, .-main 
 .ident "GCC: (Ubuntu 5.4.0-6ubuntu1~16.04.4) 5.4.0 20160609" 
 .section .note.GNU-stack,"",@progbits 
 .file "aritmeticFile400.c" 
 .section .rodata 
 .LC0: 
 .string " a = %d" 
 .text 
 .globl main 
 .type main, @function 
 main: 
 .LFB0: 
 .cfi_startproc 
 pushq %rbp 
 .cfi_def_cfa_offset 16 
 .cfi_offset 6, -16 
 movq %rsp, %rbp 
 .cfi_def_cfa_register 6 
 subq $16, %rsp 
 movl $0, -4(%rbp) 
 movl $354522749, -4(%rbp) 
 movl -4(%rbp), %eax 
 movl %eax, %esi 
 movl $.LC0, %edi 
 movl $0, %eax 
 call printf 
 movl $0, %eax 
 leave 
 .cfi_def_cfa 7, 8 
 ret 
 .cfi_endproc 
 .LFE0: 
 .size main, .-main 
 .ident "GCC: (Ubuntu 5.4.0-6ubuntu1~16.04.4) 5.4.0 20160609" 
 .section .note.GNU-stack,"",@progbits 
 .file "aritmeticFile401.c" 
 .section .rodata 
 .LC0: 
 .string " a = %d" 
 .text 
 .globl main 
 .type main, @function 
 main: 
 .LFB0: 
 .cfi_startproc 
 pushq %rbp 
 .cfi_def_cfa_offset 16 
 .cfi_offset 6, -16 
 movq %rsp, %rbp 
 .cfi_def_cfa_register 6 
 subq $16, %rsp 
 movl $0, -4(%rbp) 
 movl $1985302287, -4(%rbp) 
 movl -4(%rbp), %eax 
 movl %eax, %esi 
 movl $.LC0, %edi 
 movl $0, %eax 
 call printf 
 movl $0, %eax 
 leave 
 .cfi_def_cfa 7, 8 
 ret 
 .cfi_endproc 
 .LFE0: 
 .size main, .-main 
 .ident "GCC: (Ubuntu 5.4.0-6ubuntu1~16.04.4) 5.4.0 20160609" 
 .section .note.GNU-stack,"",@progbits 
 .file "aritmeticFile402.c" 
 .section .rodata 
 .LC0: 
 .string " a = %d" 
 .text 
 .globl main 
 .type main, @function 
 main: 
 .LFB0: 
 .cfi_startproc 
 pushq %rbp 
 .cfi_def_cfa_offset 16 
 .cfi_offset 6, -16 
 movq %rsp, %rbp 
 .cfi_def_cfa_register 6 
 subq $16, %rsp 
 movl $0, -4(%rbp) 
 movl $-325813700, -4(%rbp) 
 movl -4(%rbp), %eax 
 movl %eax, %esi 
 movl $.LC0, %edi 
 movl $0, %eax 
 call printf 
 movl $0, %eax 
 leave 
 .cfi_def_cfa 7, 8 
 ret 
 .cfi_endproc 
 .LFE0: 
 .size main, .-main 
 .ident "GCC: (Ubuntu 5.4.0-6ubuntu1~16.04.4) 5.4.0 20160609" 
 .section .note.GNU-stack,"",@progbits 
 .file "aritmeticFile403.c" 
 .section .rodata 
 .LC0: 
 .string " a = %d" 
 .text 
 .globl main 
 .type main, @function 
 main: 
 .LFB0: 
 .cfi_startproc 
 pushq %rbp 
 .cfi_def_cfa_offset 16 
 .cfi_offset 6, -16 
 movq %rsp, %rbp 
 .cfi_def_cfa_register 6 
 subq $16, %rsp 
 movl $0, -4(%rbp) 
 movl $71383, -4(%rbp) 
 movl -4(%rbp), %eax 
 movl %eax, %esi 
 movl $.LC0, %edi 
 movl $0, %eax 
 call printf 
 movl $0, %eax 
 leave 
 .cfi_def_cfa 7, 8 
 ret 
 .cfi_endproc 
 .LFE0: 
 .size main, .-main 
 .ident "GCC: (Ubuntu 5.4.0-6ubuntu1~16.04.4) 5.4.0 20160609" 
 .section .note.GNU-stack,"",@progbits 
 .file "aritmeticFile404.c" 
 .section .rodata 
 .LC0: 
 .string " a = %d" 
 .text 
 .globl main 
 .type main, @function 
 main: 
 .LFB0: 
 .cfi_startproc 
 pushq %rbp 
 .cfi_def_cfa_offset 16 
 .cfi_offset 6, -16 
 movq %rsp, %rbp 
 .cfi_def_cfa_register 6 
 subq $16, %rsp 
 movl $0, -4(%rbp) 
 movl $-2059, -4(%rbp) 
 movl -4(%rbp), %eax 
 movl %eax, %esi 
 movl $.LC0, %edi 
 movl $0, %eax 
 call printf 
 movl $0, %eax 
 leave 
 .cfi_def_cfa 7, 8 
 ret 
 .cfi_endproc 
 .LFE0: 
 .size main, .-main 
 .ident "GCC: (Ubuntu 5.4.0-6ubuntu1~16.04.4) 5.4.0 20160609" 
 .section .note.GNU-stack,"",@progbits 
 .file "aritmeticFile405.c" 
 .section .rodata 
 .LC0: 
 .string " a = %d" 
 .text 
 .globl main 
 .type main, @function 
 main: 
 .LFB0: 
 .cfi_startproc 
 pushq %rbp 
 .cfi_def_cfa_offset 16 
 .cfi_offset 6, -16 
 movq %rsp, %rbp 
 .cfi_def_cfa_register 6 
 subq $16, %rsp 
 movl $0, -4(%rbp) 
 movl $2013658, -4(%rbp) 
 movl -4(%rbp), %eax 
 movl %eax, %esi 
 movl $.LC0, %edi 
 movl $0, %eax 
 call printf 
 movl $0, %eax 
 leave 
 .cfi_def_cfa 7, 8 
 ret 
 .cfi_endproc 
 .LFE0: 
 .size main, .-main 
 .ident "GCC: (Ubuntu 5.4.0-6ubuntu1~16.04.4) 5.4.0 20160609" 
 .section .note.GNU-stack,"",@progbits 
 .file "aritmeticFile406.c" 
 .section .rodata 
 .LC0: 
 .string " a = %d" 
 .text 
 .globl main 
 .type main, @function 
 main: 
 .LFB0: 
 .cfi_startproc 
 pushq %rbp 
 .cfi_def_cfa_offset 16 
 .cfi_offset 6, -16 
 movq %rsp, %rbp 
 .cfi_def_cfa_register 6 
 subq $16, %rsp 
 movl $0, -4(%rbp) 
 movl $693049, -4(%rbp) 
 movl -4(%rbp), %eax 
 movl %eax, %esi 
 movl $.LC0, %edi 
 movl $0, %eax 
 call printf 
 movl $0, %eax 
 leave 
 .cfi_def_cfa 7, 8 
 ret 
 .cfi_endproc 
 .LFE0: 
 .size main, .-main 
 .ident "GCC: (Ubuntu 5.4.0-6ubuntu1~16.04.4) 5.4.0 20160609" 
 .section .note.GNU-stack,"",@progbits 
 .file "aritmeticFile407.c" 
 .section .rodata 
 .LC0: 
 .string " a = %d" 
 .text 
 .globl main 
 .type main, @function 
 main: 
 .LFB0: 
 .cfi_startproc 
 pushq %rbp 
 .cfi_def_cfa_offset 16 
 .cfi_offset 6, -16 
 movq %rsp, %rbp 
 .cfi_def_cfa_register 6 
 subq $16, %rsp 
 movl $0, -4(%rbp) 
 movl $-2697567, -4(%rbp) 
 movl -4(%rbp), %eax 
 movl %eax, %esi 
 movl $.LC0, %edi 
 movl $0, %eax 
 call printf 
 movl $0, %eax 
 leave 
 .cfi_def_cfa 7, 8 
 ret 
 .cfi_endproc 
 .LFE0: 
 .size main, .-main 
 .ident "GCC: (Ubuntu 5.4.0-6ubuntu1~16.04.4) 5.4.0 20160609" 
 .section .note.GNU-stack,"",@progbits 
 .file "aritmeticFile408.c" 
 .section .rodata 
 .LC0: 
 .string " a = %d" 
 .text 
 .globl main 
 .type main, @function 
 main: 
 .LFB0: 
 .cfi_startproc 
 pushq %rbp 
 .cfi_def_cfa_offset 16 
 .cfi_offset 6, -16 
 movq %rsp, %rbp 
 .cfi_def_cfa_register 6 
 subq $16, %rsp 
 movl $0, -4(%rbp) 
 movl $42, -4(%rbp) 
 movl -4(%rbp), %eax 
 movl %eax, %esi 
 movl $.LC0, %edi 
 movl $0, %eax 
 call printf 
 movl $0, %eax 
 leave 
 .cfi_def_cfa 7, 8 
 ret 
 .cfi_endproc 
 .LFE0: 
 .size main, .-main 
 .ident "GCC: (Ubuntu 5.4.0-6ubuntu1~16.04.4) 5.4.0 20160609" 
 .section .note.GNU-stack,"",@progbits 
 .file "aritmeticFile409.c" 
 .section .rodata 
 .LC0: 
 .string " a = %d" 
 .text 
 .globl main 
 .type main, @function 
 main: 
 .LFB0: 
 .cfi_startproc 
 pushq %rbp 
 .cfi_def_cfa_offset 16 
 .cfi_offset 6, -16 
 movq %rsp, %rbp 
 .cfi_def_cfa_register 6 
 subq $16, %rsp 
 movl $0, -4(%rbp) 
 movl $551, -4(%rbp) 
 movl -4(%rbp), %eax 
 movl %eax, %esi 
 movl $.LC0, %edi 
 movl $0, %eax 
 call printf 
 movl $0, %eax 
 leave 
 .cfi_def_cfa 7, 8 
 ret 
 .cfi_endproc 
 .LFE0: 
 .size main, .-main 
 .ident "GCC: (Ubuntu 5.4.0-6ubuntu1~16.04.4) 5.4.0 20160609" 
 .section .note.GNU-stack,"",@progbits 
 .file "aritmeticFile410.c" 
 .section .rodata 
 .LC0: 
 .string " a = %d" 
 .text 
 .globl main 
 .type main, @function 
 main: 
 .LFB0: 
 .cfi_startproc 
 pushq %rbp 
 .cfi_def_cfa_offset 16 
 .cfi_offset 6, -16 
 movq %rsp, %rbp 
 .cfi_def_cfa_register 6 
 subq $16, %rsp 
 movl $0, -4(%rbp) 
 movl $18990, -4(%rbp) 
 movl -4(%rbp), %eax 
 movl %eax, %esi 
 movl $.LC0, %edi 
 movl $0, %eax 
 call printf 
 movl $0, %eax 
 leave 
 .cfi_def_cfa 7, 8 
 ret 
 .cfi_endproc 
 .LFE0: 
 .size main, .-main 
 .ident "GCC: (Ubuntu 5.4.0-6ubuntu1~16.04.4) 5.4.0 20160609" 
 .section .note.GNU-stack,"",@progbits 
